
build/kernel8.elf:     file format elf64-littleaarch64


Disassembly of section .text:

0000000000080000 <_start>:
   80000:	9400000e 	bl	80038 <from_el2_to_el1>
   80004:	1002bfe1 	adr	x1, 85800 <exception_vector_table>
   80008:	d518c001 	msr	vbar_el1, x1

000000000008000c <setup_stack>:
   8000c:	58000261 	ldr	x1, 80058 <from_el2_to_el1+0x20>
   80010:	9100003f 	mov	sp, x1

0000000000080014 <setup_bss>:
   80014:	58000261 	ldr	x1, 80060 <from_el2_to_el1+0x28>
   80018:	180001c2 	ldr	w2, 80050 <from_el2_to_el1+0x18>

000000000008001c <init_bss>:
   8001c:	34000082 	cbz	w2, 8002c <run_main>
   80020:	f800843f 	str	xzr, [x1], #8
   80024:	51000442 	sub	w2, w2, #0x1
   80028:	35ffffa2 	cbnz	w2, 8001c <init_bss>

000000000008002c <run_main>:
   8002c:	9400041a 	bl	81094 <main>

0000000000080030 <proc_hang>:
   80030:	d503205f 	wfe
   80034:	17ffffff 	b	80030 <proc_hang>

0000000000080038 <from_el2_to_el1>:
   80038:	d2b00001 	mov	x1, #0x80000000            	// #2147483648
   8003c:	d51c1101 	msr	hcr_el2, x1
   80040:	d28068a1 	mov	x1, #0x345                 	// #837
   80044:	d51c4001 	msr	spsr_el2, x1
   80048:	d51c403e 	msr	elr_el2, x30
   8004c:	d69f03e0 	eret
   80050:	0042d1e8 	.inst	0x0042d1e8 ; undefined
   80054:	00000000 	udf	#0
   80058:	029f1790 	.inst	0x029f1790 ; undefined
   8005c:	00000000 	udf	#0
   80060:	00088850 	.inst	0x00088850 ; undefined
   80064:	00000000 	udf	#0

0000000000080068 <parse_hex_str>:
   80068:	d10083ff 	sub	sp, sp, #0x20
   8006c:	f90007e0 	str	x0, [sp, #8]
   80070:	b90007e1 	str	w1, [sp, #4]
   80074:	b9001fff 	str	wzr, [sp, #28]
   80078:	b9001bff 	str	wzr, [sp, #24]
   8007c:	1400004b 	b	801a8 <parse_hex_str+0x140>
   80080:	b9401fe0 	ldr	w0, [sp, #28]
   80084:	531c6c00 	lsl	w0, w0, #4
   80088:	b9001fe0 	str	w0, [sp, #28]
   8008c:	b9401be0 	ldr	w0, [sp, #24]
   80090:	f94007e1 	ldr	x1, [sp, #8]
   80094:	8b000020 	add	x0, x1, x0
   80098:	39400000 	ldrb	w0, [x0]
   8009c:	7100bc1f 	cmp	w0, #0x2f
   800a0:	54000229 	b.ls	800e4 <parse_hex_str+0x7c>  // b.plast
   800a4:	b9401be0 	ldr	w0, [sp, #24]
   800a8:	f94007e1 	ldr	x1, [sp, #8]
   800ac:	8b000020 	add	x0, x1, x0
   800b0:	39400000 	ldrb	w0, [x0]
   800b4:	7100e41f 	cmp	w0, #0x39
   800b8:	54000168 	b.hi	800e4 <parse_hex_str+0x7c>  // b.pmore
   800bc:	b9401be0 	ldr	w0, [sp, #24]
   800c0:	f94007e1 	ldr	x1, [sp, #8]
   800c4:	8b000020 	add	x0, x1, x0
   800c8:	39400000 	ldrb	w0, [x0]
   800cc:	2a0003e1 	mov	w1, w0
   800d0:	b9401fe0 	ldr	w0, [sp, #28]
   800d4:	0b000020 	add	w0, w1, w0
   800d8:	5100c000 	sub	w0, w0, #0x30
   800dc:	b9001fe0 	str	w0, [sp, #28]
   800e0:	1400002f 	b	8019c <parse_hex_str+0x134>
   800e4:	b9401be0 	ldr	w0, [sp, #24]
   800e8:	f94007e1 	ldr	x1, [sp, #8]
   800ec:	8b000020 	add	x0, x1, x0
   800f0:	39400000 	ldrb	w0, [x0]
   800f4:	7101801f 	cmp	w0, #0x60
   800f8:	54000229 	b.ls	8013c <parse_hex_str+0xd4>  // b.plast
   800fc:	b9401be0 	ldr	w0, [sp, #24]
   80100:	f94007e1 	ldr	x1, [sp, #8]
   80104:	8b000020 	add	x0, x1, x0
   80108:	39400000 	ldrb	w0, [x0]
   8010c:	7101981f 	cmp	w0, #0x66
   80110:	54000168 	b.hi	8013c <parse_hex_str+0xd4>  // b.pmore
   80114:	b9401be0 	ldr	w0, [sp, #24]
   80118:	f94007e1 	ldr	x1, [sp, #8]
   8011c:	8b000020 	add	x0, x1, x0
   80120:	39400000 	ldrb	w0, [x0]
   80124:	2a0003e1 	mov	w1, w0
   80128:	b9401fe0 	ldr	w0, [sp, #28]
   8012c:	0b000020 	add	w0, w1, w0
   80130:	51015c00 	sub	w0, w0, #0x57
   80134:	b9001fe0 	str	w0, [sp, #28]
   80138:	14000019 	b	8019c <parse_hex_str+0x134>
   8013c:	b9401be0 	ldr	w0, [sp, #24]
   80140:	f94007e1 	ldr	x1, [sp, #8]
   80144:	8b000020 	add	x0, x1, x0
   80148:	39400000 	ldrb	w0, [x0]
   8014c:	7101001f 	cmp	w0, #0x40
   80150:	54000229 	b.ls	80194 <parse_hex_str+0x12c>  // b.plast
   80154:	b9401be0 	ldr	w0, [sp, #24]
   80158:	f94007e1 	ldr	x1, [sp, #8]
   8015c:	8b000020 	add	x0, x1, x0
   80160:	39400000 	ldrb	w0, [x0]
   80164:	7101181f 	cmp	w0, #0x46
   80168:	54000168 	b.hi	80194 <parse_hex_str+0x12c>  // b.pmore
   8016c:	b9401be0 	ldr	w0, [sp, #24]
   80170:	f94007e1 	ldr	x1, [sp, #8]
   80174:	8b000020 	add	x0, x1, x0
   80178:	39400000 	ldrb	w0, [x0]
   8017c:	2a0003e1 	mov	w1, w0
   80180:	b9401fe0 	ldr	w0, [sp, #28]
   80184:	0b000020 	add	w0, w1, w0
   80188:	5100dc00 	sub	w0, w0, #0x37
   8018c:	b9001fe0 	str	w0, [sp, #28]
   80190:	14000003 	b	8019c <parse_hex_str+0x134>
   80194:	b9401fe0 	ldr	w0, [sp, #28]
   80198:	14000009 	b	801bc <parse_hex_str+0x154>
   8019c:	b9401be0 	ldr	w0, [sp, #24]
   801a0:	11000400 	add	w0, w0, #0x1
   801a4:	b9001be0 	str	w0, [sp, #24]
   801a8:	b9401be1 	ldr	w1, [sp, #24]
   801ac:	b94007e0 	ldr	w0, [sp, #4]
   801b0:	6b00003f 	cmp	w1, w0
   801b4:	54fff663 	b.cc	80080 <parse_hex_str+0x18>  // b.lo, b.ul, b.last
   801b8:	b9401fe0 	ldr	w0, [sp, #28]
   801bc:	910083ff 	add	sp, sp, #0x20
   801c0:	d65f03c0 	ret

00000000000801c4 <cpio_newc_parse_header>:
   801c4:	a9bb7bfd 	stp	x29, x30, [sp, #-80]!
   801c8:	910003fd 	mov	x29, sp
   801cc:	f9001fe0 	str	x0, [sp, #56]
   801d0:	f9001be1 	str	x1, [sp, #48]
   801d4:	f90017e2 	str	x2, [sp, #40]
   801d8:	f90013e3 	str	x3, [sp, #32]
   801dc:	f9000fe4 	str	x4, [sp, #24]
   801e0:	f9401fe3 	ldr	x3, [sp, #56]
   801e4:	d28000c2 	mov	x2, #0x6                   	// #6
   801e8:	d0000020 	adrp	x0, 86000 <el1t_irq_invalid+0x74>
   801ec:	910f0001 	add	x1, x0, #0x3c0
   801f0:	aa0303e0 	mov	x0, x3
   801f4:	94001479 	bl	853d8 <strncmp>
   801f8:	7100001f 	cmp	w0, #0x0
   801fc:	54000060 	b.eq	80208 <cpio_newc_parse_header+0x44>  // b.none
   80200:	12800000 	mov	w0, #0xffffffff            	// #-1
   80204:	1400004a 	b	8032c <cpio_newc_parse_header+0x168>
   80208:	f9401fe0 	ldr	x0, [sp, #56]
   8020c:	9100d800 	add	x0, x0, #0x36
   80210:	52800101 	mov	w1, #0x8                   	// #8
   80214:	97ffff95 	bl	80068 <parse_hex_str>
   80218:	2a0003e1 	mov	w1, w0
   8021c:	f94017e0 	ldr	x0, [sp, #40]
   80220:	b9000001 	str	w1, [x0]
   80224:	f9401fe0 	ldr	x0, [sp, #56]
   80228:	9101b801 	add	x1, x0, #0x6e
   8022c:	f9401be0 	ldr	x0, [sp, #48]
   80230:	f9000001 	str	x1, [x0]
   80234:	f9401fe0 	ldr	x0, [sp, #56]
   80238:	91017800 	add	x0, x0, #0x5e
   8023c:	52800101 	mov	w1, #0x8                   	// #8
   80240:	97ffff8a 	bl	80068 <parse_hex_str>
   80244:	b9004fe0 	str	w0, [sp, #76]
   80248:	b9404fe0 	ldr	w0, [sp, #76]
   8024c:	1101b800 	add	w0, w0, #0x6e
   80250:	b9004be0 	str	w0, [sp, #72]
   80254:	b9404be0 	ldr	w0, [sp, #72]
   80258:	12000400 	and	w0, w0, #0x3
   8025c:	7100001f 	cmp	w0, #0x0
   80260:	540000a0 	b.eq	80274 <cpio_newc_parse_header+0xb0>  // b.none
   80264:	b9404be0 	ldr	w0, [sp, #72]
   80268:	121e7400 	and	w0, w0, #0xfffffffc
   8026c:	11001000 	add	w0, w0, #0x4
   80270:	14000002 	b	80278 <cpio_newc_parse_header+0xb4>
   80274:	b9404be0 	ldr	w0, [sp, #72]
   80278:	b9004be0 	str	w0, [sp, #72]
   8027c:	b9404be0 	ldr	w0, [sp, #72]
   80280:	f9401fe1 	ldr	x1, [sp, #56]
   80284:	8b000021 	add	x1, x1, x0
   80288:	f94013e0 	ldr	x0, [sp, #32]
   8028c:	f9000001 	str	x1, [x0]
   80290:	f94017e0 	ldr	x0, [sp, #40]
   80294:	b9400000 	ldr	w0, [x0]
   80298:	7100001f 	cmp	w0, #0x0
   8029c:	540000c1 	b.ne	802b4 <cpio_newc_parse_header+0xf0>  // b.any
   802a0:	f94013e0 	ldr	x0, [sp, #32]
   802a4:	f9400001 	ldr	x1, [x0]
   802a8:	f9400fe0 	ldr	x0, [sp, #24]
   802ac:	f9000001 	str	x1, [x0]
   802b0:	14000013 	b	802fc <cpio_newc_parse_header+0x138>
   802b4:	f94017e0 	ldr	x0, [sp, #40]
   802b8:	b9400000 	ldr	w0, [x0]
   802bc:	b9004be0 	str	w0, [sp, #72]
   802c0:	f94013e0 	ldr	x0, [sp, #32]
   802c4:	f9400001 	ldr	x1, [x0]
   802c8:	b9404be0 	ldr	w0, [sp, #72]
   802cc:	12000400 	and	w0, w0, #0x3
   802d0:	7100001f 	cmp	w0, #0x0
   802d4:	54000061 	b.ne	802e0 <cpio_newc_parse_header+0x11c>  // b.any
   802d8:	b9404be0 	ldr	w0, [sp, #72]
   802dc:	14000005 	b	802f0 <cpio_newc_parse_header+0x12c>
   802e0:	b9404be0 	ldr	w0, [sp, #72]
   802e4:	121e7400 	and	w0, w0, #0xfffffffc
   802e8:	11001000 	add	w0, w0, #0x4
   802ec:	2a0003e0 	mov	w0, w0
   802f0:	8b000021 	add	x1, x1, x0
   802f4:	f9400fe0 	ldr	x0, [sp, #24]
   802f8:	f9000001 	str	x1, [x0]
   802fc:	f9401be0 	ldr	x0, [sp, #48]
   80300:	f9400003 	ldr	x3, [x0]
   80304:	d2800162 	mov	x2, #0xb                   	// #11
   80308:	d0000020 	adrp	x0, 86000 <el1t_irq_invalid+0x74>
   8030c:	910f2001 	add	x1, x0, #0x3c8
   80310:	aa0303e0 	mov	x0, x3
   80314:	94001431 	bl	853d8 <strncmp>
   80318:	7100001f 	cmp	w0, #0x0
   8031c:	54000061 	b.ne	80328 <cpio_newc_parse_header+0x164>  // b.any
   80320:	f9400fe0 	ldr	x0, [sp, #24]
   80324:	f900001f 	str	xzr, [x0]
   80328:	52800000 	mov	w0, #0x0                   	// #0
   8032c:	a8c57bfd 	ldp	x29, x30, [sp], #80
   80330:	d65f03c0 	ret

0000000000080334 <uint32_endian_big2little>:
   80334:	d10083ff 	sub	sp, sp, #0x20
   80338:	b9000fe0 	str	w0, [sp, #12]
   8033c:	910033e0 	add	x0, sp, #0xc
   80340:	f9000fe0 	str	x0, [sp, #24]
   80344:	f9400fe0 	ldr	x0, [sp, #24]
   80348:	91000c00 	add	x0, x0, #0x3
   8034c:	39400000 	ldrb	w0, [x0]
   80350:	2a0003e1 	mov	w1, w0
   80354:	f9400fe0 	ldr	x0, [sp, #24]
   80358:	91000800 	add	x0, x0, #0x2
   8035c:	39400000 	ldrb	w0, [x0]
   80360:	53185c00 	lsl	w0, w0, #8
   80364:	2a000021 	orr	w1, w1, w0
   80368:	f9400fe0 	ldr	x0, [sp, #24]
   8036c:	91000400 	add	x0, x0, #0x1
   80370:	39400000 	ldrb	w0, [x0]
   80374:	53103c00 	lsl	w0, w0, #16
   80378:	2a000021 	orr	w1, w1, w0
   8037c:	f9400fe0 	ldr	x0, [sp, #24]
   80380:	39400000 	ldrb	w0, [x0]
   80384:	53081c00 	lsl	w0, w0, #24
   80388:	2a000020 	orr	w0, w1, w0
   8038c:	910083ff 	add	sp, sp, #0x20
   80390:	d65f03c0 	ret

0000000000080394 <uint64_endian_big2little>:
   80394:	d10083ff 	sub	sp, sp, #0x20
   80398:	f90007e0 	str	x0, [sp, #8]
   8039c:	910023e0 	add	x0, sp, #0x8
   803a0:	f9000fe0 	str	x0, [sp, #24]
   803a4:	f9400fe0 	ldr	x0, [sp, #24]
   803a8:	91001c00 	add	x0, x0, #0x7
   803ac:	39400000 	ldrb	w0, [x0]
   803b0:	92401c01 	and	x1, x0, #0xff
   803b4:	f9400fe0 	ldr	x0, [sp, #24]
   803b8:	91001800 	add	x0, x0, #0x6
   803bc:	39400000 	ldrb	w0, [x0]
   803c0:	53185c00 	lsl	w0, w0, #8
   803c4:	93407c00 	sxtw	x0, w0
   803c8:	aa000021 	orr	x1, x1, x0
   803cc:	f9400fe0 	ldr	x0, [sp, #24]
   803d0:	91001400 	add	x0, x0, #0x5
   803d4:	39400000 	ldrb	w0, [x0]
   803d8:	92401c00 	and	x0, x0, #0xff
   803dc:	d370bc00 	lsl	x0, x0, #16
   803e0:	aa000021 	orr	x1, x1, x0
   803e4:	f9400fe0 	ldr	x0, [sp, #24]
   803e8:	91001000 	add	x0, x0, #0x4
   803ec:	39400000 	ldrb	w0, [x0]
   803f0:	92401c00 	and	x0, x0, #0xff
   803f4:	d3689c00 	lsl	x0, x0, #24
   803f8:	aa000021 	orr	x1, x1, x0
   803fc:	f9400fe0 	ldr	x0, [sp, #24]
   80400:	91000c00 	add	x0, x0, #0x3
   80404:	39400000 	ldrb	w0, [x0]
   80408:	92401c00 	and	x0, x0, #0xff
   8040c:	d3607c00 	lsl	x0, x0, #32
   80410:	aa000021 	orr	x1, x1, x0
   80414:	f9400fe0 	ldr	x0, [sp, #24]
   80418:	91000800 	add	x0, x0, #0x2
   8041c:	39400000 	ldrb	w0, [x0]
   80420:	92401c00 	and	x0, x0, #0xff
   80424:	d3585c00 	lsl	x0, x0, #40
   80428:	aa000021 	orr	x1, x1, x0
   8042c:	f9400fe0 	ldr	x0, [sp, #24]
   80430:	91000400 	add	x0, x0, #0x1
   80434:	39400000 	ldrb	w0, [x0]
   80438:	92401c00 	and	x0, x0, #0xff
   8043c:	d3503c00 	lsl	x0, x0, #48
   80440:	aa000021 	orr	x1, x1, x0
   80444:	f9400fe0 	ldr	x0, [sp, #24]
   80448:	39400000 	ldrb	w0, [x0]
   8044c:	92401c00 	and	x0, x0, #0xff
   80450:	d3481c00 	lsl	x0, x0, #56
   80454:	aa000020 	orr	x0, x1, x0
   80458:	910083ff 	add	sp, sp, #0x20
   8045c:	d65f03c0 	ret

0000000000080460 <traverse_device_tree>:
   80460:	a9ba7bfd 	stp	x29, x30, [sp, #-96]!
   80464:	910003fd 	mov	x29, sp
   80468:	f9000fe0 	str	x0, [sp, #24]
   8046c:	f9000be1 	str	x1, [sp, #16]
   80470:	f9400fe0 	ldr	x0, [sp, #24]
   80474:	f9002be0 	str	x0, [sp, #80]
   80478:	f9402be0 	ldr	x0, [sp, #80]
   8047c:	b9400000 	ldr	w0, [x0]
   80480:	97ffffad 	bl	80334 <uint32_endian_big2little>
   80484:	2a0003e1 	mov	w1, w0
   80488:	529fdda0 	mov	w0, #0xfeed                	// #65261
   8048c:	72ba01a0 	movk	w0, #0xd00d, lsl #16
   80490:	6b00003f 	cmp	w1, w0
   80494:	540000a0 	b.eq	804a8 <traverse_device_tree+0x48>  // b.none
   80498:	d0000020 	adrp	x0, 86000 <el1t_irq_invalid+0x74>
   8049c:	910f6000 	add	x0, x0, #0x3d8
   804a0:	94001102 	bl	848a8 <uart_sendline>
   804a4:	14000089 	b	806c8 <traverse_device_tree+0x268>
   804a8:	f9402be0 	ldr	x0, [sp, #80]
   804ac:	b9402400 	ldr	w0, [x0, #36]
   804b0:	97ffffa1 	bl	80334 <uint32_endian_big2little>
   804b4:	b9004fe0 	str	w0, [sp, #76]
   804b8:	f9402be0 	ldr	x0, [sp, #80]
   804bc:	b9400800 	ldr	w0, [x0, #8]
   804c0:	97ffff9d 	bl	80334 <uint32_endian_big2little>
   804c4:	2a0003e0 	mov	w0, w0
   804c8:	f9402be1 	ldr	x1, [sp, #80]
   804cc:	8b000020 	add	x0, x1, x0
   804d0:	f90023e0 	str	x0, [sp, #64]
   804d4:	f9402be0 	ldr	x0, [sp, #80]
   804d8:	b9400c00 	ldr	w0, [x0, #12]
   804dc:	97ffff96 	bl	80334 <uint32_endian_big2little>
   804e0:	2a0003e0 	mov	w0, w0
   804e4:	f9402be1 	ldr	x1, [sp, #80]
   804e8:	8b000020 	add	x0, x1, x0
   804ec:	f9001fe0 	str	x0, [sp, #56]
   804f0:	b9404fe0 	ldr	w0, [sp, #76]
   804f4:	f94023e1 	ldr	x1, [sp, #64]
   804f8:	8b000020 	add	x0, x1, x0
   804fc:	f9001be0 	str	x0, [sp, #48]
   80500:	f94023e0 	ldr	x0, [sp, #64]
   80504:	f9002fe0 	str	x0, [sp, #88]
   80508:	1400006c 	b	806b8 <traverse_device_tree+0x258>
   8050c:	f9402fe0 	ldr	x0, [sp, #88]
   80510:	b9400000 	ldr	w0, [x0]
   80514:	97ffff88 	bl	80334 <uint32_endian_big2little>
   80518:	b9002fe0 	str	w0, [sp, #44]
   8051c:	f9402fe0 	ldr	x0, [sp, #88]
   80520:	91001000 	add	x0, x0, #0x4
   80524:	f9002fe0 	str	x0, [sp, #88]
   80528:	b9402fe0 	ldr	w0, [sp, #44]
   8052c:	7100041f 	cmp	w0, #0x1
   80530:	540002a1 	b.ne	80584 <traverse_device_tree+0x124>  // b.any
   80534:	f9400be4 	ldr	x4, [sp, #16]
   80538:	52800003 	mov	w3, #0x0                   	// #0
   8053c:	d2800002 	mov	x2, #0x0                   	// #0
   80540:	f9402fe1 	ldr	x1, [sp, #88]
   80544:	b9402fe0 	ldr	w0, [sp, #44]
   80548:	d63f0080 	blr	x4
   8054c:	f9402fe0 	ldr	x0, [sp, #88]
   80550:	94001371 	bl	85314 <strlen>
   80554:	aa0003e1 	mov	x1, x0
   80558:	f9402fe0 	ldr	x0, [sp, #88]
   8055c:	8b010000 	add	x0, x0, x1
   80560:	f9002fe0 	str	x0, [sp, #88]
   80564:	f9402fe0 	ldr	x0, [sp, #88]
   80568:	92400400 	and	x0, x0, #0x3
   8056c:	d2800081 	mov	x1, #0x4                   	// #4
   80570:	cb000020 	sub	x0, x1, x0
   80574:	f9402fe1 	ldr	x1, [sp, #88]
   80578:	8b000020 	add	x0, x1, x0
   8057c:	f9002fe0 	str	x0, [sp, #88]
   80580:	1400004e 	b	806b8 <traverse_device_tree+0x258>
   80584:	b9402fe0 	ldr	w0, [sp, #44]
   80588:	7100081f 	cmp	w0, #0x2
   8058c:	54000101 	b.ne	805ac <traverse_device_tree+0x14c>  // b.any
   80590:	f9400be4 	ldr	x4, [sp, #16]
   80594:	52800003 	mov	w3, #0x0                   	// #0
   80598:	d2800002 	mov	x2, #0x0                   	// #0
   8059c:	d2800001 	mov	x1, #0x0                   	// #0
   805a0:	b9402fe0 	ldr	w0, [sp, #44]
   805a4:	d63f0080 	blr	x4
   805a8:	14000044 	b	806b8 <traverse_device_tree+0x258>
   805ac:	b9402fe0 	ldr	w0, [sp, #44]
   805b0:	71000c1f 	cmp	w0, #0x3
   805b4:	54000501 	b.ne	80654 <traverse_device_tree+0x1f4>  // b.any
   805b8:	f9402fe0 	ldr	x0, [sp, #88]
   805bc:	b9400000 	ldr	w0, [x0]
   805c0:	97ffff5d 	bl	80334 <uint32_endian_big2little>
   805c4:	b9002be0 	str	w0, [sp, #40]
   805c8:	f9402fe0 	ldr	x0, [sp, #88]
   805cc:	91001000 	add	x0, x0, #0x4
   805d0:	f9002fe0 	str	x0, [sp, #88]
   805d4:	f9402fe0 	ldr	x0, [sp, #88]
   805d8:	b9400000 	ldr	w0, [x0]
   805dc:	97ffff56 	bl	80334 <uint32_endian_big2little>
   805e0:	2a0003e0 	mov	w0, w0
   805e4:	f9401fe1 	ldr	x1, [sp, #56]
   805e8:	8b000020 	add	x0, x1, x0
   805ec:	f90013e0 	str	x0, [sp, #32]
   805f0:	f9402fe0 	ldr	x0, [sp, #88]
   805f4:	91001000 	add	x0, x0, #0x4
   805f8:	f9002fe0 	str	x0, [sp, #88]
   805fc:	f9400be4 	ldr	x4, [sp, #16]
   80600:	b9402be3 	ldr	w3, [sp, #40]
   80604:	f9402fe2 	ldr	x2, [sp, #88]
   80608:	f94013e1 	ldr	x1, [sp, #32]
   8060c:	b9402fe0 	ldr	w0, [sp, #44]
   80610:	d63f0080 	blr	x4
   80614:	b9402be0 	ldr	w0, [sp, #40]
   80618:	f9402fe1 	ldr	x1, [sp, #88]
   8061c:	8b000020 	add	x0, x1, x0
   80620:	f9002fe0 	str	x0, [sp, #88]
   80624:	f9402fe0 	ldr	x0, [sp, #88]
   80628:	92400400 	and	x0, x0, #0x3
   8062c:	f100001f 	cmp	x0, #0x0
   80630:	54000440 	b.eq	806b8 <traverse_device_tree+0x258>  // b.none
   80634:	f9402fe0 	ldr	x0, [sp, #88]
   80638:	92400400 	and	x0, x0, #0x3
   8063c:	d2800081 	mov	x1, #0x4                   	// #4
   80640:	cb000020 	sub	x0, x1, x0
   80644:	f9402fe1 	ldr	x1, [sp, #88]
   80648:	8b000020 	add	x0, x1, x0
   8064c:	f9002fe0 	str	x0, [sp, #88]
   80650:	1400001a 	b	806b8 <traverse_device_tree+0x258>
   80654:	b9402fe0 	ldr	w0, [sp, #44]
   80658:	7100101f 	cmp	w0, #0x4
   8065c:	54000101 	b.ne	8067c <traverse_device_tree+0x21c>  // b.any
   80660:	f9400be4 	ldr	x4, [sp, #16]
   80664:	52800003 	mov	w3, #0x0                   	// #0
   80668:	d2800002 	mov	x2, #0x0                   	// #0
   8066c:	d2800001 	mov	x1, #0x0                   	// #0
   80670:	b9402fe0 	ldr	w0, [sp, #44]
   80674:	d63f0080 	blr	x4
   80678:	14000010 	b	806b8 <traverse_device_tree+0x258>
   8067c:	b9402fe0 	ldr	w0, [sp, #44]
   80680:	7100241f 	cmp	w0, #0x9
   80684:	54000101 	b.ne	806a4 <traverse_device_tree+0x244>  // b.any
   80688:	f9400be4 	ldr	x4, [sp, #16]
   8068c:	52800003 	mov	w3, #0x0                   	// #0
   80690:	d2800002 	mov	x2, #0x0                   	// #0
   80694:	d2800001 	mov	x1, #0x0                   	// #0
   80698:	b9402fe0 	ldr	w0, [sp, #44]
   8069c:	d63f0080 	blr	x4
   806a0:	14000006 	b	806b8 <traverse_device_tree+0x258>
   806a4:	b9402fe1 	ldr	w1, [sp, #44]
   806a8:	d0000020 	adrp	x0, 86000 <el1t_irq_invalid+0x74>
   806ac:	91106000 	add	x0, x0, #0x418
   806b0:	9400107e 	bl	848a8 <uart_sendline>
   806b4:	14000005 	b	806c8 <traverse_device_tree+0x268>
   806b8:	f9402fe1 	ldr	x1, [sp, #88]
   806bc:	f9401be0 	ldr	x0, [sp, #48]
   806c0:	eb00003f 	cmp	x1, x0
   806c4:	54fff243 	b.cc	8050c <traverse_device_tree+0xac>  // b.lo, b.ul, b.last
   806c8:	a8c67bfd 	ldp	x29, x30, [sp], #96
   806cc:	d65f03c0 	ret

00000000000806d0 <dtb_callback_show_tree>:
   806d0:	a9bc7bfd 	stp	x29, x30, [sp, #-64]!
   806d4:	910003fd 	mov	x29, sp
   806d8:	b9002fe0 	str	w0, [sp, #44]
   806dc:	f90013e1 	str	x1, [sp, #32]
   806e0:	f9000fe2 	str	x2, [sp, #24]
   806e4:	b9002be3 	str	w3, [sp, #40]
   806e8:	b9402fe0 	ldr	w0, [sp, #44]
   806ec:	7100041f 	cmp	w0, #0x1
   806f0:	54000361 	b.ne	8075c <dtb_callback_show_tree+0x8c>  // b.any
   806f4:	b9003fff 	str	wzr, [sp, #60]
   806f8:	14000007 	b	80714 <dtb_callback_show_tree+0x44>
   806fc:	d0000020 	adrp	x0, 86000 <el1t_irq_invalid+0x74>
   80700:	9110a000 	add	x0, x0, #0x428
   80704:	94001069 	bl	848a8 <uart_sendline>
   80708:	b9403fe0 	ldr	w0, [sp, #60]
   8070c:	11000400 	add	w0, w0, #0x1
   80710:	b9003fe0 	str	w0, [sp, #60]
   80714:	90000040 	adrp	x0, 88000 <cmd_list+0x758>
   80718:	91216000 	add	x0, x0, #0x858
   8071c:	b9400000 	ldr	w0, [x0]
   80720:	b9403fe1 	ldr	w1, [sp, #60]
   80724:	6b00003f 	cmp	w1, w0
   80728:	54fffeab 	b.lt	806fc <dtb_callback_show_tree+0x2c>  // b.tstop
   8072c:	f94013e1 	ldr	x1, [sp, #32]
   80730:	d0000020 	adrp	x0, 86000 <el1t_irq_invalid+0x74>
   80734:	9110c000 	add	x0, x0, #0x430
   80738:	9400105c 	bl	848a8 <uart_sendline>
   8073c:	90000040 	adrp	x0, 88000 <cmd_list+0x758>
   80740:	91216000 	add	x0, x0, #0x858
   80744:	b9400000 	ldr	w0, [x0]
   80748:	11000401 	add	w1, w0, #0x1
   8074c:	90000040 	adrp	x0, 88000 <cmd_list+0x758>
   80750:	91216000 	add	x0, x0, #0x858
   80754:	b9000001 	str	w1, [x0]
   80758:	14000032 	b	80820 <dtb_callback_show_tree+0x150>
   8075c:	b9402fe0 	ldr	w0, [sp, #44]
   80760:	7100081f 	cmp	w0, #0x2
   80764:	54000341 	b.ne	807cc <dtb_callback_show_tree+0xfc>  // b.any
   80768:	90000040 	adrp	x0, 88000 <cmd_list+0x758>
   8076c:	91216000 	add	x0, x0, #0x858
   80770:	b9400000 	ldr	w0, [x0]
   80774:	51000401 	sub	w1, w0, #0x1
   80778:	90000040 	adrp	x0, 88000 <cmd_list+0x758>
   8077c:	91216000 	add	x0, x0, #0x858
   80780:	b9000001 	str	w1, [x0]
   80784:	b9003bff 	str	wzr, [sp, #56]
   80788:	14000007 	b	807a4 <dtb_callback_show_tree+0xd4>
   8078c:	d0000020 	adrp	x0, 86000 <el1t_irq_invalid+0x74>
   80790:	9110a000 	add	x0, x0, #0x428
   80794:	94001045 	bl	848a8 <uart_sendline>
   80798:	b9403be0 	ldr	w0, [sp, #56]
   8079c:	11000400 	add	w0, w0, #0x1
   807a0:	b9003be0 	str	w0, [sp, #56]
   807a4:	90000040 	adrp	x0, 88000 <cmd_list+0x758>
   807a8:	91216000 	add	x0, x0, #0x858
   807ac:	b9400000 	ldr	w0, [x0]
   807b0:	b9403be1 	ldr	w1, [sp, #56]
   807b4:	6b00003f 	cmp	w1, w0
   807b8:	54fffeab 	b.lt	8078c <dtb_callback_show_tree+0xbc>  // b.tstop
   807bc:	d0000020 	adrp	x0, 86000 <el1t_irq_invalid+0x74>
   807c0:	9110e000 	add	x0, x0, #0x438
   807c4:	94001039 	bl	848a8 <uart_sendline>
   807c8:	14000016 	b	80820 <dtb_callback_show_tree+0x150>
   807cc:	b9402fe0 	ldr	w0, [sp, #44]
   807d0:	71000c1f 	cmp	w0, #0x3
   807d4:	54000261 	b.ne	80820 <dtb_callback_show_tree+0x150>  // b.any
   807d8:	b90037ff 	str	wzr, [sp, #52]
   807dc:	14000007 	b	807f8 <dtb_callback_show_tree+0x128>
   807e0:	d0000020 	adrp	x0, 86000 <el1t_irq_invalid+0x74>
   807e4:	9110a000 	add	x0, x0, #0x428
   807e8:	94001030 	bl	848a8 <uart_sendline>
   807ec:	b94037e0 	ldr	w0, [sp, #52]
   807f0:	11000400 	add	w0, w0, #0x1
   807f4:	b90037e0 	str	w0, [sp, #52]
   807f8:	90000040 	adrp	x0, 88000 <cmd_list+0x758>
   807fc:	91216000 	add	x0, x0, #0x858
   80800:	b9400000 	ldr	w0, [x0]
   80804:	b94037e1 	ldr	w1, [sp, #52]
   80808:	6b00003f 	cmp	w1, w0
   8080c:	54fffeab 	b.lt	807e0 <dtb_callback_show_tree+0x110>  // b.tstop
   80810:	f94013e1 	ldr	x1, [sp, #32]
   80814:	d0000020 	adrp	x0, 86000 <el1t_irq_invalid+0x74>
   80818:	91110000 	add	x0, x0, #0x440
   8081c:	94001023 	bl	848a8 <uart_sendline>
   80820:	d503201f 	nop
   80824:	a8c47bfd 	ldp	x29, x30, [sp], #64
   80828:	d65f03c0 	ret

000000000008082c <dtb_callback_initramfs>:
   8082c:	a9bd7bfd 	stp	x29, x30, [sp, #-48]!
   80830:	910003fd 	mov	x29, sp
   80834:	b9002fe0 	str	w0, [sp, #44]
   80838:	f90013e1 	str	x1, [sp, #32]
   8083c:	f9000fe2 	str	x2, [sp, #24]
   80840:	b9002be3 	str	w3, [sp, #40]
   80844:	b9402fe0 	ldr	w0, [sp, #44]
   80848:	71000c1f 	cmp	w0, #0x3
   8084c:	540001e1 	b.ne	80888 <dtb_callback_initramfs+0x5c>  // b.any
   80850:	d0000020 	adrp	x0, 86000 <el1t_irq_invalid+0x74>
   80854:	91112001 	add	x1, x0, #0x448
   80858:	f94013e0 	ldr	x0, [sp, #32]
   8085c:	940012be 	bl	85354 <strcmp>
   80860:	7100001f 	cmp	w0, #0x0
   80864:	54000121 	b.ne	80888 <dtb_callback_initramfs+0x5c>  // b.any
   80868:	f9400fe0 	ldr	x0, [sp, #24]
   8086c:	b9400000 	ldr	w0, [x0]
   80870:	97fffeb1 	bl	80334 <uint32_endian_big2little>
   80874:	2a0003e0 	mov	w0, w0
   80878:	aa0003e1 	mov	x1, x0
   8087c:	90000040 	adrp	x0, 88000 <cmd_list+0x758>
   80880:	f9441000 	ldr	x0, [x0, #2080]
   80884:	f9000001 	str	x1, [x0]
   80888:	b9402fe0 	ldr	w0, [sp, #44]
   8088c:	71000c1f 	cmp	w0, #0x3
   80890:	540001e1 	b.ne	808cc <dtb_callback_initramfs+0xa0>  // b.any
   80894:	d0000020 	adrp	x0, 86000 <el1t_irq_invalid+0x74>
   80898:	91118001 	add	x1, x0, #0x460
   8089c:	f94013e0 	ldr	x0, [sp, #32]
   808a0:	940012ad 	bl	85354 <strcmp>
   808a4:	7100001f 	cmp	w0, #0x0
   808a8:	54000121 	b.ne	808cc <dtb_callback_initramfs+0xa0>  // b.any
   808ac:	f9400fe0 	ldr	x0, [sp, #24]
   808b0:	b9400000 	ldr	w0, [x0]
   808b4:	97fffea0 	bl	80334 <uint32_endian_big2little>
   808b8:	2a0003e0 	mov	w0, w0
   808bc:	aa0003e1 	mov	x1, x0
   808c0:	90000040 	adrp	x0, 88000 <cmd_list+0x758>
   808c4:	f9440000 	ldr	x0, [x0, #2048]
   808c8:	f9000001 	str	x1, [x0]
   808cc:	d503201f 	nop
   808d0:	a8c37bfd 	ldp	x29, x30, [sp], #48
   808d4:	d65f03c0 	ret

00000000000808d8 <dtb_get_reserved_memory>:
   808d8:	a9bb7bfd 	stp	x29, x30, [sp, #-80]!
   808dc:	910003fd 	mov	x29, sp
   808e0:	a90153f3 	stp	x19, x20, [sp, #16]
   808e4:	90000040 	adrp	x0, 88000 <cmd_list+0x758>
   808e8:	91214000 	add	x0, x0, #0x850
   808ec:	f9400000 	ldr	x0, [x0]
   808f0:	f90023e0 	str	x0, [sp, #64]
   808f4:	f94023e0 	ldr	x0, [sp, #64]
   808f8:	b9400000 	ldr	w0, [x0]
   808fc:	97fffe8e 	bl	80334 <uint32_endian_big2little>
   80900:	2a0003e1 	mov	w1, w0
   80904:	529fdda0 	mov	w0, #0xfeed                	// #65261
   80908:	72ba01a0 	movk	w0, #0xd00d, lsl #16
   8090c:	6b00003f 	cmp	w1, w0
   80910:	540000a0 	b.eq	80924 <dtb_get_reserved_memory+0x4c>  // b.none
   80914:	d0000020 	adrp	x0, 86000 <el1t_irq_invalid+0x74>
   80918:	9111e000 	add	x0, x0, #0x478
   8091c:	94000fe3 	bl	848a8 <uart_sendline>
   80920:	14000033 	b	809ec <dtb_get_reserved_memory+0x114>
   80924:	f94023e0 	ldr	x0, [sp, #64]
   80928:	b9401000 	ldr	w0, [x0, #16]
   8092c:	97fffe82 	bl	80334 <uint32_endian_big2little>
   80930:	2a0003e0 	mov	w0, w0
   80934:	f94023e1 	ldr	x1, [sp, #64]
   80938:	8b000020 	add	x0, x1, x0
   8093c:	f9001fe0 	str	x0, [sp, #56]
   80940:	f9401fe0 	ldr	x0, [sp, #56]
   80944:	f90027e0 	str	x0, [sp, #72]
   80948:	14000012 	b	80990 <dtb_get_reserved_memory+0xb8>
   8094c:	f94027e0 	ldr	x0, [sp, #72]
   80950:	f9400000 	ldr	x0, [x0]
   80954:	97fffe90 	bl	80394 <uint64_endian_big2little>
   80958:	f9001be0 	str	x0, [sp, #48]
   8095c:	f94027e0 	ldr	x0, [sp, #72]
   80960:	f9400001 	ldr	x1, [x0]
   80964:	f94027e0 	ldr	x0, [sp, #72]
   80968:	f9400400 	ldr	x0, [x0, #8]
   8096c:	8b000020 	add	x0, x1, x0
   80970:	97fffe89 	bl	80394 <uint64_endian_big2little>
   80974:	f90017e0 	str	x0, [sp, #40]
   80978:	f94017e1 	ldr	x1, [sp, #40]
   8097c:	f9401be0 	ldr	x0, [sp, #48]
   80980:	94000548 	bl	81ea0 <memory_reserve>
   80984:	f94027e0 	ldr	x0, [sp, #72]
   80988:	91004000 	add	x0, x0, #0x10
   8098c:	f90027e0 	str	x0, [sp, #72]
   80990:	f94027e0 	ldr	x0, [sp, #72]
   80994:	f9400000 	ldr	x0, [x0]
   80998:	f100001f 	cmp	x0, #0x0
   8099c:	54fffd81 	b.ne	8094c <dtb_get_reserved_memory+0x74>  // b.any
   809a0:	f94027e0 	ldr	x0, [sp, #72]
   809a4:	f9400400 	ldr	x0, [x0, #8]
   809a8:	f100001f 	cmp	x0, #0x0
   809ac:	54fffd01 	b.ne	8094c <dtb_get_reserved_memory+0x74>  // b.any
   809b0:	90000040 	adrp	x0, 88000 <cmd_list+0x758>
   809b4:	91214000 	add	x0, x0, #0x850
   809b8:	f9400000 	ldr	x0, [x0]
   809bc:	aa0003f4 	mov	x20, x0
   809c0:	90000040 	adrp	x0, 88000 <cmd_list+0x758>
   809c4:	91214000 	add	x0, x0, #0x850
   809c8:	f9400013 	ldr	x19, [x0]
   809cc:	f94023e0 	ldr	x0, [sp, #64]
   809d0:	b9400400 	ldr	w0, [x0, #4]
   809d4:	97fffe58 	bl	80334 <uint32_endian_big2little>
   809d8:	2a0003e0 	mov	w0, w0
   809dc:	8b000260 	add	x0, x19, x0
   809e0:	aa0003e1 	mov	x1, x0
   809e4:	aa1403e0 	mov	x0, x20
   809e8:	9400052e 	bl	81ea0 <memory_reserve>
   809ec:	a94153f3 	ldp	x19, x20, [sp, #16]
   809f0:	a8c57bfd 	ldp	x29, x30, [sp], #80
   809f4:	d65f03c0 	ret

00000000000809f8 <lock>:
   809f8:	a9bf7bfd 	stp	x29, x30, [sp, #-16]!
   809fc:	910003fd 	mov	x29, sp
   80a00:	94000133 	bl	80ecc <el1_interrupt_disable>
   80a04:	90000040 	adrp	x0, 88000 <cmd_list+0x758>
   80a08:	9121a000 	add	x0, x0, #0x868
   80a0c:	f9400000 	ldr	x0, [x0]
   80a10:	91000401 	add	x1, x0, #0x1
   80a14:	90000040 	adrp	x0, 88000 <cmd_list+0x758>
   80a18:	9121a000 	add	x0, x0, #0x868
   80a1c:	f9000001 	str	x1, [x0]
   80a20:	d503201f 	nop
   80a24:	a8c17bfd 	ldp	x29, x30, [sp], #16
   80a28:	d65f03c0 	ret

0000000000080a2c <unlock>:
   80a2c:	a9bf7bfd 	stp	x29, x30, [sp, #-16]!
   80a30:	910003fd 	mov	x29, sp
   80a34:	90000040 	adrp	x0, 88000 <cmd_list+0x758>
   80a38:	9121a000 	add	x0, x0, #0x868
   80a3c:	f9400000 	ldr	x0, [x0]
   80a40:	d1000401 	sub	x1, x0, #0x1
   80a44:	90000040 	adrp	x0, 88000 <cmd_list+0x758>
   80a48:	9121a000 	add	x0, x0, #0x868
   80a4c:	f9000001 	str	x1, [x0]
   80a50:	90000040 	adrp	x0, 88000 <cmd_list+0x758>
   80a54:	9121a000 	add	x0, x0, #0x868
   80a58:	f9400000 	ldr	x0, [x0]
   80a5c:	f100001f 	cmp	x0, #0x0
   80a60:	54000041 	b.ne	80a68 <unlock+0x3c>  // b.any
   80a64:	94000117 	bl	80ec0 <el1_interrupt_enable>
   80a68:	d503201f 	nop
   80a6c:	a8c17bfd 	ldp	x29, x30, [sp], #16
   80a70:	d65f03c0 	ret

0000000000080a74 <el0_sync_router>:
   80a74:	a9bd7bfd 	stp	x29, x30, [sp, #-48]!
   80a78:	910003fd 	mov	x29, sp
   80a7c:	f9000fe0 	str	x0, [sp, #24]
   80a80:	94000110 	bl	80ec0 <el1_interrupt_enable>
   80a84:	f9400fe0 	ldr	x0, [sp, #24]
   80a88:	f9402000 	ldr	x0, [x0, #64]
   80a8c:	b9002fe0 	str	w0, [sp, #44]
   80a90:	b9402fe0 	ldr	w0, [sp, #44]
   80a94:	71018c1f 	cmp	w0, #0x63
   80a98:	54001060 	b.eq	80ca4 <el0_sync_router+0x230>  // b.none
   80a9c:	b9402fe0 	ldr	w0, [sp, #44]
   80aa0:	71018c1f 	cmp	w0, #0x63
   80aa4:	5400106c 	b.gt	80cb0 <el0_sync_router+0x23c>
   80aa8:	b9402fe0 	ldr	w0, [sp, #44]
   80aac:	7100241f 	cmp	w0, #0x9
   80ab0:	54000e80 	b.eq	80c80 <el0_sync_router+0x20c>  // b.none
   80ab4:	b9402fe0 	ldr	w0, [sp, #44]
   80ab8:	7100241f 	cmp	w0, #0x9
   80abc:	54000fac 	b.gt	80cb0 <el0_sync_router+0x23c>
   80ac0:	b9402fe0 	ldr	w0, [sp, #44]
   80ac4:	7100201f 	cmp	w0, #0x8
   80ac8:	54000ca0 	b.eq	80c5c <el0_sync_router+0x1e8>  // b.none
   80acc:	b9402fe0 	ldr	w0, [sp, #44]
   80ad0:	7100201f 	cmp	w0, #0x8
   80ad4:	54000eec 	b.gt	80cb0 <el0_sync_router+0x23c>
   80ad8:	b9402fe0 	ldr	w0, [sp, #44]
   80adc:	71001c1f 	cmp	w0, #0x7
   80ae0:	54000b20 	b.eq	80c44 <el0_sync_router+0x1d0>  // b.none
   80ae4:	b9402fe0 	ldr	w0, [sp, #44]
   80ae8:	71001c1f 	cmp	w0, #0x7
   80aec:	54000e2c 	b.gt	80cb0 <el0_sync_router+0x23c>
   80af0:	b9402fe0 	ldr	w0, [sp, #44]
   80af4:	7100181f 	cmp	w0, #0x6
   80af8:	54000940 	b.eq	80c20 <el0_sync_router+0x1ac>  // b.none
   80afc:	b9402fe0 	ldr	w0, [sp, #44]
   80b00:	7100181f 	cmp	w0, #0x6
   80b04:	54000d6c 	b.gt	80cb0 <el0_sync_router+0x23c>
   80b08:	b9402fe0 	ldr	w0, [sp, #44]
   80b0c:	7100141f 	cmp	w0, #0x5
   80b10:	540007c0 	b.eq	80c08 <el0_sync_router+0x194>  // b.none
   80b14:	b9402fe0 	ldr	w0, [sp, #44]
   80b18:	7100141f 	cmp	w0, #0x5
   80b1c:	54000cac 	b.gt	80cb0 <el0_sync_router+0x23c>
   80b20:	b9402fe0 	ldr	w0, [sp, #44]
   80b24:	7100101f 	cmp	w0, #0x4
   80b28:	540006a0 	b.eq	80bfc <el0_sync_router+0x188>  // b.none
   80b2c:	b9402fe0 	ldr	w0, [sp, #44]
   80b30:	7100101f 	cmp	w0, #0x4
   80b34:	54000bec 	b.gt	80cb0 <el0_sync_router+0x23c>
   80b38:	b9402fe0 	ldr	w0, [sp, #44]
   80b3c:	71000c1f 	cmp	w0, #0x3
   80b40:	540004c0 	b.eq	80bd8 <el0_sync_router+0x164>  // b.none
   80b44:	b9402fe0 	ldr	w0, [sp, #44]
   80b48:	71000c1f 	cmp	w0, #0x3
   80b4c:	54000b2c 	b.gt	80cb0 <el0_sync_router+0x23c>
   80b50:	b9402fe0 	ldr	w0, [sp, #44]
   80b54:	7100081f 	cmp	w0, #0x2
   80b58:	540002e0 	b.eq	80bb4 <el0_sync_router+0x140>  // b.none
   80b5c:	b9402fe0 	ldr	w0, [sp, #44]
   80b60:	7100081f 	cmp	w0, #0x2
   80b64:	54000a6c 	b.gt	80cb0 <el0_sync_router+0x23c>
   80b68:	b9402fe0 	ldr	w0, [sp, #44]
   80b6c:	7100001f 	cmp	w0, #0x0
   80b70:	540000a0 	b.eq	80b84 <el0_sync_router+0x110>  // b.none
   80b74:	b9402fe0 	ldr	w0, [sp, #44]
   80b78:	7100041f 	cmp	w0, #0x1
   80b7c:	540000a0 	b.eq	80b90 <el0_sync_router+0x11c>  // b.none
   80b80:	1400004c 	b	80cb0 <el0_sync_router+0x23c>
   80b84:	f9400fe0 	ldr	x0, [sp, #24]
   80b88:	94000a05 	bl	8339c <getpid>
   80b8c:	1400004d 	b	80cc0 <el0_sync_router+0x24c>
   80b90:	f9400fe0 	ldr	x0, [sp, #24]
   80b94:	f9400000 	ldr	x0, [x0]
   80b98:	aa0003e1 	mov	x1, x0
   80b9c:	f9400fe0 	ldr	x0, [sp, #24]
   80ba0:	f9400400 	ldr	x0, [x0, #8]
   80ba4:	aa0003e2 	mov	x2, x0
   80ba8:	f9400fe0 	ldr	x0, [sp, #24]
   80bac:	94000a08 	bl	833cc <uart_read>
   80bb0:	14000044 	b	80cc0 <el0_sync_router+0x24c>
   80bb4:	f9400fe0 	ldr	x0, [sp, #24]
   80bb8:	f9400000 	ldr	x0, [x0]
   80bbc:	aa0003e1 	mov	x1, x0
   80bc0:	f9400fe0 	ldr	x0, [sp, #24]
   80bc4:	f9400400 	ldr	x0, [x0, #8]
   80bc8:	aa0003e2 	mov	x2, x0
   80bcc:	f9400fe0 	ldr	x0, [sp, #24]
   80bd0:	94000a1b 	bl	8343c <uart_write>
   80bd4:	1400003b 	b	80cc0 <el0_sync_router+0x24c>
   80bd8:	f9400fe0 	ldr	x0, [sp, #24]
   80bdc:	f9400000 	ldr	x0, [x0]
   80be0:	aa0003e1 	mov	x1, x0
   80be4:	f9400fe0 	ldr	x0, [sp, #24]
   80be8:	f9400400 	ldr	x0, [x0, #8]
   80bec:	aa0003e2 	mov	x2, x0
   80bf0:	f9400fe0 	ldr	x0, [sp, #24]
   80bf4:	94000a2b 	bl	834a0 <exec>
   80bf8:	14000032 	b	80cc0 <el0_sync_router+0x24c>
   80bfc:	f9400fe0 	ldr	x0, [sp, #24]
   80c00:	94000a5e 	bl	83578 <fork>
   80c04:	1400002f 	b	80cc0 <el0_sync_router+0x24c>
   80c08:	f9400fe0 	ldr	x0, [sp, #24]
   80c0c:	f9400000 	ldr	x0, [x0]
   80c10:	2a0003e1 	mov	w1, w0
   80c14:	f9400fe0 	ldr	x0, [sp, #24]
   80c18:	94000ad6 	bl	83770 <exit>
   80c1c:	14000029 	b	80cc0 <el0_sync_router+0x24c>
   80c20:	f9400fe0 	ldr	x0, [sp, #24]
   80c24:	f9400000 	ldr	x0, [x0]
   80c28:	12001c01 	and	w1, w0, #0xff
   80c2c:	f9400fe0 	ldr	x0, [sp, #24]
   80c30:	f9400400 	ldr	x0, [x0, #8]
   80c34:	aa0003e2 	mov	x2, x0
   80c38:	f9400fe0 	ldr	x0, [sp, #24]
   80c3c:	94000ad5 	bl	83790 <mbox_call>
   80c40:	14000020 	b	80cc0 <el0_sync_router+0x24c>
   80c44:	f9400fe0 	ldr	x0, [sp, #24]
   80c48:	f9400000 	ldr	x0, [x0]
   80c4c:	2a0003e1 	mov	w1, w0
   80c50:	f9400fe0 	ldr	x0, [sp, #24]
   80c54:	94000b06 	bl	8386c <kill>
   80c58:	1400001a 	b	80cc0 <el0_sync_router+0x24c>
   80c5c:	f9400fe0 	ldr	x0, [sp, #24]
   80c60:	f9400000 	ldr	x0, [x0]
   80c64:	2a0003e2 	mov	w2, w0
   80c68:	f9400fe0 	ldr	x0, [sp, #24]
   80c6c:	f9400400 	ldr	x0, [x0, #8]
   80c70:	aa0003e1 	mov	x1, x0
   80c74:	2a0203e0 	mov	w0, w2
   80c78:	94000b28 	bl	83918 <signal_register>
   80c7c:	14000011 	b	80cc0 <el0_sync_router+0x24c>
   80c80:	f9400fe0 	ldr	x0, [sp, #24]
   80c84:	f9400000 	ldr	x0, [x0]
   80c88:	2a0003e2 	mov	w2, w0
   80c8c:	f9400fe0 	ldr	x0, [sp, #24]
   80c90:	f9400400 	ldr	x0, [x0, #8]
   80c94:	2a0003e1 	mov	w1, w0
   80c98:	2a0203e0 	mov	w0, w2
   80c9c:	94000b33 	bl	83968 <signal_kill>
   80ca0:	14000008 	b	80cc0 <el0_sync_router+0x24c>
   80ca4:	f9400fe0 	ldr	x0, [sp, #24]
   80ca8:	94000b5a 	bl	83a10 <signal_return>
   80cac:	14000005 	b	80cc0 <el0_sync_router+0x24c>
   80cb0:	d0000020 	adrp	x0, 86000 <el1t_irq_invalid+0x74>
   80cb4:	91122000 	add	x0, x0, #0x488
   80cb8:	94000efc 	bl	848a8 <uart_sendline>
   80cbc:	d503201f 	nop
   80cc0:	d503201f 	nop
   80cc4:	a8c37bfd 	ldp	x29, x30, [sp], #48
   80cc8:	d65f03c0 	ret

0000000000080ccc <el1h_irq_router>:
   80ccc:	a9be7bfd 	stp	x29, x30, [sp, #-32]!
   80cd0:	910003fd 	mov	x29, sp
   80cd4:	f9000fe0 	str	x0, [sp, #24]
   80cd8:	d2964080 	mov	x0, #0xb204                	// #45572
   80cdc:	f2a7e000 	movk	x0, #0x3f00, lsl #16
   80ce0:	b9400000 	ldr	w0, [x0]
   80ce4:	12030000 	and	w0, w0, #0x20000000
   80ce8:	7100001f 	cmp	w0, #0x0
   80cec:	540002c0 	b.eq	80d44 <el1h_irq_router+0x78>  // b.none
   80cf0:	d28a0900 	mov	x0, #0x5048                	// #20552
   80cf4:	f2a7e420 	movk	x0, #0x3f21, lsl #16
   80cf8:	b9400000 	ldr	w0, [x0]
   80cfc:	121f0400 	and	w0, w0, #0x6
   80d00:	7100081f 	cmp	w0, #0x2
   80d04:	54000080 	b.eq	80d14 <el1h_irq_router+0x48>  // b.none
   80d08:	7100101f 	cmp	w0, #0x4
   80d0c:	54000100 	b.eq	80d2c <el1h_irq_router+0x60>  // b.none
   80d10:	14000024 	b	80da0 <el1h_irq_router+0xd4>
   80d14:	94000fdc 	bl	84c84 <uart_tx_irq_disable>
   80d18:	52800021 	mov	w1, #0x1                   	// #1
   80d1c:	90000040 	adrp	x0, 88000 <cmd_list+0x758>
   80d20:	f943f000 	ldr	x0, [x0, #2016]
   80d24:	9400006d 	bl	80ed8 <add_irq_task>
   80d28:	1400001e 	b	80da0 <el1h_irq_router+0xd4>
   80d2c:	94000fc4 	bl	84c3c <uart_rx_irq_disable>
   80d30:	52800021 	mov	w1, #0x1                   	// #1
   80d34:	90000040 	adrp	x0, 88000 <cmd_list+0x758>
   80d38:	f943f400 	ldr	x0, [x0, #2024]
   80d3c:	94000067 	bl	80ed8 <add_irq_task>
   80d40:	14000018 	b	80da0 <el1h_irq_router+0xd4>
   80d44:	d2800c00 	mov	x0, #0x60                  	// #96
   80d48:	f2a80000 	movk	x0, #0x4000, lsl #16
   80d4c:	b9400000 	ldr	w0, [x0]
   80d50:	121f0000 	and	w0, w0, #0x2
   80d54:	7100001f 	cmp	w0, #0x0
   80d58:	54000240 	b.eq	80da0 <el1h_irq_router+0xd4>  // b.none
   80d5c:	94000d6f 	bl	84318 <timer_disable_interrupt>
   80d60:	52800001 	mov	w1, #0x0                   	// #0
   80d64:	90000040 	adrp	x0, 88000 <cmd_list+0x758>
   80d68:	f943ec00 	ldr	x0, [x0, #2008]
   80d6c:	9400005b 	bl	80ed8 <add_irq_task>
   80d70:	94000d66 	bl	84308 <timer_enable_interrupt>
   80d74:	90000040 	adrp	x0, 88000 <cmd_list+0x758>
   80d78:	f943dc00 	ldr	x0, [x0, #1976]
   80d7c:	f9400000 	ldr	x0, [x0]
   80d80:	f9403400 	ldr	x0, [x0, #104]
   80d84:	f9403401 	ldr	x1, [x0, #104]
   80d88:	90000040 	adrp	x0, 88000 <cmd_list+0x758>
   80d8c:	f943dc00 	ldr	x0, [x0, #1976]
   80d90:	f9400000 	ldr	x0, [x0]
   80d94:	eb00003f 	cmp	x1, x0
   80d98:	54000040 	b.eq	80da0 <el1h_irq_router+0xd4>  // b.none
   80d9c:	94000c65 	bl	83f30 <schedule>
   80da0:	f9400fe0 	ldr	x0, [sp, #24]
   80da4:	f9407c00 	ldr	x0, [x0, #248]
   80da8:	927e0400 	and	x0, x0, #0xc
   80dac:	f100001f 	cmp	x0, #0x0
   80db0:	54000061 	b.ne	80dbc <el1h_irq_router+0xf0>  // b.any
   80db4:	f9400fe0 	ldr	x0, [sp, #24]
   80db8:	94000910 	bl	831f8 <check_signal>
   80dbc:	d503201f 	nop
   80dc0:	a8c27bfd 	ldp	x29, x30, [sp], #32
   80dc4:	d65f03c0 	ret

0000000000080dc8 <invalid_exception_router>:
   80dc8:	a9bd7bfd 	stp	x29, x30, [sp, #-48]!
   80dcc:	910003fd 	mov	x29, sp
   80dd0:	b9001fe0 	str	w0, [sp, #28]
   80dd4:	b9401fe1 	ldr	w1, [sp, #28]
   80dd8:	d0000020 	adrp	x0, 86000 <el1t_irq_invalid+0x74>
   80ddc:	9112a000 	add	x0, x0, #0x4a8
   80de0:	94000eb2 	bl	848a8 <uart_sendline>
   80de4:	d5385200 	mrs	x0, esr_el1
   80de8:	f90017e0 	str	x0, [sp, #40]
   80dec:	d5384020 	mrs	x0, elr_el1
   80df0:	f90013e0 	str	x0, [sp, #32]
   80df4:	f94013e2 	ldr	x2, [sp, #32]
   80df8:	f94017e1 	ldr	x1, [sp, #40]
   80dfc:	d0000020 	adrp	x0, 86000 <el1t_irq_invalid+0x74>
   80e00:	91130000 	add	x0, x0, #0x4c0
   80e04:	94000ea9 	bl	848a8 <uart_sendline>
   80e08:	14000000 	b	80e08 <invalid_exception_router+0x40>

0000000000080e0c <irqtask_list_init>:
   80e0c:	a9bf7bfd 	stp	x29, x30, [sp, #-16]!
   80e10:	910003fd 	mov	x29, sp
   80e14:	52800400 	mov	w0, #0x20                  	// #32
   80e18:	940000f6 	bl	811f0 <simple_malloc>
   80e1c:	aa0003e1 	mov	x1, x0
   80e20:	90000040 	adrp	x0, 88000 <cmd_list+0x758>
   80e24:	91218000 	add	x0, x0, #0x860
   80e28:	f9000001 	str	x1, [x0]
   80e2c:	90000040 	adrp	x0, 88000 <cmd_list+0x758>
   80e30:	91218000 	add	x0, x0, #0x860
   80e34:	f9400000 	ldr	x0, [x0]
   80e38:	90000041 	adrp	x1, 88000 <cmd_list+0x758>
   80e3c:	91218021 	add	x1, x1, #0x860
   80e40:	f9400021 	ldr	x1, [x1]
   80e44:	f9000401 	str	x1, [x0, #8]
   80e48:	90000040 	adrp	x0, 88000 <cmd_list+0x758>
   80e4c:	91218000 	add	x0, x0, #0x860
   80e50:	f9400000 	ldr	x0, [x0]
   80e54:	90000041 	adrp	x1, 88000 <cmd_list+0x758>
   80e58:	91218021 	add	x1, x1, #0x860
   80e5c:	f9400021 	ldr	x1, [x1]
   80e60:	f9000001 	str	x1, [x0]
   80e64:	d503201f 	nop
   80e68:	a8c17bfd 	ldp	x29, x30, [sp], #16
   80e6c:	d65f03c0 	ret

0000000000080e70 <irq_list_insert_front>:
   80e70:	d10043ff 	sub	sp, sp, #0x10
   80e74:	f90007e0 	str	x0, [sp, #8]
   80e78:	f90003e1 	str	x1, [sp]
   80e7c:	f94003e0 	ldr	x0, [sp]
   80e80:	f9400001 	ldr	x1, [x0]
   80e84:	f94007e0 	ldr	x0, [sp, #8]
   80e88:	f9000001 	str	x1, [x0]
   80e8c:	f94007e0 	ldr	x0, [sp, #8]
   80e90:	f94003e1 	ldr	x1, [sp]
   80e94:	f9000401 	str	x1, [x0, #8]
   80e98:	f94003e0 	ldr	x0, [sp]
   80e9c:	f9400000 	ldr	x0, [x0]
   80ea0:	f94007e1 	ldr	x1, [sp, #8]
   80ea4:	f9000401 	str	x1, [x0, #8]
   80ea8:	f94003e0 	ldr	x0, [sp]
   80eac:	f94007e1 	ldr	x1, [sp, #8]
   80eb0:	f9000001 	str	x1, [x0]
   80eb4:	d503201f 	nop
   80eb8:	910043ff 	add	sp, sp, #0x10
   80ebc:	d65f03c0 	ret

0000000000080ec0 <el1_interrupt_enable>:
   80ec0:	d5034fff 	msr	daifclr, #0xf
   80ec4:	d503201f 	nop
   80ec8:	d65f03c0 	ret

0000000000080ecc <el1_interrupt_disable>:
   80ecc:	d5034fdf 	msr	daifset, #0xf
   80ed0:	d503201f 	nop
   80ed4:	d65f03c0 	ret

0000000000080ed8 <add_irq_task>:
   80ed8:	a9bc7bfd 	stp	x29, x30, [sp, #-64]!
   80edc:	910003fd 	mov	x29, sp
   80ee0:	f9000fe0 	str	x0, [sp, #24]
   80ee4:	b90017e1 	str	w1, [sp, #20]
   80ee8:	52800400 	mov	w0, #0x20                  	// #32
   80eec:	940000c1 	bl	811f0 <simple_malloc>
   80ef0:	f9001be0 	str	x0, [sp, #48]
   80ef4:	b94017e1 	ldr	w1, [sp, #20]
   80ef8:	f9401be0 	ldr	x0, [sp, #48]
   80efc:	f9000801 	str	x1, [x0, #16]
   80f00:	f9401be0 	ldr	x0, [sp, #48]
   80f04:	f9400fe1 	ldr	x1, [sp, #24]
   80f08:	f9000c01 	str	x1, [x0, #24]
   80f0c:	97fffff0 	bl	80ecc <el1_interrupt_disable>
   80f10:	90000040 	adrp	x0, 88000 <cmd_list+0x758>
   80f14:	91218000 	add	x0, x0, #0x860
   80f18:	f9400000 	ldr	x0, [x0]
   80f1c:	f9400400 	ldr	x0, [x0, #8]
   80f20:	f9001fe0 	str	x0, [sp, #56]
   80f24:	1400000e 	b	80f5c <add_irq_task+0x84>
   80f28:	f9401be0 	ldr	x0, [sp, #48]
   80f2c:	f9400801 	ldr	x1, [x0, #16]
   80f30:	f9401fe0 	ldr	x0, [sp, #56]
   80f34:	f9400800 	ldr	x0, [x0, #16]
   80f38:	eb00003f 	cmp	x1, x0
   80f3c:	540000a2 	b.cs	80f50 <add_irq_task+0x78>  // b.hs, b.nlast
   80f40:	f9401fe1 	ldr	x1, [sp, #56]
   80f44:	f9401be0 	ldr	x0, [sp, #48]
   80f48:	97ffffca 	bl	80e70 <irq_list_insert_front>
   80f4c:	1400000a 	b	80f74 <add_irq_task+0x9c>
   80f50:	f9401fe0 	ldr	x0, [sp, #56]
   80f54:	f9400400 	ldr	x0, [x0, #8]
   80f58:	f9001fe0 	str	x0, [sp, #56]
   80f5c:	90000040 	adrp	x0, 88000 <cmd_list+0x758>
   80f60:	91218000 	add	x0, x0, #0x860
   80f64:	f9400000 	ldr	x0, [x0]
   80f68:	f9401fe1 	ldr	x1, [sp, #56]
   80f6c:	eb00003f 	cmp	x1, x0
   80f70:	54fffdc1 	b.ne	80f28 <add_irq_task+0x50>  // b.any
   80f74:	90000040 	adrp	x0, 88000 <cmd_list+0x758>
   80f78:	91218000 	add	x0, x0, #0x860
   80f7c:	f9400000 	ldr	x0, [x0]
   80f80:	f9401fe1 	ldr	x1, [sp, #56]
   80f84:	eb00003f 	cmp	x1, x0
   80f88:	54000081 	b.ne	80f98 <add_irq_task+0xc0>  // b.any
   80f8c:	f9401fe1 	ldr	x1, [sp, #56]
   80f90:	f9401be0 	ldr	x0, [sp, #48]
   80f94:	97ffffb7 	bl	80e70 <irq_list_insert_front>
   80f98:	97ffffca 	bl	80ec0 <el1_interrupt_enable>
   80f9c:	1400001e 	b	81014 <add_irq_task+0x13c>
   80fa0:	97ffffcb 	bl	80ecc <el1_interrupt_disable>
   80fa4:	90000040 	adrp	x0, 88000 <cmd_list+0x758>
   80fa8:	91218000 	add	x0, x0, #0x860
   80fac:	f9400000 	ldr	x0, [x0]
   80fb0:	f9400400 	ldr	x0, [x0, #8]
   80fb4:	f9400c00 	ldr	x0, [x0, #24]
   80fb8:	f90017e0 	str	x0, [sp, #40]
   80fbc:	90000040 	adrp	x0, 88000 <cmd_list+0x758>
   80fc0:	91218000 	add	x0, x0, #0x860
   80fc4:	f9400000 	ldr	x0, [x0]
   80fc8:	f9400400 	ldr	x0, [x0, #8]
   80fcc:	f90013e0 	str	x0, [sp, #32]
   80fd0:	90000040 	adrp	x0, 88000 <cmd_list+0x758>
   80fd4:	91218000 	add	x0, x0, #0x860
   80fd8:	f9400000 	ldr	x0, [x0]
   80fdc:	f94013e1 	ldr	x1, [sp, #32]
   80fe0:	f9400421 	ldr	x1, [x1, #8]
   80fe4:	f9000401 	str	x1, [x0, #8]
   80fe8:	f94013e0 	ldr	x0, [sp, #32]
   80fec:	f9400400 	ldr	x0, [x0, #8]
   80ff0:	90000041 	adrp	x1, 88000 <cmd_list+0x758>
   80ff4:	91218021 	add	x1, x1, #0x860
   80ff8:	f9400021 	ldr	x1, [x1]
   80ffc:	f9000001 	str	x1, [x0]
   81000:	f94013e0 	ldr	x0, [sp, #32]
   81004:	94000095 	bl	81258 <free>
   81008:	97ffffae 	bl	80ec0 <el1_interrupt_enable>
   8100c:	f94017e0 	ldr	x0, [sp, #40]
   81010:	d63f0000 	blr	x0
   81014:	f0000020 	adrp	x0, 88000 <cmd_list+0x758>
   81018:	91218000 	add	x0, x0, #0x860
   8101c:	f9400000 	ldr	x0, [x0]
   81020:	f9400401 	ldr	x1, [x0, #8]
   81024:	f0000020 	adrp	x0, 88000 <cmd_list+0x758>
   81028:	91218000 	add	x0, x0, #0x860
   8102c:	f9400000 	ldr	x0, [x0]
   81030:	eb00003f 	cmp	x1, x0
   81034:	54fffb61 	b.ne	80fa0 <add_irq_task+0xc8>  // b.any
   81038:	d503201f 	nop
   8103c:	d503201f 	nop
   81040:	a8c47bfd 	ldp	x29, x30, [sp], #64
   81044:	d65f03c0 	ret

0000000000081048 <getCurrentEL>:
   81048:	a9be7bfd 	stp	x29, x30, [sp, #-32]!
   8104c:	910003fd 	mov	x29, sp
   81050:	d5384240 	mrs	x0, currentel
   81054:	f9000fe0 	str	x0, [sp, #24]
   81058:	b0000020 	adrp	x0, 86000 <el1t_irq_invalid+0x74>
   8105c:	91138000 	add	x0, x0, #0x4e0
   81060:	94000e12 	bl	848a8 <uart_sendline>
   81064:	f9400fe0 	ldr	x0, [sp, #24]
   81068:	d342fc00 	lsr	x0, x0, #2
   8106c:	12000400 	and	w0, w0, #0x3
   81070:	94000ded 	bl	84824 <uart_2hex>
   81074:	b0000020 	adrp	x0, 86000 <el1t_irq_invalid+0x74>
   81078:	9113c000 	add	x0, x0, #0x4f0
   8107c:	94000e0b 	bl	848a8 <uart_sendline>
   81080:	f9400fe0 	ldr	x0, [sp, #24]
   81084:	d342fc00 	lsr	x0, x0, #2
   81088:	12000400 	and	w0, w0, #0x3
   8108c:	a8c27bfd 	ldp	x29, x30, [sp], #32
   81090:	d65f03c0 	ret

0000000000081094 <main>:
   81094:	a9be7bfd 	stp	x29, x30, [sp, #-32]!
   81098:	910003fd 	mov	x29, sp
   8109c:	f9000fe0 	str	x0, [sp, #24]
   810a0:	97ffffea 	bl	81048 <getCurrentEL>
   810a4:	f0000020 	adrp	x0, 88000 <cmd_list+0x758>
   810a8:	f9440400 	ldr	x0, [x0, #2056]
   810ac:	f9400fe1 	ldr	x1, [sp, #24]
   810b0:	f9000001 	str	x1, [x0]
   810b4:	f0000020 	adrp	x0, 88000 <cmd_list+0x758>
   810b8:	f9440400 	ldr	x0, [x0, #2056]
   810bc:	f9400002 	ldr	x2, [x0]
   810c0:	f0000020 	adrp	x0, 88000 <cmd_list+0x758>
   810c4:	f9440c01 	ldr	x1, [x0, #2072]
   810c8:	aa0203e0 	mov	x0, x2
   810cc:	97fffce5 	bl	80460 <traverse_device_tree>
   810d0:	94000c7b 	bl	842bc <timer_init_interrupt>
   810d4:	94000c4d 	bl	84208 <timer_list_init>
   810d8:	97ffff4d 	bl	80e0c <irqtask_list_init>
   810dc:	94000d45 	bl	845f0 <uart_init>
   810e0:	f9400fe1 	ldr	x1, [sp, #24]
   810e4:	b0000020 	adrp	x0, 86000 <el1t_irq_invalid+0x74>
   810e8:	9113e000 	add	x0, x0, #0x4f8
   810ec:	94000def 	bl	848a8 <uart_sendline>
   810f0:	9400057e 	bl	826e8 <cli_print_banner>
   810f4:	94000073 	bl	812c0 <allocator_init>
   810f8:	94000ab3 	bl	83bc4 <init_thread>
   810fc:	52801001 	mov	w1, #0x80                  	// #128
   81100:	f0000020 	adrp	x0, 88000 <cmd_list+0x758>
   81104:	9121c000 	add	x0, x0, #0x870
   81108:	94000452 	bl	82250 <cli_cmd_clear>
   8110c:	b0000020 	adrp	x0, 86000 <el1t_irq_invalid+0x74>
   81110:	91144000 	add	x0, x0, #0x510
   81114:	94000de5 	bl	848a8 <uart_sendline>
   81118:	f0000020 	adrp	x0, 88000 <cmd_list+0x758>
   8111c:	9121c000 	add	x0, x0, #0x870
   81120:	94000460 	bl	822a0 <cli_cmd_read>
   81124:	f0000020 	adrp	x0, 88000 <cmd_list+0x758>
   81128:	9121c000 	add	x0, x0, #0x870
   8112c:	94000493 	bl	82378 <cli_cmd_exec>
   81130:	17fffff3 	b	810fc <main+0x68>

0000000000081134 <k_mbox_call>:
   81134:	a9be7bfd 	stp	x29, x30, [sp, #-32]!
   81138:	910003fd 	mov	x29, sp
   8113c:	b9001fe0 	str	w0, [sp, #28]
   81140:	b9001be1 	str	w1, [sp, #24]
   81144:	b9401be0 	ldr	w0, [sp, #24]
   81148:	121c6c00 	and	w0, w0, #0xfffffff0
   8114c:	b9001be0 	str	w0, [sp, #24]
   81150:	b9401be1 	ldr	w1, [sp, #24]
   81154:	b9401fe0 	ldr	w0, [sp, #28]
   81158:	2a000020 	orr	w0, w1, w0
   8115c:	b9001be0 	str	w0, [sp, #24]
   81160:	d503201f 	nop
   81164:	d2971300 	mov	x0, #0xb898                	// #47256
   81168:	f2a7e000 	movk	x0, #0x3f00, lsl #16
   8116c:	b9400000 	ldr	w0, [x0]
   81170:	7100001f 	cmp	w0, #0x0
   81174:	54ffff8b 	b.lt	81164 <k_mbox_call+0x30>  // b.tstop
   81178:	d2971400 	mov	x0, #0xb8a0                	// #47264
   8117c:	f2a7e000 	movk	x0, #0x3f00, lsl #16
   81180:	b9401be1 	ldr	w1, [sp, #24]
   81184:	b9000001 	str	w1, [x0]
   81188:	d503201f 	nop
   8118c:	d2971300 	mov	x0, #0xb898                	// #47256
   81190:	f2a7e000 	movk	x0, #0x3f00, lsl #16
   81194:	b9400000 	ldr	w0, [x0]
   81198:	12020000 	and	w0, w0, #0x40000000
   8119c:	7100001f 	cmp	w0, #0x0
   811a0:	54ffff61 	b.ne	8118c <k_mbox_call+0x58>  // b.any
   811a4:	d2971000 	mov	x0, #0xb880                	// #47232
   811a8:	f2a7e000 	movk	x0, #0x3f00, lsl #16
   811ac:	b9400000 	ldr	w0, [x0]
   811b0:	b9401be1 	ldr	w1, [sp, #24]
   811b4:	6b00003f 	cmp	w1, w0
   811b8:	54fffe81 	b.ne	81188 <k_mbox_call+0x54>  // b.any
   811bc:	b9401be1 	ldr	w1, [sp, #24]
   811c0:	b0000020 	adrp	x0, 86000 <el1t_irq_invalid+0x74>
   811c4:	91146000 	add	x0, x0, #0x518
   811c8:	94000db8 	bl	848a8 <uart_sendline>
   811cc:	f0000020 	adrp	x0, 88000 <cmd_list+0x758>
   811d0:	9123c000 	add	x0, x0, #0x8f0
   811d4:	b9400401 	ldr	w1, [x0, #4]
   811d8:	52b00000 	mov	w0, #0x80000000            	// #-2147483648
   811dc:	6b00003f 	cmp	w1, w0
   811e0:	1a9f17e0 	cset	w0, eq  // eq = none
   811e4:	12001c00 	and	w0, w0, #0xff
   811e8:	a8c27bfd 	ldp	x29, x30, [sp], #32
   811ec:	d65f03c0 	ret

00000000000811f0 <simple_malloc>:
   811f0:	d10083ff 	sub	sp, sp, #0x20
   811f4:	b9000fe0 	str	w0, [sp, #12]
   811f8:	f0000020 	adrp	x0, 88000 <cmd_list+0x758>
   811fc:	91212000 	add	x0, x0, #0x848
   81200:	f9400000 	ldr	x0, [x0]
   81204:	91004000 	add	x0, x0, #0x10
   81208:	f9000fe0 	str	x0, [sp, #24]
   8120c:	b9400fe0 	ldr	w0, [sp, #12]
   81210:	121c6c00 	and	w0, w0, #0xfffffff0
   81214:	11004000 	add	w0, w0, #0x10
   81218:	b9000fe0 	str	w0, [sp, #12]
   8121c:	f9400fe0 	ldr	x0, [sp, #24]
   81220:	d1002000 	sub	x0, x0, #0x8
   81224:	b9400fe1 	ldr	w1, [sp, #12]
   81228:	b9000001 	str	w1, [x0]
   8122c:	f0000020 	adrp	x0, 88000 <cmd_list+0x758>
   81230:	91212000 	add	x0, x0, #0x848
   81234:	f9400001 	ldr	x1, [x0]
   81238:	b9400fe0 	ldr	w0, [sp, #12]
   8123c:	8b000021 	add	x1, x1, x0
   81240:	f0000020 	adrp	x0, 88000 <cmd_list+0x758>
   81244:	91212000 	add	x0, x0, #0x848
   81248:	f9000001 	str	x1, [x0]
   8124c:	f9400fe0 	ldr	x0, [sp, #24]
   81250:	910083ff 	add	sp, sp, #0x20
   81254:	d65f03c0 	ret

0000000000081258 <free>:
   81258:	d10043ff 	sub	sp, sp, #0x10
   8125c:	f90007e0 	str	x0, [sp, #8]
   81260:	d503201f 	nop
   81264:	910043ff 	add	sp, sp, #0x10
   81268:	d65f03c0 	ret

000000000008126c <insert_frame_node>:
   8126c:	d10043ff 	sub	sp, sp, #0x10
   81270:	f90007e0 	str	x0, [sp, #8]
   81274:	f90003e1 	str	x1, [sp]
   81278:	f94003e0 	ldr	x0, [sp]
   8127c:	f9400001 	ldr	x1, [x0]
   81280:	f94007e0 	ldr	x0, [sp, #8]
   81284:	f9000001 	str	x1, [x0]
   81288:	f94007e0 	ldr	x0, [sp, #8]
   8128c:	f94003e1 	ldr	x1, [sp]
   81290:	f9000401 	str	x1, [x0, #8]
   81294:	f94007e0 	ldr	x0, [sp, #8]
   81298:	f9400400 	ldr	x0, [x0, #8]
   8129c:	f94007e1 	ldr	x1, [sp, #8]
   812a0:	f9000001 	str	x1, [x0]
   812a4:	f94007e0 	ldr	x0, [sp, #8]
   812a8:	f9400000 	ldr	x0, [x0]
   812ac:	f94007e1 	ldr	x1, [sp, #8]
   812b0:	f9000401 	str	x1, [x0, #8]
   812b4:	d503201f 	nop
   812b8:	910043ff 	add	sp, sp, #0x10
   812bc:	d65f03c0 	ret

00000000000812c0 <allocator_init>:
   812c0:	a9be7bfd 	stp	x29, x30, [sp, #-32]!
   812c4:	910003fd 	mov	x29, sp
   812c8:	52a00f00 	mov	w0, #0x780000              	// #7864320
   812cc:	97ffffc9 	bl	811f0 <simple_malloc>
   812d0:	aa0003e1 	mov	x1, x0
   812d4:	f0000020 	adrp	x0, 88000 <cmd_list+0x758>
   812d8:	9127c000 	add	x0, x0, #0x9f0
   812dc:	f9000001 	str	x1, [x0]
   812e0:	b9001fff 	str	wzr, [sp, #28]
   812e4:	1400003d 	b	813d8 <allocator_init+0x118>
   812e8:	f0000020 	adrp	x0, 88000 <cmd_list+0x758>
   812ec:	9127c000 	add	x0, x0, #0x9f0
   812f0:	f9400002 	ldr	x2, [x0]
   812f4:	b9801fe0 	ldrsw	x0, [sp, #28]
   812f8:	d37be801 	lsl	x1, x0, #5
   812fc:	f0000020 	adrp	x0, 88000 <cmd_list+0x758>
   81300:	9127c000 	add	x0, x0, #0x9f0
   81304:	f9400003 	ldr	x3, [x0]
   81308:	b9801fe0 	ldrsw	x0, [sp, #28]
   8130c:	d37be800 	lsl	x0, x0, #5
   81310:	8b000060 	add	x0, x3, x0
   81314:	8b010041 	add	x1, x2, x1
   81318:	f9000001 	str	x1, [x0]
   8131c:	f0000020 	adrp	x0, 88000 <cmd_list+0x758>
   81320:	9127c000 	add	x0, x0, #0x9f0
   81324:	f9400002 	ldr	x2, [x0]
   81328:	b9801fe0 	ldrsw	x0, [sp, #28]
   8132c:	d37be801 	lsl	x1, x0, #5
   81330:	f0000020 	adrp	x0, 88000 <cmd_list+0x758>
   81334:	9127c000 	add	x0, x0, #0x9f0
   81338:	f9400003 	ldr	x3, [x0]
   8133c:	b9801fe0 	ldrsw	x0, [sp, #28]
   81340:	d37be800 	lsl	x0, x0, #5
   81344:	8b000060 	add	x0, x3, x0
   81348:	8b010041 	add	x1, x2, x1
   8134c:	f9000401 	str	x1, [x0, #8]
   81350:	f0000020 	adrp	x0, 88000 <cmd_list+0x758>
   81354:	9127c000 	add	x0, x0, #0x9f0
   81358:	f9400001 	ldr	x1, [x0]
   8135c:	b9801fe0 	ldrsw	x0, [sp, #28]
   81360:	d37be800 	lsl	x0, x0, #5
   81364:	8b000020 	add	x0, x1, x0
   81368:	b900181f 	str	wzr, [x0, #24]
   8136c:	f0000020 	adrp	x0, 88000 <cmd_list+0x758>
   81370:	9127c000 	add	x0, x0, #0x9f0
   81374:	f9400001 	ldr	x1, [x0]
   81378:	b9801fe0 	ldrsw	x0, [sp, #28]
   8137c:	d37be800 	lsl	x0, x0, #5
   81380:	8b000020 	add	x0, x1, x0
   81384:	b9401fe1 	ldr	w1, [sp, #28]
   81388:	b9001001 	str	w1, [x0, #16]
   8138c:	f0000020 	adrp	x0, 88000 <cmd_list+0x758>
   81390:	9127c000 	add	x0, x0, #0x9f0
   81394:	f9400001 	ldr	x1, [x0]
   81398:	b9801fe0 	ldrsw	x0, [sp, #28]
   8139c:	d37be800 	lsl	x0, x0, #5
   813a0:	8b000020 	add	x0, x1, x0
   813a4:	12800001 	mov	w1, #0xffffffff            	// #-1
   813a8:	b9001401 	str	w1, [x0, #20]
   813ac:	f0000020 	adrp	x0, 88000 <cmd_list+0x758>
   813b0:	9127c000 	add	x0, x0, #0x9f0
   813b4:	f9400001 	ldr	x1, [x0]
   813b8:	b9801fe0 	ldrsw	x0, [sp, #28]
   813bc:	d37be800 	lsl	x0, x0, #5
   813c0:	8b000020 	add	x0, x1, x0
   813c4:	12800001 	mov	w1, #0xffffffff            	// #-1
   813c8:	b9001c01 	str	w1, [x0, #28]
   813cc:	b9401fe0 	ldr	w0, [sp, #28]
   813d0:	11000400 	add	w0, w0, #0x1
   813d4:	b9001fe0 	str	w0, [sp, #28]
   813d8:	b9401fe0 	ldr	w0, [sp, #28]
   813dc:	7140f01f 	cmp	w0, #0x3c, lsl #12
   813e0:	54fff84b 	b.lt	812e8 <allocator_init+0x28>  // b.tstop
   813e4:	52802c00 	mov	w0, #0x160                 	// #352
   813e8:	97ffff82 	bl	811f0 <simple_malloc>
   813ec:	aa0003e1 	mov	x1, x0
   813f0:	f0000020 	adrp	x0, 88000 <cmd_list+0x758>
   813f4:	9127e000 	add	x0, x0, #0x9f8
   813f8:	f9000001 	str	x1, [x0]
   813fc:	b9001bff 	str	wzr, [sp, #24]
   81400:	14000026 	b	81498 <allocator_init+0x1d8>
   81404:	f0000020 	adrp	x0, 88000 <cmd_list+0x758>
   81408:	9127e000 	add	x0, x0, #0x9f8
   8140c:	f9400001 	ldr	x1, [x0]
   81410:	b9801be0 	ldrsw	x0, [sp, #24]
   81414:	d37be800 	lsl	x0, x0, #5
   81418:	8b000020 	add	x0, x1, x0
   8141c:	12800001 	mov	w1, #0xffffffff            	// #-1
   81420:	b9001001 	str	w1, [x0, #16]
   81424:	f0000020 	adrp	x0, 88000 <cmd_list+0x758>
   81428:	9127e000 	add	x0, x0, #0x9f8
   8142c:	f9400002 	ldr	x2, [x0]
   81430:	b9801be0 	ldrsw	x0, [sp, #24]
   81434:	d37be801 	lsl	x1, x0, #5
   81438:	f0000020 	adrp	x0, 88000 <cmd_list+0x758>
   8143c:	9127e000 	add	x0, x0, #0x9f8
   81440:	f9400003 	ldr	x3, [x0]
   81444:	b9801be0 	ldrsw	x0, [sp, #24]
   81448:	d37be800 	lsl	x0, x0, #5
   8144c:	8b000060 	add	x0, x3, x0
   81450:	8b010041 	add	x1, x2, x1
   81454:	f9000001 	str	x1, [x0]
   81458:	f0000020 	adrp	x0, 88000 <cmd_list+0x758>
   8145c:	9127e000 	add	x0, x0, #0x9f8
   81460:	f9400002 	ldr	x2, [x0]
   81464:	b9801be0 	ldrsw	x0, [sp, #24]
   81468:	d37be801 	lsl	x1, x0, #5
   8146c:	f0000020 	adrp	x0, 88000 <cmd_list+0x758>
   81470:	9127e000 	add	x0, x0, #0x9f8
   81474:	f9400003 	ldr	x3, [x0]
   81478:	b9801be0 	ldrsw	x0, [sp, #24]
   8147c:	d37be800 	lsl	x0, x0, #5
   81480:	8b000060 	add	x0, x3, x0
   81484:	8b010041 	add	x1, x2, x1
   81488:	f9000401 	str	x1, [x0, #8]
   8148c:	b9401be0 	ldr	w0, [sp, #24]
   81490:	11000400 	add	w0, w0, #0x1
   81494:	b9001be0 	str	w0, [sp, #24]
   81498:	b9401be0 	ldr	w0, [sp, #24]
   8149c:	7100281f 	cmp	w0, #0xa
   814a0:	54fffb2d 	b.le	81404 <allocator_init+0x144>
   814a4:	b90017ff 	str	wzr, [sp, #20]
   814a8:	14000019 	b	8150c <allocator_init+0x24c>
   814ac:	f0000020 	adrp	x0, 88000 <cmd_list+0x758>
   814b0:	9127c000 	add	x0, x0, #0x9f0
   814b4:	f9400001 	ldr	x1, [x0]
   814b8:	b98017e0 	ldrsw	x0, [sp, #20]
   814bc:	d37be800 	lsl	x0, x0, #5
   814c0:	8b000020 	add	x0, x1, x0
   814c4:	52800141 	mov	w1, #0xa                   	// #10
   814c8:	b9001801 	str	w1, [x0, #24]
   814cc:	f0000020 	adrp	x0, 88000 <cmd_list+0x758>
   814d0:	9127c000 	add	x0, x0, #0x9f0
   814d4:	f9400001 	ldr	x1, [x0]
   814d8:	b98017e0 	ldrsw	x0, [sp, #20]
   814dc:	d37be800 	lsl	x0, x0, #5
   814e0:	8b000022 	add	x2, x1, x0
   814e4:	f0000020 	adrp	x0, 88000 <cmd_list+0x758>
   814e8:	9127e000 	add	x0, x0, #0x9f8
   814ec:	f9400000 	ldr	x0, [x0]
   814f0:	91050000 	add	x0, x0, #0x140
   814f4:	aa0003e1 	mov	x1, x0
   814f8:	aa0203e0 	mov	x0, x2
   814fc:	97ffff5c 	bl	8126c <insert_frame_node>
   81500:	b94017e0 	ldr	w0, [sp, #20]
   81504:	11100000 	add	w0, w0, #0x400
   81508:	b90017e0 	str	w0, [sp, #20]
   8150c:	b94017e0 	ldr	w0, [sp, #20]
   81510:	7140f01f 	cmp	w0, #0x3c, lsl #12
   81514:	54fffccb 	b.lt	814ac <allocator_init+0x1ec>  // b.tstop
   81518:	52801000 	mov	w0, #0x80                  	// #128
   8151c:	97ffff35 	bl	811f0 <simple_malloc>
   81520:	aa0003e1 	mov	x1, x0
   81524:	f0000020 	adrp	x0, 88000 <cmd_list+0x758>
   81528:	91280000 	add	x0, x0, #0xa00
   8152c:	f9000001 	str	x1, [x0]
   81530:	b90013ff 	str	wzr, [sp, #16]
   81534:	1400001e 	b	815ac <allocator_init+0x2ec>
   81538:	f0000020 	adrp	x0, 88000 <cmd_list+0x758>
   8153c:	91280000 	add	x0, x0, #0xa00
   81540:	f9400002 	ldr	x2, [x0]
   81544:	b98013e0 	ldrsw	x0, [sp, #16]
   81548:	d37cec01 	lsl	x1, x0, #4
   8154c:	f0000020 	adrp	x0, 88000 <cmd_list+0x758>
   81550:	91280000 	add	x0, x0, #0xa00
   81554:	f9400003 	ldr	x3, [x0]
   81558:	b98013e0 	ldrsw	x0, [sp, #16]
   8155c:	d37cec00 	lsl	x0, x0, #4
   81560:	8b000060 	add	x0, x3, x0
   81564:	8b010041 	add	x1, x2, x1
   81568:	f9000001 	str	x1, [x0]
   8156c:	f0000020 	adrp	x0, 88000 <cmd_list+0x758>
   81570:	91280000 	add	x0, x0, #0xa00
   81574:	f9400002 	ldr	x2, [x0]
   81578:	b98013e0 	ldrsw	x0, [sp, #16]
   8157c:	d37cec01 	lsl	x1, x0, #4
   81580:	f0000020 	adrp	x0, 88000 <cmd_list+0x758>
   81584:	91280000 	add	x0, x0, #0xa00
   81588:	f9400003 	ldr	x3, [x0]
   8158c:	b98013e0 	ldrsw	x0, [sp, #16]
   81590:	d37cec00 	lsl	x0, x0, #4
   81594:	8b000060 	add	x0, x3, x0
   81598:	8b010041 	add	x1, x2, x1
   8159c:	f9000401 	str	x1, [x0, #8]
   815a0:	b94013e0 	ldr	w0, [sp, #16]
   815a4:	11000400 	add	w0, w0, #0x1
   815a8:	b90013e0 	str	w0, [sp, #16]
   815ac:	b94013e0 	ldr	w0, [sp, #16]
   815b0:	71001c1f 	cmp	w0, #0x7
   815b4:	54fffc2d 	b.le	81538 <allocator_init+0x278>
   815b8:	d503201f 	nop
   815bc:	d503201f 	nop
   815c0:	a8c27bfd 	ldp	x29, x30, [sp], #32
   815c4:	d65f03c0 	ret

00000000000815c8 <page_malloc>:
   815c8:	a9bc7bfd 	stp	x29, x30, [sp, #-64]!
   815cc:	910003fd 	mov	x29, sp
   815d0:	b9001fe0 	str	w0, [sp, #28]
   815d4:	b9401fe0 	ldr	w0, [sp, #28]
   815d8:	530c7c00 	lsr	w0, w0, #12
   815dc:	b9401fe1 	ldr	w1, [sp, #28]
   815e0:	12002c21 	and	w1, w1, #0xfff
   815e4:	7100003f 	cmp	w1, #0x0
   815e8:	1a9f07e1 	cset	w1, ne  // ne = any
   815ec:	12001c21 	and	w1, w1, #0xff
   815f0:	0b010000 	add	w0, w0, w1
   815f4:	b90033e0 	str	w0, [sp, #48]
   815f8:	b94033e0 	ldr	w0, [sp, #48]
   815fc:	b9001fe0 	str	w0, [sp, #28]
   81600:	f9001fff 	str	xzr, [sp, #56]
   81604:	b90037ff 	str	wzr, [sp, #52]
   81608:	b94037e0 	ldr	w0, [sp, #52]
   8160c:	7100281f 	cmp	w0, #0xa
   81610:	540000ad 	b.le	81624 <page_malloc+0x5c>
   81614:	b0000020 	adrp	x0, 86000 <el1t_irq_invalid+0x74>
   81618:	9114a000 	add	x0, x0, #0x528
   8161c:	94000ca3 	bl	848a8 <uart_sendline>
   81620:	14000042 	b	81728 <page_malloc+0x160>
   81624:	b94037e0 	ldr	w0, [sp, #52]
   81628:	52800021 	mov	w1, #0x1                   	// #1
   8162c:	1ac02020 	lsl	w0, w1, w0
   81630:	2a0003e1 	mov	w1, w0
   81634:	b9401fe0 	ldr	w0, [sp, #28]
   81638:	6b01001f 	cmp	w0, w1
   8163c:	540006e8 	b.hi	81718 <page_malloc+0x150>  // b.pmore
   81640:	f0000020 	adrp	x0, 88000 <cmd_list+0x758>
   81644:	9127e000 	add	x0, x0, #0x9f8
   81648:	f9400001 	ldr	x1, [x0]
   8164c:	b98037e0 	ldrsw	x0, [sp, #52]
   81650:	d37be800 	lsl	x0, x0, #5
   81654:	8b000020 	add	x0, x1, x0
   81658:	f9400001 	ldr	x1, [x0]
   8165c:	f0000020 	adrp	x0, 88000 <cmd_list+0x758>
   81660:	9127e000 	add	x0, x0, #0x9f8
   81664:	f9400002 	ldr	x2, [x0]
   81668:	b98037e0 	ldrsw	x0, [sp, #52]
   8166c:	d37be800 	lsl	x0, x0, #5
   81670:	8b000040 	add	x0, x2, x0
   81674:	eb00003f 	cmp	x1, x0
   81678:	54000500 	b.eq	81718 <page_malloc+0x150>  // b.none
   8167c:	f0000020 	adrp	x0, 88000 <cmd_list+0x758>
   81680:	9127e000 	add	x0, x0, #0x9f8
   81684:	f9400001 	ldr	x1, [x0]
   81688:	b98037e0 	ldrsw	x0, [sp, #52]
   8168c:	d37be800 	lsl	x0, x0, #5
   81690:	8b000020 	add	x0, x1, x0
   81694:	f9400000 	ldr	x0, [x0]
   81698:	f90017e0 	str	x0, [sp, #40]
   8169c:	f94017e0 	ldr	x0, [sp, #40]
   816a0:	b9401000 	ldr	w0, [x0, #16]
   816a4:	2a0003e0 	mov	w0, w0
   816a8:	d374cc00 	lsl	x0, x0, #12
   816ac:	f9001fe0 	str	x0, [sp, #56]
   816b0:	f94017e0 	ldr	x0, [sp, #40]
   816b4:	b94037e1 	ldr	w1, [sp, #52]
   816b8:	b9001801 	str	w1, [x0, #24]
   816bc:	f94017e0 	ldr	x0, [sp, #40]
   816c0:	12800021 	mov	w1, #0xfffffffe            	// #-2
   816c4:	b9001401 	str	w1, [x0, #20]
   816c8:	f94017e0 	ldr	x0, [sp, #40]
   816cc:	f9400400 	ldr	x0, [x0, #8]
   816d0:	f94017e1 	ldr	x1, [sp, #40]
   816d4:	f9400021 	ldr	x1, [x1]
   816d8:	f9000001 	str	x1, [x0]
   816dc:	f94017e0 	ldr	x0, [sp, #40]
   816e0:	f9400000 	ldr	x0, [x0]
   816e4:	f94017e1 	ldr	x1, [sp, #40]
   816e8:	f9400421 	ldr	x1, [x1, #8]
   816ec:	f9000401 	str	x1, [x0, #8]
   816f0:	f94017e0 	ldr	x0, [sp, #40]
   816f4:	f94017e1 	ldr	x1, [sp, #40]
   816f8:	f9000001 	str	x1, [x0]
   816fc:	f94017e0 	ldr	x0, [sp, #40]
   81700:	f94017e1 	ldr	x1, [sp, #40]
   81704:	f9000401 	str	x1, [x0, #8]
   81708:	b9401fe1 	ldr	w1, [sp, #28]
   8170c:	f94017e0 	ldr	x0, [sp, #40]
   81710:	94000009 	bl	81734 <release_redundant>
   81714:	14000005 	b	81728 <page_malloc+0x160>
   81718:	b94037e0 	ldr	w0, [sp, #52]
   8171c:	11000400 	add	w0, w0, #0x1
   81720:	b90037e0 	str	w0, [sp, #52]
   81724:	17ffffb9 	b	81608 <page_malloc+0x40>
   81728:	f9401fe0 	ldr	x0, [sp, #56]
   8172c:	a8c47bfd 	ldp	x29, x30, [sp], #64
   81730:	d65f03c0 	ret

0000000000081734 <release_redundant>:
   81734:	a9bd7bfd 	stp	x29, x30, [sp, #-48]!
   81738:	910003fd 	mov	x29, sp
   8173c:	f9000fe0 	str	x0, [sp, #24]
   81740:	b90017e1 	str	w1, [sp, #20]
   81744:	14000023 	b	817d0 <release_redundant+0x9c>
   81748:	f9400fe0 	ldr	x0, [sp, #24]
   8174c:	b9401800 	ldr	w0, [x0, #24]
   81750:	51000401 	sub	w1, w0, #0x1
   81754:	f9400fe0 	ldr	x0, [sp, #24]
   81758:	b9001801 	str	w1, [x0, #24]
   8175c:	f0000020 	adrp	x0, 88000 <cmd_list+0x758>
   81760:	9127c000 	add	x0, x0, #0x9f0
   81764:	f9400001 	ldr	x1, [x0]
   81768:	f9400fe0 	ldr	x0, [sp, #24]
   8176c:	b9401000 	ldr	w0, [x0, #16]
   81770:	f9400fe2 	ldr	x2, [sp, #24]
   81774:	b9401842 	ldr	w2, [x2, #24]
   81778:	52800023 	mov	w3, #0x1                   	// #1
   8177c:	1ac22062 	lsl	w2, w3, w2
   81780:	4a020000 	eor	w0, w0, w2
   81784:	2a0003e0 	mov	w0, w0
   81788:	d37be800 	lsl	x0, x0, #5
   8178c:	8b000020 	add	x0, x1, x0
   81790:	f90017e0 	str	x0, [sp, #40]
   81794:	f9400fe0 	ldr	x0, [sp, #24]
   81798:	b9401801 	ldr	w1, [x0, #24]
   8179c:	f94017e0 	ldr	x0, [sp, #40]
   817a0:	b9001801 	str	w1, [x0, #24]
   817a4:	f0000020 	adrp	x0, 88000 <cmd_list+0x758>
   817a8:	9127e000 	add	x0, x0, #0x9f8
   817ac:	f9400001 	ldr	x1, [x0]
   817b0:	f9400fe0 	ldr	x0, [sp, #24]
   817b4:	b9401800 	ldr	w0, [x0, #24]
   817b8:	93407c00 	sxtw	x0, w0
   817bc:	d37be800 	lsl	x0, x0, #5
   817c0:	8b000020 	add	x0, x1, x0
   817c4:	aa0003e1 	mov	x1, x0
   817c8:	f94017e0 	ldr	x0, [sp, #40]
   817cc:	97fffea8 	bl	8126c <insert_frame_node>
   817d0:	f9400fe0 	ldr	x0, [sp, #24]
   817d4:	b9401800 	ldr	w0, [x0, #24]
   817d8:	7100001f 	cmp	w0, #0x0
   817dc:	5400014d 	b.le	81804 <release_redundant+0xd0>
   817e0:	f9400fe0 	ldr	x0, [sp, #24]
   817e4:	b9401800 	ldr	w0, [x0, #24]
   817e8:	51000400 	sub	w0, w0, #0x1
   817ec:	52800021 	mov	w1, #0x1                   	// #1
   817f0:	1ac02020 	lsl	w0, w1, w0
   817f4:	2a0003e1 	mov	w1, w0
   817f8:	b94017e0 	ldr	w0, [sp, #20]
   817fc:	6b01001f 	cmp	w0, w1
   81800:	54fffa49 	b.ls	81748 <release_redundant+0x14>  // b.plast
   81804:	d503201f 	nop
   81808:	a8c37bfd 	ldp	x29, x30, [sp], #48
   8180c:	d65f03c0 	ret

0000000000081810 <page_free>:
   81810:	a9bd7bfd 	stp	x29, x30, [sp, #-48]!
   81814:	910003fd 	mov	x29, sp
   81818:	f9000fe0 	str	x0, [sp, #24]
   8181c:	f0000020 	adrp	x0, 88000 <cmd_list+0x758>
   81820:	9127c000 	add	x0, x0, #0x9f0
   81824:	f9400001 	ldr	x1, [x0]
   81828:	f9400fe0 	ldr	x0, [sp, #24]
   8182c:	d34cfc00 	lsr	x0, x0, #12
   81830:	d37be800 	lsl	x0, x0, #5
   81834:	8b000020 	add	x0, x1, x0
   81838:	f90017e0 	str	x0, [sp, #40]
   8183c:	f94017e0 	ldr	x0, [sp, #40]
   81840:	12800001 	mov	w1, #0xffffffff            	// #-1
   81844:	b9001401 	str	w1, [x0, #20]
   81848:	d503201f 	nop
   8184c:	9100a3e0 	add	x0, sp, #0x28
   81850:	94000012 	bl	81898 <coalesce>
   81854:	7100001f 	cmp	w0, #0x0
   81858:	54ffffa0 	b.eq	8184c <page_free+0x3c>  // b.none
   8185c:	f94017e2 	ldr	x2, [sp, #40]
   81860:	f0000020 	adrp	x0, 88000 <cmd_list+0x758>
   81864:	9127e000 	add	x0, x0, #0x9f8
   81868:	f9400001 	ldr	x1, [x0]
   8186c:	f94017e0 	ldr	x0, [sp, #40]
   81870:	b9401800 	ldr	w0, [x0, #24]
   81874:	93407c00 	sxtw	x0, w0
   81878:	d37be800 	lsl	x0, x0, #5
   8187c:	8b000020 	add	x0, x1, x0
   81880:	aa0003e1 	mov	x1, x0
   81884:	aa0203e0 	mov	x0, x2
   81888:	97fffe79 	bl	8126c <insert_frame_node>
   8188c:	d503201f 	nop
   81890:	a8c37bfd 	ldp	x29, x30, [sp], #48
   81894:	d65f03c0 	ret

0000000000081898 <coalesce>:
   81898:	d10083ff 	sub	sp, sp, #0x20
   8189c:	f90007e0 	str	x0, [sp, #8]
   818a0:	f94007e0 	ldr	x0, [sp, #8]
   818a4:	f9400000 	ldr	x0, [x0]
   818a8:	f9000fe0 	str	x0, [sp, #24]
   818ac:	f0000020 	adrp	x0, 88000 <cmd_list+0x758>
   818b0:	9127c000 	add	x0, x0, #0x9f0
   818b4:	f9400001 	ldr	x1, [x0]
   818b8:	f9400fe0 	ldr	x0, [sp, #24]
   818bc:	b9401000 	ldr	w0, [x0, #16]
   818c0:	f9400fe2 	ldr	x2, [sp, #24]
   818c4:	b9401842 	ldr	w2, [x2, #24]
   818c8:	52800023 	mov	w3, #0x1                   	// #1
   818cc:	1ac22062 	lsl	w2, w3, w2
   818d0:	4a020000 	eor	w0, w0, w2
   818d4:	2a0003e0 	mov	w0, w0
   818d8:	d37be800 	lsl	x0, x0, #5
   818dc:	8b000020 	add	x0, x1, x0
   818e0:	f9000be0 	str	x0, [sp, #16]
   818e4:	f9400fe0 	ldr	x0, [sp, #24]
   818e8:	b9401801 	ldr	w1, [x0, #24]
   818ec:	f9400be0 	ldr	x0, [sp, #16]
   818f0:	b9401800 	ldr	w0, [x0, #24]
   818f4:	6b00003f 	cmp	w1, w0
   818f8:	54000060 	b.eq	81904 <coalesce+0x6c>  // b.none
   818fc:	12800000 	mov	w0, #0xffffffff            	// #-1
   81900:	14000020 	b	81980 <coalesce+0xe8>
   81904:	f9400be0 	ldr	x0, [sp, #16]
   81908:	b9401400 	ldr	w0, [x0, #20]
   8190c:	3100041f 	cmn	w0, #0x1
   81910:	54000060 	b.eq	8191c <coalesce+0x84>  // b.none
   81914:	12800000 	mov	w0, #0xffffffff            	// #-1
   81918:	1400001a 	b	81980 <coalesce+0xe8>
   8191c:	f9400be0 	ldr	x0, [sp, #16]
   81920:	f9400400 	ldr	x0, [x0, #8]
   81924:	f9400be1 	ldr	x1, [sp, #16]
   81928:	f9400021 	ldr	x1, [x1]
   8192c:	f9000001 	str	x1, [x0]
   81930:	f9400be0 	ldr	x0, [sp, #16]
   81934:	f9400000 	ldr	x0, [x0]
   81938:	f9400be1 	ldr	x1, [sp, #16]
   8193c:	f9400421 	ldr	x1, [x1, #8]
   81940:	f9000401 	str	x1, [x0, #8]
   81944:	f9400be0 	ldr	x0, [sp, #16]
   81948:	b9401001 	ldr	w1, [x0, #16]
   8194c:	f9400fe0 	ldr	x0, [sp, #24]
   81950:	b9401000 	ldr	w0, [x0, #16]
   81954:	6b00003f 	cmp	w1, w0
   81958:	54000082 	b.cs	81968 <coalesce+0xd0>  // b.hs, b.nlast
   8195c:	f94007e0 	ldr	x0, [sp, #8]
   81960:	f9400be1 	ldr	x1, [sp, #16]
   81964:	f9000001 	str	x1, [x0]
   81968:	f94007e0 	ldr	x0, [sp, #8]
   8196c:	f9400000 	ldr	x0, [x0]
   81970:	b9401801 	ldr	w1, [x0, #24]
   81974:	11000421 	add	w1, w1, #0x1
   81978:	b9001801 	str	w1, [x0, #24]
   8197c:	52800000 	mov	w0, #0x0                   	// #0
   81980:	910083ff 	add	sp, sp, #0x20
   81984:	d65f03c0 	ret

0000000000081988 <dump_free_frame_list>:
   81988:	a9bd7bfd 	stp	x29, x30, [sp, #-48]!
   8198c:	910003fd 	mov	x29, sp
   81990:	b0000020 	adrp	x0, 86000 <el1t_irq_invalid+0x74>
   81994:	91154000 	add	x0, x0, #0x550
   81998:	94000bc4 	bl	848a8 <uart_sendline>
   8199c:	b0000020 	adrp	x0, 86000 <el1t_irq_invalid+0x74>
   819a0:	91160000 	add	x0, x0, #0x580
   819a4:	94000bc1 	bl	848a8 <uart_sendline>
   819a8:	b9002fff 	str	wzr, [sp, #44]
   819ac:	14000026 	b	81a44 <dump_free_frame_list+0xbc>
   819b0:	f0000020 	adrp	x0, 88000 <cmd_list+0x758>
   819b4:	9127e000 	add	x0, x0, #0x9f8
   819b8:	f9400001 	ldr	x1, [x0]
   819bc:	b9802fe0 	ldrsw	x0, [sp, #44]
   819c0:	d37be800 	lsl	x0, x0, #5
   819c4:	8b000020 	add	x0, x1, x0
   819c8:	f9400000 	ldr	x0, [x0]
   819cc:	f90013e0 	str	x0, [sp, #32]
   819d0:	b9001fff 	str	wzr, [sp, #28]
   819d4:	14000007 	b	819f0 <dump_free_frame_list+0x68>
   819d8:	b9401fe0 	ldr	w0, [sp, #28]
   819dc:	11000400 	add	w0, w0, #0x1
   819e0:	b9001fe0 	str	w0, [sp, #28]
   819e4:	f94013e0 	ldr	x0, [sp, #32]
   819e8:	f9400000 	ldr	x0, [x0]
   819ec:	f90013e0 	str	x0, [sp, #32]
   819f0:	f0000020 	adrp	x0, 88000 <cmd_list+0x758>
   819f4:	9127e000 	add	x0, x0, #0x9f8
   819f8:	f9400001 	ldr	x1, [x0]
   819fc:	b9802fe0 	ldrsw	x0, [sp, #44]
   81a00:	d37be800 	lsl	x0, x0, #5
   81a04:	8b000020 	add	x0, x1, x0
   81a08:	f94013e1 	ldr	x1, [sp, #32]
   81a0c:	eb00003f 	cmp	x1, x0
   81a10:	54fffe41 	b.ne	819d8 <dump_free_frame_list+0x50>  // b.any
   81a14:	b9402fe0 	ldr	w0, [sp, #44]
   81a18:	11000800 	add	w0, w0, #0x2
   81a1c:	52800021 	mov	w1, #0x1                   	// #1
   81a20:	1ac02020 	lsl	w0, w1, w0
   81a24:	b9401fe2 	ldr	w2, [sp, #28]
   81a28:	2a0003e1 	mov	w1, w0
   81a2c:	b0000020 	adrp	x0, 86000 <el1t_irq_invalid+0x74>
   81a30:	91166000 	add	x0, x0, #0x598
   81a34:	94000b9d 	bl	848a8 <uart_sendline>
   81a38:	b9402fe0 	ldr	w0, [sp, #44]
   81a3c:	11000400 	add	w0, w0, #0x1
   81a40:	b9002fe0 	str	w0, [sp, #44]
   81a44:	b9402fe0 	ldr	w0, [sp, #44]
   81a48:	7100281f 	cmp	w0, #0xa
   81a4c:	54fffb2d 	b.le	819b0 <dump_free_frame_list+0x28>
   81a50:	b0000020 	adrp	x0, 86000 <el1t_irq_invalid+0x74>
   81a54:	9116e000 	add	x0, x0, #0x5b8
   81a58:	94000b94 	bl	848a8 <uart_sendline>
   81a5c:	d503201f 	nop
   81a60:	a8c37bfd 	ldp	x29, x30, [sp], #48
   81a64:	d65f03c0 	ret

0000000000081a68 <cut_page_to_slot>:
   81a68:	a9bb7bfd 	stp	x29, x30, [sp, #-80]!
   81a6c:	910003fd 	mov	x29, sp
   81a70:	b9001fe0 	str	w0, [sp, #28]
   81a74:	52820000 	mov	w0, #0x1000                	// #4096
   81a78:	97fffed4 	bl	815c8 <page_malloc>
   81a7c:	f90023e0 	str	x0, [sp, #64]
   81a80:	f0000020 	adrp	x0, 88000 <cmd_list+0x758>
   81a84:	9127c000 	add	x0, x0, #0x9f0
   81a88:	f9400001 	ldr	x1, [x0]
   81a8c:	f94023e0 	ldr	x0, [sp, #64]
   81a90:	d34cfc00 	lsr	x0, x0, #12
   81a94:	d37be800 	lsl	x0, x0, #5
   81a98:	8b000020 	add	x0, x1, x0
   81a9c:	f9001fe0 	str	x0, [sp, #56]
   81aa0:	f9401fe0 	ldr	x0, [sp, #56]
   81aa4:	b9401fe1 	ldr	w1, [sp, #28]
   81aa8:	b9001c01 	str	w1, [x0, #28]
   81aac:	b9401fe0 	ldr	w0, [sp, #28]
   81ab0:	52800401 	mov	w1, #0x20                  	// #32
   81ab4:	1ac02020 	lsl	w0, w1, w0
   81ab8:	b90037e0 	str	w0, [sp, #52]
   81abc:	b9004fff 	str	wzr, [sp, #76]
   81ac0:	14000022 	b	81b48 <cut_page_to_slot+0xe0>
   81ac4:	b9804fe0 	ldrsw	x0, [sp, #76]
   81ac8:	f94023e1 	ldr	x1, [sp, #64]
   81acc:	8b000020 	add	x0, x1, x0
   81ad0:	f90017e0 	str	x0, [sp, #40]
   81ad4:	f0000020 	adrp	x0, 88000 <cmd_list+0x758>
   81ad8:	91280000 	add	x0, x0, #0xa00
   81adc:	f9400001 	ldr	x1, [x0]
   81ae0:	b9801fe0 	ldrsw	x0, [sp, #28]
   81ae4:	d37cec00 	lsl	x0, x0, #4
   81ae8:	8b000020 	add	x0, x1, x0
   81aec:	f9400001 	ldr	x1, [x0]
   81af0:	f94017e0 	ldr	x0, [sp, #40]
   81af4:	f9000001 	str	x1, [x0]
   81af8:	f0000020 	adrp	x0, 88000 <cmd_list+0x758>
   81afc:	91280000 	add	x0, x0, #0xa00
   81b00:	f9400001 	ldr	x1, [x0]
   81b04:	b9801fe0 	ldrsw	x0, [sp, #28]
   81b08:	d37cec00 	lsl	x0, x0, #4
   81b0c:	8b000021 	add	x1, x1, x0
   81b10:	f94017e0 	ldr	x0, [sp, #40]
   81b14:	f9000401 	str	x1, [x0, #8]
   81b18:	f94017e0 	ldr	x0, [sp, #40]
   81b1c:	f9400000 	ldr	x0, [x0]
   81b20:	f94017e1 	ldr	x1, [sp, #40]
   81b24:	f9000401 	str	x1, [x0, #8]
   81b28:	f94017e0 	ldr	x0, [sp, #40]
   81b2c:	f9400400 	ldr	x0, [x0, #8]
   81b30:	f94017e1 	ldr	x1, [sp, #40]
   81b34:	f9000001 	str	x1, [x0]
   81b38:	b9404fe1 	ldr	w1, [sp, #76]
   81b3c:	b94037e0 	ldr	w0, [sp, #52]
   81b40:	0b000020 	add	w0, w1, w0
   81b44:	b9004fe0 	str	w0, [sp, #76]
   81b48:	b9404fe0 	ldr	w0, [sp, #76]
   81b4c:	713ffc1f 	cmp	w0, #0xfff
   81b50:	54fffbad 	b.le	81ac4 <cut_page_to_slot+0x5c>
   81b54:	d503201f 	nop
   81b58:	d503201f 	nop
   81b5c:	a8c57bfd 	ldp	x29, x30, [sp], #80
   81b60:	d65f03c0 	ret

0000000000081b64 <dynamic_malloc>:
   81b64:	a9bc7bfd 	stp	x29, x30, [sp, #-64]!
   81b68:	910003fd 	mov	x29, sp
   81b6c:	b9001fe0 	str	w0, [sp, #28]
   81b70:	b9401fe0 	ldr	w0, [sp, #28]
   81b74:	53057c00 	lsr	w0, w0, #5
   81b78:	b9401fe1 	ldr	w1, [sp, #28]
   81b7c:	12001021 	and	w1, w1, #0x1f
   81b80:	7100003f 	cmp	w1, #0x0
   81b84:	1a9f07e1 	cset	w1, ne  // ne = any
   81b88:	12001c21 	and	w1, w1, #0xff
   81b8c:	0b010000 	add	w0, w0, w1
   81b90:	b9003be0 	str	w0, [sp, #56]
   81b94:	b9403be0 	ldr	w0, [sp, #56]
   81b98:	b9001fe0 	str	w0, [sp, #28]
   81b9c:	b9003fff 	str	wzr, [sp, #60]
   81ba0:	14000004 	b	81bb0 <dynamic_malloc+0x4c>
   81ba4:	b9403fe0 	ldr	w0, [sp, #60]
   81ba8:	11000400 	add	w0, w0, #0x1
   81bac:	b9003fe0 	str	w0, [sp, #60]
   81bb0:	b9403fe0 	ldr	w0, [sp, #60]
   81bb4:	52800021 	mov	w1, #0x1                   	// #1
   81bb8:	1ac02020 	lsl	w0, w1, w0
   81bbc:	2a0003e1 	mov	w1, w0
   81bc0:	b9401fe0 	ldr	w0, [sp, #28]
   81bc4:	6b01001f 	cmp	w0, w1
   81bc8:	54fffee8 	b.hi	81ba4 <dynamic_malloc+0x40>  // b.pmore
   81bcc:	f0000020 	adrp	x0, 88000 <cmd_list+0x758>
   81bd0:	91280000 	add	x0, x0, #0xa00
   81bd4:	f9400001 	ldr	x1, [x0]
   81bd8:	b9803fe0 	ldrsw	x0, [sp, #60]
   81bdc:	d37cec00 	lsl	x0, x0, #4
   81be0:	8b000020 	add	x0, x1, x0
   81be4:	f9400001 	ldr	x1, [x0]
   81be8:	f0000020 	adrp	x0, 88000 <cmd_list+0x758>
   81bec:	91280000 	add	x0, x0, #0xa00
   81bf0:	f9400002 	ldr	x2, [x0]
   81bf4:	b9803fe0 	ldrsw	x0, [sp, #60]
   81bf8:	d37cec00 	lsl	x0, x0, #4
   81bfc:	8b000040 	add	x0, x2, x0
   81c00:	eb00003f 	cmp	x1, x0
   81c04:	54000061 	b.ne	81c10 <dynamic_malloc+0xac>  // b.any
   81c08:	b9403fe0 	ldr	w0, [sp, #60]
   81c0c:	97ffff97 	bl	81a68 <cut_page_to_slot>
   81c10:	f0000020 	adrp	x0, 88000 <cmd_list+0x758>
   81c14:	91280000 	add	x0, x0, #0xa00
   81c18:	f9400001 	ldr	x1, [x0]
   81c1c:	b9803fe0 	ldrsw	x0, [sp, #60]
   81c20:	d37cec00 	lsl	x0, x0, #4
   81c24:	8b000020 	add	x0, x1, x0
   81c28:	f9400000 	ldr	x0, [x0]
   81c2c:	f9001be0 	str	x0, [sp, #48]
   81c30:	f0000020 	adrp	x0, 88000 <cmd_list+0x758>
   81c34:	91280000 	add	x0, x0, #0xa00
   81c38:	f9400001 	ldr	x1, [x0]
   81c3c:	b9803fe0 	ldrsw	x0, [sp, #60]
   81c40:	d37cec00 	lsl	x0, x0, #4
   81c44:	8b000020 	add	x0, x1, x0
   81c48:	f9400000 	ldr	x0, [x0]
   81c4c:	f90017e0 	str	x0, [sp, #40]
   81c50:	f94017e0 	ldr	x0, [sp, #40]
   81c54:	f9400400 	ldr	x0, [x0, #8]
   81c58:	f94017e1 	ldr	x1, [sp, #40]
   81c5c:	f9400021 	ldr	x1, [x1]
   81c60:	f9000001 	str	x1, [x0]
   81c64:	f94017e0 	ldr	x0, [sp, #40]
   81c68:	f9400000 	ldr	x0, [x0]
   81c6c:	f94017e1 	ldr	x1, [sp, #40]
   81c70:	f9400421 	ldr	x1, [x1, #8]
   81c74:	f9000401 	str	x1, [x0, #8]
   81c78:	f9401be0 	ldr	x0, [sp, #48]
   81c7c:	a8c47bfd 	ldp	x29, x30, [sp], #64
   81c80:	d65f03c0 	ret

0000000000081c84 <dynamic_free>:
   81c84:	d10083ff 	sub	sp, sp, #0x20
   81c88:	f90007e0 	str	x0, [sp, #8]
   81c8c:	f0000020 	adrp	x0, 88000 <cmd_list+0x758>
   81c90:	9127c000 	add	x0, x0, #0x9f0
   81c94:	f9400001 	ldr	x1, [x0]
   81c98:	f94007e0 	ldr	x0, [sp, #8]
   81c9c:	d34cfc00 	lsr	x0, x0, #12
   81ca0:	d37be800 	lsl	x0, x0, #5
   81ca4:	8b000020 	add	x0, x1, x0
   81ca8:	b9401c00 	ldr	w0, [x0, #28]
   81cac:	b9001fe0 	str	w0, [sp, #28]
   81cb0:	f94007e0 	ldr	x0, [sp, #8]
   81cb4:	f9000be0 	str	x0, [sp, #16]
   81cb8:	f0000020 	adrp	x0, 88000 <cmd_list+0x758>
   81cbc:	91280000 	add	x0, x0, #0xa00
   81cc0:	f9400001 	ldr	x1, [x0]
   81cc4:	b9801fe0 	ldrsw	x0, [sp, #28]
   81cc8:	d37cec00 	lsl	x0, x0, #4
   81ccc:	8b000020 	add	x0, x1, x0
   81cd0:	f9400001 	ldr	x1, [x0]
   81cd4:	f9400be0 	ldr	x0, [sp, #16]
   81cd8:	f9000001 	str	x1, [x0]
   81cdc:	f0000020 	adrp	x0, 88000 <cmd_list+0x758>
   81ce0:	91280000 	add	x0, x0, #0xa00
   81ce4:	f9400001 	ldr	x1, [x0]
   81ce8:	b9801fe0 	ldrsw	x0, [sp, #28]
   81cec:	d37cec00 	lsl	x0, x0, #4
   81cf0:	8b000021 	add	x1, x1, x0
   81cf4:	f9400be0 	ldr	x0, [sp, #16]
   81cf8:	f9000401 	str	x1, [x0, #8]
   81cfc:	f9400be0 	ldr	x0, [sp, #16]
   81d00:	f9400000 	ldr	x0, [x0]
   81d04:	f9400be1 	ldr	x1, [sp, #16]
   81d08:	f9000401 	str	x1, [x0, #8]
   81d0c:	f9400be0 	ldr	x0, [sp, #16]
   81d10:	f9400400 	ldr	x0, [x0, #8]
   81d14:	f9400be1 	ldr	x1, [sp, #16]
   81d18:	f9000001 	str	x1, [x0]
   81d1c:	d503201f 	nop
   81d20:	910083ff 	add	sp, sp, #0x20
   81d24:	d65f03c0 	ret

0000000000081d28 <dump_free_slot_list>:
   81d28:	a9bd7bfd 	stp	x29, x30, [sp, #-48]!
   81d2c:	910003fd 	mov	x29, sp
   81d30:	b0000020 	adrp	x0, 86000 <el1t_irq_invalid+0x74>
   81d34:	91154000 	add	x0, x0, #0x550
   81d38:	94000adc 	bl	848a8 <uart_sendline>
   81d3c:	b0000020 	adrp	x0, 86000 <el1t_irq_invalid+0x74>
   81d40:	9117a000 	add	x0, x0, #0x5e8
   81d44:	94000ad9 	bl	848a8 <uart_sendline>
   81d48:	b9002fff 	str	wzr, [sp, #44]
   81d4c:	14000025 	b	81de0 <dump_free_slot_list+0xb8>
   81d50:	f0000020 	adrp	x0, 88000 <cmd_list+0x758>
   81d54:	91280000 	add	x0, x0, #0xa00
   81d58:	f9400001 	ldr	x1, [x0]
   81d5c:	b9802fe0 	ldrsw	x0, [sp, #44]
   81d60:	d37cec00 	lsl	x0, x0, #4
   81d64:	8b000020 	add	x0, x1, x0
   81d68:	f9400000 	ldr	x0, [x0]
   81d6c:	f90013e0 	str	x0, [sp, #32]
   81d70:	b9001fff 	str	wzr, [sp, #28]
   81d74:	14000007 	b	81d90 <dump_free_slot_list+0x68>
   81d78:	b9401fe0 	ldr	w0, [sp, #28]
   81d7c:	11000400 	add	w0, w0, #0x1
   81d80:	b9001fe0 	str	w0, [sp, #28]
   81d84:	f94013e0 	ldr	x0, [sp, #32]
   81d88:	f9400000 	ldr	x0, [x0]
   81d8c:	f90013e0 	str	x0, [sp, #32]
   81d90:	f0000020 	adrp	x0, 88000 <cmd_list+0x758>
   81d94:	91280000 	add	x0, x0, #0xa00
   81d98:	f9400001 	ldr	x1, [x0]
   81d9c:	b9802fe0 	ldrsw	x0, [sp, #44]
   81da0:	d37cec00 	lsl	x0, x0, #4
   81da4:	8b000020 	add	x0, x1, x0
   81da8:	f94013e1 	ldr	x1, [sp, #32]
   81dac:	eb00003f 	cmp	x1, x0
   81db0:	54fffe41 	b.ne	81d78 <dump_free_slot_list+0x50>  // b.any
   81db4:	b9402fe0 	ldr	w0, [sp, #44]
   81db8:	52800401 	mov	w1, #0x20                  	// #32
   81dbc:	1ac02020 	lsl	w0, w1, w0
   81dc0:	b9401fe2 	ldr	w2, [sp, #28]
   81dc4:	2a0003e1 	mov	w1, w0
   81dc8:	b0000020 	adrp	x0, 86000 <el1t_irq_invalid+0x74>
   81dcc:	91180000 	add	x0, x0, #0x600
   81dd0:	94000ab6 	bl	848a8 <uart_sendline>
   81dd4:	b9402fe0 	ldr	w0, [sp, #44]
   81dd8:	11000400 	add	w0, w0, #0x1
   81ddc:	b9002fe0 	str	w0, [sp, #44]
   81de0:	b9402fe0 	ldr	w0, [sp, #44]
   81de4:	71001c1f 	cmp	w0, #0x7
   81de8:	54fffb4d 	b.le	81d50 <dump_free_slot_list+0x28>
   81dec:	b0000020 	adrp	x0, 86000 <el1t_irq_invalid+0x74>
   81df0:	9116e000 	add	x0, x0, #0x5b8
   81df4:	94000aad 	bl	848a8 <uart_sendline>
   81df8:	d503201f 	nop
   81dfc:	a8c37bfd 	ldp	x29, x30, [sp], #48
   81e00:	d65f03c0 	ret

0000000000081e04 <kmalloc>:
   81e04:	a9bd7bfd 	stp	x29, x30, [sp, #-48]!
   81e08:	910003fd 	mov	x29, sp
   81e0c:	b9001fe0 	str	w0, [sp, #28]
   81e10:	b9401fe0 	ldr	w0, [sp, #28]
   81e14:	7120001f 	cmp	w0, #0x800
   81e18:	540000a9 	b.ls	81e2c <kmalloc+0x28>  // b.plast
   81e1c:	b9401fe0 	ldr	w0, [sp, #28]
   81e20:	97fffdea 	bl	815c8 <page_malloc>
   81e24:	f90017e0 	str	x0, [sp, #40]
   81e28:	14000004 	b	81e38 <kmalloc+0x34>
   81e2c:	b9401fe0 	ldr	w0, [sp, #28]
   81e30:	97ffff4d 	bl	81b64 <dynamic_malloc>
   81e34:	f90017e0 	str	x0, [sp, #40]
   81e38:	f94017e0 	ldr	x0, [sp, #40]
   81e3c:	a8c37bfd 	ldp	x29, x30, [sp], #48
   81e40:	d65f03c0 	ret

0000000000081e44 <kfree>:
   81e44:	a9bd7bfd 	stp	x29, x30, [sp, #-48]!
   81e48:	910003fd 	mov	x29, sp
   81e4c:	f9000fe0 	str	x0, [sp, #24]
   81e50:	f0000020 	adrp	x0, 88000 <cmd_list+0x758>
   81e54:	9127c000 	add	x0, x0, #0x9f0
   81e58:	f9400001 	ldr	x1, [x0]
   81e5c:	f9400fe0 	ldr	x0, [sp, #24]
   81e60:	d34cfc00 	lsr	x0, x0, #12
   81e64:	d37be800 	lsl	x0, x0, #5
   81e68:	8b000020 	add	x0, x1, x0
   81e6c:	f90017e0 	str	x0, [sp, #40]
   81e70:	f94017e0 	ldr	x0, [sp, #40]
   81e74:	b9401c00 	ldr	w0, [x0, #28]
   81e78:	3100041f 	cmn	w0, #0x1
   81e7c:	54000081 	b.ne	81e8c <kfree+0x48>  // b.any
   81e80:	f9400fe0 	ldr	x0, [sp, #24]
   81e84:	97fffe63 	bl	81810 <page_free>
   81e88:	14000003 	b	81e94 <kfree+0x50>
   81e8c:	f9400fe0 	ldr	x0, [sp, #24]
   81e90:	97ffff7d 	bl	81c84 <dynamic_free>
   81e94:	d503201f 	nop
   81e98:	a8c37bfd 	ldp	x29, x30, [sp], #48
   81e9c:	d65f03c0 	ret

0000000000081ea0 <memory_reserve>:
   81ea0:	a9bb7bfd 	stp	x29, x30, [sp, #-80]!
   81ea4:	910003fd 	mov	x29, sp
   81ea8:	f9000fe0 	str	x0, [sp, #24]
   81eac:	f9000be1 	str	x1, [sp, #16]
   81eb0:	f9400fe0 	ldr	x0, [sp, #24]
   81eb4:	d34cfc00 	lsr	x0, x0, #12
   81eb8:	f9000fe0 	str	x0, [sp, #24]
   81ebc:	f9400be0 	ldr	x0, [sp, #16]
   81ec0:	92402c00 	and	x0, x0, #0xfff
   81ec4:	f100001f 	cmp	x0, #0x0
   81ec8:	54000081 	b.ne	81ed8 <memory_reserve+0x38>  // b.any
   81ecc:	f9400be0 	ldr	x0, [sp, #16]
   81ed0:	d34cfc00 	lsr	x0, x0, #12
   81ed4:	14000004 	b	81ee4 <memory_reserve+0x44>
   81ed8:	f9400be0 	ldr	x0, [sp, #16]
   81edc:	d34cfc00 	lsr	x0, x0, #12
   81ee0:	91000400 	add	x0, x0, #0x1
   81ee4:	f9000be0 	str	x0, [sp, #16]
   81ee8:	52800140 	mov	w0, #0xa                   	// #10
   81eec:	b9004fe0 	str	w0, [sp, #76]
   81ef0:	14000080 	b	820f0 <memory_reserve+0x250>
   81ef4:	f0000020 	adrp	x0, 88000 <cmd_list+0x758>
   81ef8:	9127e000 	add	x0, x0, #0x9f8
   81efc:	f9400001 	ldr	x1, [x0]
   81f00:	b9804fe0 	ldrsw	x0, [sp, #76]
   81f04:	d37be800 	lsl	x0, x0, #5
   81f08:	8b000020 	add	x0, x1, x0
   81f0c:	f9400000 	ldr	x0, [x0]
   81f10:	f90023e0 	str	x0, [sp, #64]
   81f14:	1400006b 	b	820c0 <memory_reserve+0x220>
   81f18:	f94023e0 	ldr	x0, [sp, #64]
   81f1c:	b9401000 	ldr	w0, [x0, #16]
   81f20:	b9003fe0 	str	w0, [sp, #60]
   81f24:	f94023e0 	ldr	x0, [sp, #64]
   81f28:	b9401000 	ldr	w0, [x0, #16]
   81f2c:	f94023e1 	ldr	x1, [sp, #64]
   81f30:	b9401821 	ldr	w1, [x1, #24]
   81f34:	52800022 	mov	w2, #0x1                   	// #1
   81f38:	1ac12041 	lsl	w1, w2, w1
   81f3c:	0b010000 	add	w0, w0, w1
   81f40:	b9003be0 	str	w0, [sp, #56]
   81f44:	b9803fe0 	ldrsw	x0, [sp, #60]
   81f48:	f9400fe1 	ldr	x1, [sp, #24]
   81f4c:	eb00003f 	cmp	x1, x0
   81f50:	540002c8 	b.hi	81fa8 <memory_reserve+0x108>  // b.pmore
   81f54:	b9803be0 	ldrsw	x0, [sp, #56]
   81f58:	f9400be1 	ldr	x1, [sp, #16]
   81f5c:	eb00003f 	cmp	x1, x0
   81f60:	54000243 	b.cc	81fa8 <memory_reserve+0x108>  // b.lo, b.ul, b.last
   81f64:	f94023e0 	ldr	x0, [sp, #64]
   81f68:	12800021 	mov	w1, #0xfffffffe            	// #-2
   81f6c:	b9001401 	str	w1, [x0, #20]
   81f70:	f94023e0 	ldr	x0, [sp, #64]
   81f74:	f9400400 	ldr	x0, [x0, #8]
   81f78:	f94023e1 	ldr	x1, [sp, #64]
   81f7c:	f9400021 	ldr	x1, [x1]
   81f80:	f9000001 	str	x1, [x0]
   81f84:	f94023e0 	ldr	x0, [sp, #64]
   81f88:	f9400000 	ldr	x0, [x0]
   81f8c:	f94023e1 	ldr	x1, [sp, #64]
   81f90:	f9400421 	ldr	x1, [x1, #8]
   81f94:	f9000401 	str	x1, [x0, #8]
   81f98:	f94023e0 	ldr	x0, [sp, #64]
   81f9c:	f9400000 	ldr	x0, [x0]
   81fa0:	f90023e0 	str	x0, [sp, #64]
   81fa4:	14000047 	b	820c0 <memory_reserve+0x220>
   81fa8:	b9803fe0 	ldrsw	x0, [sp, #60]
   81fac:	f9400be1 	ldr	x1, [sp, #16]
   81fb0:	eb00003f 	cmp	x1, x0
   81fb4:	540000a9 	b.ls	81fc8 <memory_reserve+0x128>  // b.plast
   81fb8:	b9803be0 	ldrsw	x0, [sp, #56]
   81fbc:	f9400fe1 	ldr	x1, [sp, #24]
   81fc0:	eb00003f 	cmp	x1, x0
   81fc4:	540000a3 	b.cc	81fd8 <memory_reserve+0x138>  // b.lo, b.ul, b.last
   81fc8:	f94023e0 	ldr	x0, [sp, #64]
   81fcc:	f9400000 	ldr	x0, [x0]
   81fd0:	f90023e0 	str	x0, [sp, #64]
   81fd4:	1400003b 	b	820c0 <memory_reserve+0x220>
   81fd8:	f94023e0 	ldr	x0, [sp, #64]
   81fdc:	f9400400 	ldr	x0, [x0, #8]
   81fe0:	f94023e1 	ldr	x1, [sp, #64]
   81fe4:	f9400021 	ldr	x1, [x1]
   81fe8:	f9000001 	str	x1, [x0]
   81fec:	f94023e0 	ldr	x0, [sp, #64]
   81ff0:	f9400000 	ldr	x0, [x0]
   81ff4:	f94023e1 	ldr	x1, [sp, #64]
   81ff8:	f9400421 	ldr	x1, [x1, #8]
   81ffc:	f9000401 	str	x1, [x0, #8]
   82000:	d0000020 	adrp	x0, 88000 <cmd_list+0x758>
   82004:	9127c000 	add	x0, x0, #0x9f0
   82008:	f9400001 	ldr	x1, [x0]
   8200c:	f94023e0 	ldr	x0, [sp, #64]
   82010:	b9401000 	ldr	w0, [x0, #16]
   82014:	b9404fe2 	ldr	w2, [sp, #76]
   82018:	51000442 	sub	w2, w2, #0x1
   8201c:	52800023 	mov	w3, #0x1                   	// #1
   82020:	1ac22062 	lsl	w2, w3, w2
   82024:	4a020000 	eor	w0, w0, w2
   82028:	2a0003e0 	mov	w0, w0
   8202c:	d37be800 	lsl	x0, x0, #5
   82030:	8b000020 	add	x0, x1, x0
   82034:	f9001be0 	str	x0, [sp, #48]
   82038:	f94023e0 	ldr	x0, [sp, #64]
   8203c:	b9401800 	ldr	w0, [x0, #24]
   82040:	51000401 	sub	w1, w0, #0x1
   82044:	f94023e0 	ldr	x0, [sp, #64]
   82048:	b9001801 	str	w1, [x0, #24]
   8204c:	f94023e0 	ldr	x0, [sp, #64]
   82050:	b9401801 	ldr	w1, [x0, #24]
   82054:	f9401be0 	ldr	x0, [sp, #48]
   82058:	b9001801 	str	w1, [x0, #24]
   8205c:	f94023e0 	ldr	x0, [sp, #64]
   82060:	f9400000 	ldr	x0, [x0]
   82064:	f90017e0 	str	x0, [sp, #40]
   82068:	d0000020 	adrp	x0, 88000 <cmd_list+0x758>
   8206c:	9127e000 	add	x0, x0, #0x9f8
   82070:	f9400001 	ldr	x1, [x0]
   82074:	b9804fe0 	ldrsw	x0, [sp, #76]
   82078:	d37be800 	lsl	x0, x0, #5
   8207c:	d1008000 	sub	x0, x0, #0x20
   82080:	8b000020 	add	x0, x1, x0
   82084:	aa0003e1 	mov	x1, x0
   82088:	f9401be0 	ldr	x0, [sp, #48]
   8208c:	97fffc78 	bl	8126c <insert_frame_node>
   82090:	d0000020 	adrp	x0, 88000 <cmd_list+0x758>
   82094:	9127e000 	add	x0, x0, #0x9f8
   82098:	f9400001 	ldr	x1, [x0]
   8209c:	b9804fe0 	ldrsw	x0, [sp, #76]
   820a0:	d37be800 	lsl	x0, x0, #5
   820a4:	d1008000 	sub	x0, x0, #0x20
   820a8:	8b000020 	add	x0, x1, x0
   820ac:	aa0003e1 	mov	x1, x0
   820b0:	f94023e0 	ldr	x0, [sp, #64]
   820b4:	97fffc6e 	bl	8126c <insert_frame_node>
   820b8:	f94017e0 	ldr	x0, [sp, #40]
   820bc:	f90023e0 	str	x0, [sp, #64]
   820c0:	d0000020 	adrp	x0, 88000 <cmd_list+0x758>
   820c4:	9127e000 	add	x0, x0, #0x9f8
   820c8:	f9400001 	ldr	x1, [x0]
   820cc:	b9804fe0 	ldrsw	x0, [sp, #76]
   820d0:	d37be800 	lsl	x0, x0, #5
   820d4:	8b000020 	add	x0, x1, x0
   820d8:	f94023e1 	ldr	x1, [sp, #64]
   820dc:	eb00003f 	cmp	x1, x0
   820e0:	54fff1c1 	b.ne	81f18 <memory_reserve+0x78>  // b.any
   820e4:	b9404fe0 	ldr	w0, [sp, #76]
   820e8:	51000400 	sub	w0, w0, #0x1
   820ec:	b9004fe0 	str	w0, [sp, #76]
   820f0:	b9404fe0 	ldr	w0, [sp, #76]
   820f4:	7100001f 	cmp	w0, #0x0
   820f8:	54ffefea 	b.ge	81ef4 <memory_reserve+0x54>  // b.tcont
   820fc:	d503201f 	nop
   82100:	d503201f 	nop
   82104:	a8c57bfd 	ldp	x29, x30, [sp], #80
   82108:	d65f03c0 	ret

000000000008210c <do_cmd_exec>:
   8210c:	a9bb7bfd 	stp	x29, x30, [sp, #-80]!
   82110:	910003fd 	mov	x29, sp
   82114:	f9000fe0 	str	x0, [sp, #24]
   82118:	d0000020 	adrp	x0, 88000 <cmd_list+0x758>
   8211c:	91282000 	add	x0, x0, #0xa08
   82120:	f9400000 	ldr	x0, [x0]
   82124:	f90017e0 	str	x0, [sp, #40]
   82128:	14000022 	b	821b0 <do_cmd_exec+0xa4>
   8212c:	f94017e0 	ldr	x0, [sp, #40]
   82130:	9100a3e4 	add	x4, sp, #0x28
   82134:	9100e3e3 	add	x3, sp, #0x38
   82138:	9100d3e2 	add	x2, sp, #0x34
   8213c:	910103e1 	add	x1, sp, #0x40
   82140:	97fff821 	bl	801c4 <cpio_newc_parse_header>
   82144:	b9004fe0 	str	w0, [sp, #76]
   82148:	b9404fe0 	ldr	w0, [sp, #76]
   8214c:	7100001f 	cmp	w0, #0x0
   82150:	540000a0 	b.eq	82164 <do_cmd_exec+0x58>  // b.none
   82154:	90000020 	adrp	x0, 86000 <el1t_irq_invalid+0x74>
   82158:	91188000 	add	x0, x0, #0x620
   8215c:	940009d3 	bl	848a8 <uart_sendline>
   82160:	14000018 	b	821c0 <do_cmd_exec+0xb4>
   82164:	f94023e0 	ldr	x0, [sp, #64]
   82168:	f9400fe1 	ldr	x1, [sp, #24]
   8216c:	94000c7a 	bl	85354 <strcmp>
   82170:	7100001f 	cmp	w0, #0x0
   82174:	54000101 	b.ne	82194 <do_cmd_exec+0x88>  // b.any
   82178:	d0000020 	adrp	x0, 88000 <cmd_list+0x758>
   8217c:	f943fc00 	ldr	x0, [x0, #2040]
   82180:	b900001f 	str	wzr, [x0]
   82184:	f9401fe0 	ldr	x0, [sp, #56]
   82188:	b94037e1 	ldr	w1, [sp, #52]
   8218c:	940007bd 	bl	84080 <thread_exec>
   82190:	1400000c 	b	821c0 <do_cmd_exec+0xb4>
   82194:	f94017e0 	ldr	x0, [sp, #40]
   82198:	f100001f 	cmp	x0, #0x0
   8219c:	540000a1 	b.ne	821b0 <do_cmd_exec+0xa4>  // b.any
   821a0:	f9400fe1 	ldr	x1, [sp, #24]
   821a4:	90000020 	adrp	x0, 86000 <el1t_irq_invalid+0x74>
   821a8:	9118e000 	add	x0, x0, #0x638
   821ac:	940009bf 	bl	848a8 <uart_sendline>
   821b0:	f94017e0 	ldr	x0, [sp, #40]
   821b4:	f100001f 	cmp	x0, #0x0
   821b8:	54fffba1 	b.ne	8212c <do_cmd_exec+0x20>  // b.any
   821bc:	d503201f 	nop
   821c0:	d503201f 	nop
   821c4:	a8c57bfd 	ldp	x29, x30, [sp], #80
   821c8:	d65f03c0 	ret

00000000000821cc <cli_cmd_strcmp>:
   821cc:	d100c3ff 	sub	sp, sp, #0x30
   821d0:	f90007e0 	str	x0, [sp, #8]
   821d4:	f90003e1 	str	x1, [sp]
   821d8:	f94007e0 	ldr	x0, [sp, #8]
   821dc:	f90017e0 	str	x0, [sp, #40]
   821e0:	f94003e0 	ldr	x0, [sp]
   821e4:	f90013e0 	str	x0, [sp, #32]
   821e8:	f94017e0 	ldr	x0, [sp, #40]
   821ec:	91000401 	add	x1, x0, #0x1
   821f0:	f90017e1 	str	x1, [sp, #40]
   821f4:	39400000 	ldrb	w0, [x0]
   821f8:	39007fe0 	strb	w0, [sp, #31]
   821fc:	f94013e0 	ldr	x0, [sp, #32]
   82200:	91000401 	add	x1, x0, #0x1
   82204:	f90013e1 	str	x1, [sp, #32]
   82208:	39400000 	ldrb	w0, [x0]
   8220c:	39007be0 	strb	w0, [sp, #30]
   82210:	39407fe0 	ldrb	w0, [sp, #31]
   82214:	7100001f 	cmp	w0, #0x0
   82218:	540000a1 	b.ne	8222c <cli_cmd_strcmp+0x60>  // b.any
   8221c:	39407fe1 	ldrb	w1, [sp, #31]
   82220:	39407be0 	ldrb	w0, [sp, #30]
   82224:	4b000020 	sub	w0, w1, w0
   82228:	14000008 	b	82248 <cli_cmd_strcmp+0x7c>
   8222c:	39407fe1 	ldrb	w1, [sp, #31]
   82230:	39407be0 	ldrb	w0, [sp, #30]
   82234:	6b00003f 	cmp	w1, w0
   82238:	54fffd80 	b.eq	821e8 <cli_cmd_strcmp+0x1c>  // b.none
   8223c:	39407fe1 	ldrb	w1, [sp, #31]
   82240:	39407be0 	ldrb	w0, [sp, #30]
   82244:	4b000020 	sub	w0, w1, w0
   82248:	9100c3ff 	add	sp, sp, #0x30
   8224c:	d65f03c0 	ret

0000000000082250 <cli_cmd_clear>:
   82250:	d10083ff 	sub	sp, sp, #0x20
   82254:	f90007e0 	str	x0, [sp, #8]
   82258:	b90007e1 	str	w1, [sp, #4]
   8225c:	b9001fff 	str	wzr, [sp, #28]
   82260:	14000008 	b	82280 <cli_cmd_clear+0x30>
   82264:	b9801fe0 	ldrsw	x0, [sp, #28]
   82268:	f94007e1 	ldr	x1, [sp, #8]
   8226c:	8b000020 	add	x0, x1, x0
   82270:	3900001f 	strb	wzr, [x0]
   82274:	b9401fe0 	ldr	w0, [sp, #28]
   82278:	11000400 	add	w0, w0, #0x1
   8227c:	b9001fe0 	str	w0, [sp, #28]
   82280:	b9401fe1 	ldr	w1, [sp, #28]
   82284:	b94007e0 	ldr	w0, [sp, #4]
   82288:	6b00003f 	cmp	w1, w0
   8228c:	54fffecb 	b.lt	82264 <cli_cmd_clear+0x14>  // b.tstop
   82290:	d503201f 	nop
   82294:	d503201f 	nop
   82298:	910083ff 	add	sp, sp, #0x20
   8229c:	d65f03c0 	ret

00000000000822a0 <cli_cmd_read>:
   822a0:	a9bd7bfd 	stp	x29, x30, [sp, #-48]!
   822a4:	910003fd 	mov	x29, sp
   822a8:	f9000fe0 	str	x0, [sp, #24]
   822ac:	b9002fff 	str	wzr, [sp, #44]
   822b0:	94000a37 	bl	84b8c <uart_async_getc>
   822b4:	3900afe0 	strb	w0, [sp, #43]
   822b8:	3940afe0 	ldrb	w0, [sp, #43]
   822bc:	7100281f 	cmp	w0, #0xa
   822c0:	540000c1 	b.ne	822d8 <cli_cmd_read+0x38>  // b.any
   822c4:	b9802fe0 	ldrsw	x0, [sp, #44]
   822c8:	f9400fe1 	ldr	x1, [sp, #24]
   822cc:	8b000020 	add	x0, x1, x0
   822d0:	3900001f 	strb	wzr, [x0]
   822d4:	14000026 	b	8236c <cli_cmd_read+0xcc>
   822d8:	3940afe0 	ldrb	w0, [sp, #43]
   822dc:	71007c1f 	cmp	w0, #0x1f
   822e0:	540001a9 	b.ls	82314 <cli_cmd_read+0x74>  // b.plast
   822e4:	3940afe0 	ldrb	w0, [sp, #43]
   822e8:	7101f81f 	cmp	w0, #0x7e
   822ec:	54000148 	b.hi	82314 <cli_cmd_read+0x74>  // b.pmore
   822f0:	b9402fe0 	ldr	w0, [sp, #44]
   822f4:	11000401 	add	w1, w0, #0x1
   822f8:	b9002fe1 	str	w1, [sp, #44]
   822fc:	93407c00 	sxtw	x0, w0
   82300:	f9400fe1 	ldr	x1, [sp, #24]
   82304:	8b000020 	add	x0, x1, x0
   82308:	3940afe1 	ldrb	w1, [sp, #43]
   8230c:	39000001 	strb	w1, [x0]
   82310:	14000016 	b	82368 <cli_cmd_read+0xc8>
   82314:	3940afe0 	ldrb	w0, [sp, #43]
   82318:	7101fc1f 	cmp	w0, #0x7f
   8231c:	54000241 	b.ne	82364 <cli_cmd_read+0xc4>  // b.any
   82320:	b9402fe0 	ldr	w0, [sp, #44]
   82324:	7100001f 	cmp	w0, #0x0
   82328:	54fffc4d 	b.le	822b0 <cli_cmd_read+0x10>
   8232c:	b9402fe0 	ldr	w0, [sp, #44]
   82330:	51000401 	sub	w1, w0, #0x1
   82334:	b9002fe1 	str	w1, [sp, #44]
   82338:	93407c00 	sxtw	x0, w0
   8233c:	f9400fe1 	ldr	x1, [sp, #24]
   82340:	8b000020 	add	x0, x1, x0
   82344:	3900001f 	strb	wzr, [x0]
   82348:	52800100 	mov	w0, #0x8                   	// #8
   8234c:	94000926 	bl	847e4 <uart_send>
   82350:	52800400 	mov	w0, #0x20                  	// #32
   82354:	94000924 	bl	847e4 <uart_send>
   82358:	52800100 	mov	w0, #0x8                   	// #8
   8235c:	94000922 	bl	847e4 <uart_send>
   82360:	17ffffd4 	b	822b0 <cli_cmd_read+0x10>
   82364:	d503201f 	nop
   82368:	17ffffd2 	b	822b0 <cli_cmd_read+0x10>
   8236c:	d503201f 	nop
   82370:	a8c37bfd 	ldp	x29, x30, [sp], #48
   82374:	d65f03c0 	ret

0000000000082378 <cli_cmd_exec>:
   82378:	a9bc7bfd 	stp	x29, x30, [sp, #-64]!
   8237c:	910003fd 	mov	x29, sp
   82380:	f9000fe0 	str	x0, [sp, #24]
   82384:	f9400fe0 	ldr	x0, [sp, #24]
   82388:	f100001f 	cmp	x0, #0x0
   8238c:	54001420 	b.eq	82610 <cli_cmd_exec+0x298>  // b.none
   82390:	f9400fe0 	ldr	x0, [sp, #24]
   82394:	f9001be0 	str	x0, [sp, #48]
   82398:	f9400fe0 	ldr	x0, [sp, #24]
   8239c:	39400000 	ldrb	w0, [x0]
   823a0:	7100001f 	cmp	w0, #0x0
   823a4:	54000081 	b.ne	823b4 <cli_cmd_exec+0x3c>  // b.any
   823a8:	f9400fe0 	ldr	x0, [sp, #24]
   823ac:	f9001fe0 	str	x0, [sp, #56]
   823b0:	1400000f 	b	823ec <cli_cmd_exec+0x74>
   823b4:	f9400fe0 	ldr	x0, [sp, #24]
   823b8:	39400000 	ldrb	w0, [x0]
   823bc:	7100801f 	cmp	w0, #0x20
   823c0:	540000e1 	b.ne	823dc <cli_cmd_exec+0x64>  // b.any
   823c4:	f9400fe0 	ldr	x0, [sp, #24]
   823c8:	3900001f 	strb	wzr, [x0]
   823cc:	f9400fe0 	ldr	x0, [sp, #24]
   823d0:	91000400 	add	x0, x0, #0x1
   823d4:	f9001fe0 	str	x0, [sp, #56]
   823d8:	14000005 	b	823ec <cli_cmd_exec+0x74>
   823dc:	f9400fe0 	ldr	x0, [sp, #24]
   823e0:	91000400 	add	x0, x0, #0x1
   823e4:	f9000fe0 	str	x0, [sp, #24]
   823e8:	17ffffec 	b	82398 <cli_cmd_exec+0x20>
   823ec:	90000020 	adrp	x0, 86000 <el1t_irq_invalid+0x74>
   823f0:	91198001 	add	x1, x0, #0x660
   823f4:	f9401be0 	ldr	x0, [sp, #48]
   823f8:	94000bd7 	bl	85354 <strcmp>
   823fc:	7100001f 	cmp	w0, #0x0
   82400:	54000081 	b.ne	82410 <cli_cmd_exec+0x98>  // b.any
   82404:	f9401fe0 	ldr	x0, [sp, #56]
   82408:	940000c6 	bl	82720 <do_cmd_cat>
   8240c:	14000082 	b	82614 <cli_cmd_exec+0x29c>
   82410:	90000020 	adrp	x0, 86000 <el1t_irq_invalid+0x74>
   82414:	9119a001 	add	x1, x0, #0x668
   82418:	f9401be0 	ldr	x0, [sp, #48]
   8241c:	94000bce 	bl	85354 <strcmp>
   82420:	7100001f 	cmp	w0, #0x0
   82424:	54000061 	b.ne	82430 <cli_cmd_exec+0xb8>  // b.any
   82428:	940000ef 	bl	827e4 <do_cmd_dtb>
   8242c:	1400007a 	b	82614 <cli_cmd_exec+0x29c>
   82430:	90000020 	adrp	x0, 86000 <el1t_irq_invalid+0x74>
   82434:	9119c001 	add	x1, x0, #0x670
   82438:	f9401be0 	ldr	x0, [sp, #48]
   8243c:	94000bc6 	bl	85354 <strcmp>
   82440:	7100001f 	cmp	w0, #0x0
   82444:	54000061 	b.ne	82450 <cli_cmd_exec+0xd8>  // b.any
   82448:	94000114 	bl	82898 <do_cmd_hello>
   8244c:	14000072 	b	82614 <cli_cmd_exec+0x29c>
   82450:	90000020 	adrp	x0, 86000 <el1t_irq_invalid+0x74>
   82454:	9119e001 	add	x1, x0, #0x678
   82458:	f9401be0 	ldr	x0, [sp, #48]
   8245c:	94000bbe 	bl	85354 <strcmp>
   82460:	7100001f 	cmp	w0, #0x0
   82464:	54000061 	b.ne	82470 <cli_cmd_exec+0xf8>  // b.any
   82468:	940000eb 	bl	82814 <do_cmd_help>
   8246c:	1400006a 	b	82614 <cli_cmd_exec+0x29c>
   82470:	90000020 	adrp	x0, 86000 <el1t_irq_invalid+0x74>
   82474:	911a0001 	add	x1, x0, #0x680
   82478:	f9401be0 	ldr	x0, [sp, #48]
   8247c:	94000bb6 	bl	85354 <strcmp>
   82480:	7100001f 	cmp	w0, #0x0
   82484:	54000061 	b.ne	82490 <cli_cmd_exec+0x118>  // b.any
   82488:	9400010c 	bl	828b8 <do_cmd_info>
   8248c:	14000062 	b	82614 <cli_cmd_exec+0x29c>
   82490:	90000020 	adrp	x0, 86000 <el1t_irq_invalid+0x74>
   82494:	911a2001 	add	x1, x0, #0x688
   82498:	f9401be0 	ldr	x0, [sp, #48]
   8249c:	94000bae 	bl	85354 <strcmp>
   824a0:	7100001f 	cmp	w0, #0x0
   824a4:	54000061 	b.ne	824b0 <cli_cmd_exec+0x138>  // b.any
   824a8:	94000171 	bl	82a6c <do_cmd_simple_malloc>
   824ac:	1400005a 	b	82614 <cli_cmd_exec+0x29c>
   824b0:	90000020 	adrp	x0, 86000 <el1t_irq_invalid+0x74>
   824b4:	911a6001 	add	x1, x0, #0x698
   824b8:	f9401be0 	ldr	x0, [sp, #48]
   824bc:	94000ba6 	bl	85354 <strcmp>
   824c0:	7100001f 	cmp	w0, #0x0
   824c4:	54000081 	b.ne	824d4 <cli_cmd_exec+0x15c>  // b.any
   824c8:	f9401fe0 	ldr	x0, [sp, #56]
   824cc:	94000191 	bl	82b10 <do_cmd_ls>
   824d0:	14000051 	b	82614 <cli_cmd_exec+0x29c>
   824d4:	90000020 	adrp	x0, 86000 <el1t_irq_invalid+0x74>
   824d8:	911a8001 	add	x1, x0, #0x6a0
   824dc:	f9401be0 	ldr	x0, [sp, #48]
   824e0:	94000b9d 	bl	85354 <strcmp>
   824e4:	7100001f 	cmp	w0, #0x0
   824e8:	54000081 	b.ne	824f8 <cli_cmd_exec+0x180>  // b.any
   824ec:	f9401fe0 	ldr	x0, [sp, #56]
   824f0:	97ffff07 	bl	8210c <do_cmd_exec>
   824f4:	14000048 	b	82614 <cli_cmd_exec+0x29c>
   824f8:	90000020 	adrp	x0, 86000 <el1t_irq_invalid+0x74>
   824fc:	911aa001 	add	x1, x0, #0x6a8
   82500:	f9401be0 	ldr	x0, [sp, #48]
   82504:	94000b94 	bl	85354 <strcmp>
   82508:	7100001f 	cmp	w0, #0x0
   8250c:	54000061 	b.ne	82518 <cli_cmd_exec+0x1a0>  // b.any
   82510:	940001a5 	bl	82ba4 <do_cmd_reboot>
   82514:	14000040 	b	82614 <cli_cmd_exec+0x29c>
   82518:	90000020 	adrp	x0, 86000 <el1t_irq_invalid+0x74>
   8251c:	911ac001 	add	x1, x0, #0x6b0
   82520:	f9401be0 	ldr	x0, [sp, #48]
   82524:	94000b8c 	bl	85354 <strcmp>
   82528:	7100001f 	cmp	w0, #0x0
   8252c:	540000a1 	b.ne	82540 <cli_cmd_exec+0x1c8>  // b.any
   82530:	90000020 	adrp	x0, 86000 <el1t_irq_invalid+0x74>
   82534:	911b0000 	add	x0, x0, #0x6c0
   82538:	940001b1 	bl	82bfc <do_cmd_set2sTimer>
   8253c:	14000036 	b	82614 <cli_cmd_exec+0x29c>
   82540:	90000020 	adrp	x0, 86000 <el1t_irq_invalid+0x74>
   82544:	911b4001 	add	x1, x0, #0x6d0
   82548:	f9401be0 	ldr	x0, [sp, #48]
   8254c:	94000b82 	bl	85354 <strcmp>
   82550:	7100001f 	cmp	w0, #0x0
   82554:	54000141 	b.ne	8257c <cli_cmd_exec+0x204>  // b.any
   82558:	f9401fe0 	ldr	x0, [sp, #56]
   8255c:	94000c4f 	bl	85698 <str_SepbySpace>
   82560:	f90017e0 	str	x0, [sp, #40]
   82564:	f94017e0 	ldr	x0, [sp, #40]
   82568:	94000c66 	bl	85700 <atoi>
   8256c:	2a0003e1 	mov	w1, w0
   82570:	f9401fe0 	ldr	x0, [sp, #56]
   82574:	940001bb 	bl	82c60 <do_cmd_setTimer>
   82578:	14000027 	b	82614 <cli_cmd_exec+0x29c>
   8257c:	90000020 	adrp	x0, 86000 <el1t_irq_invalid+0x74>
   82580:	911b8001 	add	x1, x0, #0x6e0
   82584:	f9401be0 	ldr	x0, [sp, #48]
   82588:	94000b73 	bl	85354 <strcmp>
   8258c:	7100001f 	cmp	w0, #0x0
   82590:	54000061 	b.ne	8259c <cli_cmd_exec+0x224>  // b.any
   82594:	94000022 	bl	8261c <do_cmd_testAsyncUart>
   82598:	1400001f 	b	82614 <cli_cmd_exec+0x29c>
   8259c:	90000020 	adrp	x0, 86000 <el1t_irq_invalid+0x74>
   825a0:	911bc001 	add	x1, x0, #0x6f0
   825a4:	f9401be0 	ldr	x0, [sp, #48]
   825a8:	94000b6b 	bl	85354 <strcmp>
   825ac:	7100001f 	cmp	w0, #0x0
   825b0:	54000061 	b.ne	825bc <cli_cmd_exec+0x244>  // b.any
   825b4:	940001bc 	bl	82ca4 <do_cmd_mem_test>
   825b8:	14000017 	b	82614 <cli_cmd_exec+0x29c>
   825bc:	90000020 	adrp	x0, 86000 <el1t_irq_invalid+0x74>
   825c0:	911c0001 	add	x1, x0, #0x700
   825c4:	f9401be0 	ldr	x0, [sp, #48]
   825c8:	94000b63 	bl	85354 <strcmp>
   825cc:	7100001f 	cmp	w0, #0x0
   825d0:	54000061 	b.ne	825dc <cli_cmd_exec+0x264>  // b.any
   825d4:	9400022d 	bl	82e88 <do_cmd_thread_test>
   825d8:	1400000f 	b	82614 <cli_cmd_exec+0x29c>
   825dc:	90000020 	adrp	x0, 86000 <el1t_irq_invalid+0x74>
   825e0:	911c4001 	add	x1, x0, #0x710
   825e4:	f9401be0 	ldr	x0, [sp, #48]
   825e8:	94000b5b 	bl	85354 <strcmp>
   825ec:	7100001f 	cmp	w0, #0x0
   825f0:	54000061 	b.ne	825fc <cli_cmd_exec+0x284>  // b.any
   825f4:	9400023b 	bl	82ee0 <do_cmd_syscall_test>
   825f8:	14000007 	b	82614 <cli_cmd_exec+0x29c>
   825fc:	f9401be1 	ldr	x1, [sp, #48]
   82600:	90000020 	adrp	x0, 86000 <el1t_irq_invalid+0x74>
   82604:	911c8000 	add	x0, x0, #0x720
   82608:	940008a8 	bl	848a8 <uart_sendline>
   8260c:	14000002 	b	82614 <cli_cmd_exec+0x29c>
   82610:	d503201f 	nop
   82614:	a8c47bfd 	ldp	x29, x30, [sp], #64
   82618:	d65f03c0 	ret

000000000008261c <do_cmd_testAsyncUart>:
   8261c:	a9b67bfd 	stp	x29, x30, [sp, #-160]!
   82620:	910003fd 	mov	x29, sp
   82624:	90000020 	adrp	x0, 86000 <el1t_irq_invalid+0x74>
   82628:	911ce000 	add	x0, x0, #0x738
   8262c:	9400089f 	bl	848a8 <uart_sendline>
   82630:	b9009fff 	str	wzr, [sp, #156]
   82634:	1400000d 	b	82668 <do_cmd_testAsyncUart+0x4c>
   82638:	94000955 	bl	84b8c <uart_async_getc>
   8263c:	39025fe0 	strb	w0, [sp, #151]
   82640:	b9409fe0 	ldr	w0, [sp, #156]
   82644:	11000401 	add	w1, w0, #0x1
   82648:	b9009fe1 	str	w1, [sp, #156]
   8264c:	93407c00 	sxtw	x0, w0
   82650:	910043e1 	add	x1, sp, #0x10
   82654:	39425fe2 	ldrb	w2, [sp, #151]
   82658:	38206822 	strb	w2, [x1, x0]
   8265c:	39425fe0 	ldrb	w0, [sp, #151]
   82660:	7100281f 	cmp	w0, #0xa
   82664:	540000a0 	b.eq	82678 <do_cmd_testAsyncUart+0x5c>  // b.none
   82668:	b9409fe0 	ldr	w0, [sp, #156]
   8266c:	7101fc1f 	cmp	w0, #0x7f
   82670:	54fffe4d 	b.le	82638 <do_cmd_testAsyncUart+0x1c>
   82674:	14000002 	b	8267c <do_cmd_testAsyncUart+0x60>
   82678:	d503201f 	nop
   8267c:	394043e0 	ldrb	w0, [sp, #16]
   82680:	7101c41f 	cmp	w0, #0x71
   82684:	54000081 	b.ne	82694 <do_cmd_testAsyncUart+0x78>  // b.any
   82688:	394047e0 	ldrb	w0, [sp, #17]
   8268c:	7100281f 	cmp	w0, #0xa
   82690:	54000260 	b.eq	826dc <do_cmd_testAsyncUart+0xc0>  // b.none
   82694:	b9009bff 	str	wzr, [sp, #152]
   82698:	14000008 	b	826b8 <do_cmd_testAsyncUart+0x9c>
   8269c:	b9809be0 	ldrsw	x0, [sp, #152]
   826a0:	910043e1 	add	x1, sp, #0x10
   826a4:	38606820 	ldrb	w0, [x1, x0]
   826a8:	94000913 	bl	84af4 <uart_async_putc>
   826ac:	b9409be0 	ldr	w0, [sp, #152]
   826b0:	11000400 	add	w0, w0, #0x1
   826b4:	b9009be0 	str	w0, [sp, #152]
   826b8:	b9409be1 	ldr	w1, [sp, #152]
   826bc:	b9409fe0 	ldr	w0, [sp, #156]
   826c0:	6b00003f 	cmp	w1, w0
   826c4:	54fffecb 	b.lt	8269c <do_cmd_testAsyncUart+0x80>  // b.tstop
   826c8:	528001a0 	mov	w0, #0xd                   	// #13
   826cc:	9400090a 	bl	84af4 <uart_async_putc>
   826d0:	52800140 	mov	w0, #0xa                   	// #10
   826d4:	94000908 	bl	84af4 <uart_async_putc>
   826d8:	17ffffd3 	b	82624 <do_cmd_testAsyncUart+0x8>
   826dc:	d503201f 	nop
   826e0:	a8ca7bfd 	ldp	x29, x30, [sp], #160
   826e4:	d65f03c0 	ret

00000000000826e8 <cli_print_banner>:
   826e8:	a9bf7bfd 	stp	x29, x30, [sp, #-16]!
   826ec:	910003fd 	mov	x29, sp
   826f0:	90000020 	adrp	x0, 86000 <el1t_irq_invalid+0x74>
   826f4:	911d4000 	add	x0, x0, #0x750
   826f8:	9400086c 	bl	848a8 <uart_sendline>
   826fc:	90000020 	adrp	x0, 86000 <el1t_irq_invalid+0x74>
   82700:	911e0000 	add	x0, x0, #0x780
   82704:	94000869 	bl	848a8 <uart_sendline>
   82708:	90000020 	adrp	x0, 86000 <el1t_irq_invalid+0x74>
   8270c:	911d4000 	add	x0, x0, #0x750
   82710:	94000866 	bl	848a8 <uart_sendline>
   82714:	d503201f 	nop
   82718:	a8c17bfd 	ldp	x29, x30, [sp], #16
   8271c:	d65f03c0 	ret

0000000000082720 <do_cmd_cat>:
   82720:	a9bb7bfd 	stp	x29, x30, [sp, #-80]!
   82724:	910003fd 	mov	x29, sp
   82728:	f9000fe0 	str	x0, [sp, #24]
   8272c:	d0000020 	adrp	x0, 88000 <cmd_list+0x758>
   82730:	91282000 	add	x0, x0, #0xa08
   82734:	f9400000 	ldr	x0, [x0]
   82738:	f90017e0 	str	x0, [sp, #40]
   8273c:	14000021 	b	827c0 <do_cmd_cat+0xa0>
   82740:	f94017e0 	ldr	x0, [sp, #40]
   82744:	9100a3e4 	add	x4, sp, #0x28
   82748:	9100e3e3 	add	x3, sp, #0x38
   8274c:	9100d3e2 	add	x2, sp, #0x34
   82750:	910103e1 	add	x1, sp, #0x40
   82754:	97fff69c 	bl	801c4 <cpio_newc_parse_header>
   82758:	b9004fe0 	str	w0, [sp, #76]
   8275c:	b9404fe0 	ldr	w0, [sp, #76]
   82760:	7100001f 	cmp	w0, #0x0
   82764:	540000a0 	b.eq	82778 <do_cmd_cat+0x58>  // b.none
   82768:	90000020 	adrp	x0, 86000 <el1t_irq_invalid+0x74>
   8276c:	91188000 	add	x0, x0, #0x620
   82770:	9400084e 	bl	848a8 <uart_sendline>
   82774:	14000016 	b	827cc <do_cmd_cat+0xac>
   82778:	f94023e0 	ldr	x0, [sp, #64]
   8277c:	f9400fe1 	ldr	x1, [sp, #24]
   82780:	94000af5 	bl	85354 <strcmp>
   82784:	7100001f 	cmp	w0, #0x0
   82788:	540000e1 	b.ne	827a4 <do_cmd_cat+0x84>  // b.any
   8278c:	f9401fe0 	ldr	x0, [sp, #56]
   82790:	aa0003e1 	mov	x1, x0
   82794:	90000020 	adrp	x0, 86000 <el1t_irq_invalid+0x74>
   82798:	911ec000 	add	x0, x0, #0x7b0
   8279c:	94000843 	bl	848a8 <uart_sendline>
   827a0:	1400000b 	b	827cc <do_cmd_cat+0xac>
   827a4:	f94017e0 	ldr	x0, [sp, #40]
   827a8:	f100001f 	cmp	x0, #0x0
   827ac:	540000a1 	b.ne	827c0 <do_cmd_cat+0xa0>  // b.any
   827b0:	f9400fe1 	ldr	x1, [sp, #24]
   827b4:	90000020 	adrp	x0, 86000 <el1t_irq_invalid+0x74>
   827b8:	911ee000 	add	x0, x0, #0x7b8
   827bc:	9400083b 	bl	848a8 <uart_sendline>
   827c0:	f94017e0 	ldr	x0, [sp, #40]
   827c4:	f100001f 	cmp	x0, #0x0
   827c8:	54fffbc1 	b.ne	82740 <do_cmd_cat+0x20>  // b.any
   827cc:	90000020 	adrp	x0, 86000 <el1t_irq_invalid+0x74>
   827d0:	911f8000 	add	x0, x0, #0x7e0
   827d4:	94000835 	bl	848a8 <uart_sendline>
   827d8:	d503201f 	nop
   827dc:	a8c57bfd 	ldp	x29, x30, [sp], #80
   827e0:	d65f03c0 	ret

00000000000827e4 <do_cmd_dtb>:
   827e4:	a9bf7bfd 	stp	x29, x30, [sp, #-16]!
   827e8:	910003fd 	mov	x29, sp
   827ec:	d0000020 	adrp	x0, 88000 <cmd_list+0x758>
   827f0:	f9440400 	ldr	x0, [x0, #2056]
   827f4:	f9400002 	ldr	x2, [x0]
   827f8:	d0000020 	adrp	x0, 88000 <cmd_list+0x758>
   827fc:	f9441401 	ldr	x1, [x0, #2088]
   82800:	aa0203e0 	mov	x0, x2
   82804:	97fff717 	bl	80460 <traverse_device_tree>
   82808:	d503201f 	nop
   8280c:	a8c17bfd 	ldp	x29, x30, [sp], #16
   82810:	d65f03c0 	ret

0000000000082814 <do_cmd_help>:
   82814:	a9be7bfd 	stp	x29, x30, [sp, #-32]!
   82818:	910003fd 	mov	x29, sp
   8281c:	b9001fff 	str	wzr, [sp, #28]
   82820:	14000017 	b	8287c <do_cmd_help+0x68>
   82824:	b9801fe0 	ldrsw	x0, [sp, #28]
   82828:	d378dc01 	lsl	x1, x0, #8
   8282c:	b0000020 	adrp	x0, 87000 <load_context+0xc68>
   82830:	9122a000 	add	x0, x0, #0x8a8
   82834:	8b000020 	add	x0, x1, x0
   82838:	9400081c 	bl	848a8 <uart_sendline>
   8283c:	90000020 	adrp	x0, 86000 <el1t_irq_invalid+0x74>
   82840:	911fa000 	add	x0, x0, #0x7e8
   82844:	94000819 	bl	848a8 <uart_sendline>
   82848:	b9801fe0 	ldrsw	x0, [sp, #28]
   8284c:	d378dc00 	lsl	x0, x0, #8
   82850:	91020001 	add	x1, x0, #0x80
   82854:	b0000020 	adrp	x0, 87000 <load_context+0xc68>
   82858:	9122a000 	add	x0, x0, #0x8a8
   8285c:	8b000020 	add	x0, x1, x0
   82860:	94000812 	bl	848a8 <uart_sendline>
   82864:	90000020 	adrp	x0, 86000 <el1t_irq_invalid+0x74>
   82868:	911fc000 	add	x0, x0, #0x7f0
   8286c:	9400080f 	bl	848a8 <uart_sendline>
   82870:	b9401fe0 	ldr	w0, [sp, #28]
   82874:	11000400 	add	w0, w0, #0x1
   82878:	b9001fe0 	str	w0, [sp, #28]
   8287c:	b9401fe0 	ldr	w0, [sp, #28]
   82880:	7100381f 	cmp	w0, #0xe
   82884:	54fffd0d 	b.le	82824 <do_cmd_help+0x10>
   82888:	d503201f 	nop
   8288c:	d503201f 	nop
   82890:	a8c27bfd 	ldp	x29, x30, [sp], #32
   82894:	d65f03c0 	ret

0000000000082898 <do_cmd_hello>:
   82898:	a9bf7bfd 	stp	x29, x30, [sp, #-16]!
   8289c:	910003fd 	mov	x29, sp
   828a0:	90000020 	adrp	x0, 86000 <el1t_irq_invalid+0x74>
   828a4:	911fe000 	add	x0, x0, #0x7f8
   828a8:	94000800 	bl	848a8 <uart_sendline>
   828ac:	d503201f 	nop
   828b0:	a8c17bfd 	ldp	x29, x30, [sp], #16
   828b4:	d65f03c0 	ret

00000000000828b8 <do_cmd_info>:
   828b8:	a9bf7bfd 	stp	x29, x30, [sp, #-16]!
   828bc:	910003fd 	mov	x29, sp
   828c0:	d0000020 	adrp	x0, 88000 <cmd_list+0x758>
   828c4:	f943e000 	ldr	x0, [x0, #1984]
   828c8:	52800401 	mov	w1, #0x20                  	// #32
   828cc:	b9000001 	str	w1, [x0]
   828d0:	d0000020 	adrp	x0, 88000 <cmd_list+0x758>
   828d4:	f943e000 	ldr	x0, [x0, #1984]
   828d8:	b900041f 	str	wzr, [x0, #4]
   828dc:	d0000020 	adrp	x0, 88000 <cmd_list+0x758>
   828e0:	f943e000 	ldr	x0, [x0, #1984]
   828e4:	52800041 	mov	w1, #0x2                   	// #2
   828e8:	72a00021 	movk	w1, #0x1, lsl #16
   828ec:	b9000801 	str	w1, [x0, #8]
   828f0:	d0000020 	adrp	x0, 88000 <cmd_list+0x758>
   828f4:	f943e000 	ldr	x0, [x0, #1984]
   828f8:	52800081 	mov	w1, #0x4                   	// #4
   828fc:	b9000c01 	str	w1, [x0, #12]
   82900:	d0000020 	adrp	x0, 88000 <cmd_list+0x758>
   82904:	f943e000 	ldr	x0, [x0, #1984]
   82908:	b900101f 	str	wzr, [x0, #16]
   8290c:	d0000020 	adrp	x0, 88000 <cmd_list+0x758>
   82910:	f943e000 	ldr	x0, [x0, #1984]
   82914:	b900141f 	str	wzr, [x0, #20]
   82918:	d0000020 	adrp	x0, 88000 <cmd_list+0x758>
   8291c:	f943e000 	ldr	x0, [x0, #1984]
   82920:	b900181f 	str	wzr, [x0, #24]
   82924:	d0000020 	adrp	x0, 88000 <cmd_list+0x758>
   82928:	f943e000 	ldr	x0, [x0, #1984]
   8292c:	b9001c1f 	str	wzr, [x0, #28]
   82930:	d0000020 	adrp	x0, 88000 <cmd_list+0x758>
   82934:	f943e000 	ldr	x0, [x0, #1984]
   82938:	2a0003e1 	mov	w1, w0
   8293c:	52800100 	mov	w0, #0x8                   	// #8
   82940:	97fff9fd 	bl	81134 <k_mbox_call>
   82944:	7100001f 	cmp	w0, #0x0
   82948:	540001e0 	b.eq	82984 <do_cmd_info+0xcc>  // b.none
   8294c:	90000020 	adrp	x0, 86000 <el1t_irq_invalid+0x74>
   82950:	91202000 	add	x0, x0, #0x808
   82954:	940007d5 	bl	848a8 <uart_sendline>
   82958:	d0000020 	adrp	x0, 88000 <cmd_list+0x758>
   8295c:	f943e000 	ldr	x0, [x0, #1984]
   82960:	b9401800 	ldr	w0, [x0, #24]
   82964:	940007b0 	bl	84824 <uart_2hex>
   82968:	d0000020 	adrp	x0, 88000 <cmd_list+0x758>
   8296c:	f943e000 	ldr	x0, [x0, #1984]
   82970:	b9401400 	ldr	w0, [x0, #20]
   82974:	940007ac 	bl	84824 <uart_2hex>
   82978:	90000020 	adrp	x0, 86000 <el1t_irq_invalid+0x74>
   8297c:	911fc000 	add	x0, x0, #0x7f0
   82980:	940007ca 	bl	848a8 <uart_sendline>
   82984:	d0000020 	adrp	x0, 88000 <cmd_list+0x758>
   82988:	f943e000 	ldr	x0, [x0, #1984]
   8298c:	52800401 	mov	w1, #0x20                  	// #32
   82990:	b9000001 	str	w1, [x0]
   82994:	d0000020 	adrp	x0, 88000 <cmd_list+0x758>
   82998:	f943e000 	ldr	x0, [x0, #1984]
   8299c:	b900041f 	str	wzr, [x0, #4]
   829a0:	d0000020 	adrp	x0, 88000 <cmd_list+0x758>
   829a4:	f943e000 	ldr	x0, [x0, #1984]
   829a8:	528000a1 	mov	w1, #0x5                   	// #5
   829ac:	72a00021 	movk	w1, #0x1, lsl #16
   829b0:	b9000801 	str	w1, [x0, #8]
   829b4:	d0000020 	adrp	x0, 88000 <cmd_list+0x758>
   829b8:	f943e000 	ldr	x0, [x0, #1984]
   829bc:	52800101 	mov	w1, #0x8                   	// #8
   829c0:	b9000c01 	str	w1, [x0, #12]
   829c4:	d0000020 	adrp	x0, 88000 <cmd_list+0x758>
   829c8:	f943e000 	ldr	x0, [x0, #1984]
   829cc:	b900101f 	str	wzr, [x0, #16]
   829d0:	d0000020 	adrp	x0, 88000 <cmd_list+0x758>
   829d4:	f943e000 	ldr	x0, [x0, #1984]
   829d8:	b900141f 	str	wzr, [x0, #20]
   829dc:	d0000020 	adrp	x0, 88000 <cmd_list+0x758>
   829e0:	f943e000 	ldr	x0, [x0, #1984]
   829e4:	b900181f 	str	wzr, [x0, #24]
   829e8:	d0000020 	adrp	x0, 88000 <cmd_list+0x758>
   829ec:	f943e000 	ldr	x0, [x0, #1984]
   829f0:	b9001c1f 	str	wzr, [x0, #28]
   829f4:	d0000020 	adrp	x0, 88000 <cmd_list+0x758>
   829f8:	f943e000 	ldr	x0, [x0, #1984]
   829fc:	2a0003e1 	mov	w1, w0
   82a00:	52800100 	mov	w0, #0x8                   	// #8
   82a04:	97fff9cc 	bl	81134 <k_mbox_call>
   82a08:	7100001f 	cmp	w0, #0x0
   82a0c:	540002a0 	b.eq	82a60 <do_cmd_info+0x1a8>  // b.none
   82a10:	90000020 	adrp	x0, 86000 <el1t_irq_invalid+0x74>
   82a14:	91208000 	add	x0, x0, #0x820
   82a18:	940007a4 	bl	848a8 <uart_sendline>
   82a1c:	d0000020 	adrp	x0, 88000 <cmd_list+0x758>
   82a20:	f943e000 	ldr	x0, [x0, #1984]
   82a24:	b9401400 	ldr	w0, [x0, #20]
   82a28:	9400077f 	bl	84824 <uart_2hex>
   82a2c:	90000020 	adrp	x0, 86000 <el1t_irq_invalid+0x74>
   82a30:	911fc000 	add	x0, x0, #0x7f0
   82a34:	9400079d 	bl	848a8 <uart_sendline>
   82a38:	90000020 	adrp	x0, 86000 <el1t_irq_invalid+0x74>
   82a3c:	91210000 	add	x0, x0, #0x840
   82a40:	9400079a 	bl	848a8 <uart_sendline>
   82a44:	d0000020 	adrp	x0, 88000 <cmd_list+0x758>
   82a48:	f943e000 	ldr	x0, [x0, #1984]
   82a4c:	b9401800 	ldr	w0, [x0, #24]
   82a50:	94000775 	bl	84824 <uart_2hex>
   82a54:	90000020 	adrp	x0, 86000 <el1t_irq_invalid+0x74>
   82a58:	911fc000 	add	x0, x0, #0x7f0
   82a5c:	94000793 	bl	848a8 <uart_sendline>
   82a60:	d503201f 	nop
   82a64:	a8c17bfd 	ldp	x29, x30, [sp], #16
   82a68:	d65f03c0 	ret

0000000000082a6c <do_cmd_simple_malloc>:
   82a6c:	a9bd7bfd 	stp	x29, x30, [sp, #-48]!
   82a70:	910003fd 	mov	x29, sp
   82a74:	52800300 	mov	w0, #0x18                  	// #24
   82a78:	97fff9de 	bl	811f0 <simple_malloc>
   82a7c:	f90017e0 	str	x0, [sp, #40]
   82a80:	d28001a2 	mov	x2, #0xd                   	// #13
   82a84:	90000020 	adrp	x0, 86000 <el1t_irq_invalid+0x74>
   82a88:	91216001 	add	x1, x0, #0x858
   82a8c:	f94017e0 	ldr	x0, [sp, #40]
   82a90:	94000adc 	bl	85600 <memcpy>
   82a94:	f94017e1 	ldr	x1, [sp, #40]
   82a98:	90000020 	adrp	x0, 86000 <el1t_irq_invalid+0x74>
   82a9c:	9121a000 	add	x0, x0, #0x868
   82aa0:	94000782 	bl	848a8 <uart_sendline>
   82aa4:	52800400 	mov	w0, #0x20                  	// #32
   82aa8:	97fff9d2 	bl	811f0 <simple_malloc>
   82aac:	f90013e0 	str	x0, [sp, #32]
   82ab0:	d28001a2 	mov	x2, #0xd                   	// #13
   82ab4:	90000020 	adrp	x0, 86000 <el1t_irq_invalid+0x74>
   82ab8:	9121c001 	add	x1, x0, #0x870
   82abc:	f94013e0 	ldr	x0, [sp, #32]
   82ac0:	94000ad0 	bl	85600 <memcpy>
   82ac4:	f94013e1 	ldr	x1, [sp, #32]
   82ac8:	90000020 	adrp	x0, 86000 <el1t_irq_invalid+0x74>
   82acc:	9121a000 	add	x0, x0, #0x868
   82ad0:	94000776 	bl	848a8 <uart_sendline>
   82ad4:	52800500 	mov	w0, #0x28                  	// #40
   82ad8:	97fff9c6 	bl	811f0 <simple_malloc>
   82adc:	f9000fe0 	str	x0, [sp, #24]
   82ae0:	d28001a2 	mov	x2, #0xd                   	// #13
   82ae4:	90000020 	adrp	x0, 86000 <el1t_irq_invalid+0x74>
   82ae8:	91220001 	add	x1, x0, #0x880
   82aec:	f9400fe0 	ldr	x0, [sp, #24]
   82af0:	94000ac4 	bl	85600 <memcpy>
   82af4:	f9400fe1 	ldr	x1, [sp, #24]
   82af8:	90000020 	adrp	x0, 86000 <el1t_irq_invalid+0x74>
   82afc:	9121a000 	add	x0, x0, #0x868
   82b00:	9400076a 	bl	848a8 <uart_sendline>
   82b04:	d503201f 	nop
   82b08:	a8c37bfd 	ldp	x29, x30, [sp], #48
   82b0c:	d65f03c0 	ret

0000000000082b10 <do_cmd_ls>:
   82b10:	a9bb7bfd 	stp	x29, x30, [sp, #-80]!
   82b14:	910003fd 	mov	x29, sp
   82b18:	f9000fe0 	str	x0, [sp, #24]
   82b1c:	d0000020 	adrp	x0, 88000 <cmd_list+0x758>
   82b20:	91282000 	add	x0, x0, #0xa08
   82b24:	f9400000 	ldr	x0, [x0]
   82b28:	f90017e0 	str	x0, [sp, #40]
   82b2c:	14000017 	b	82b88 <do_cmd_ls+0x78>
   82b30:	f94017e0 	ldr	x0, [sp, #40]
   82b34:	9100a3e4 	add	x4, sp, #0x28
   82b38:	9100e3e3 	add	x3, sp, #0x38
   82b3c:	9100d3e2 	add	x2, sp, #0x34
   82b40:	910103e1 	add	x1, sp, #0x40
   82b44:	97fff5a0 	bl	801c4 <cpio_newc_parse_header>
   82b48:	b9004fe0 	str	w0, [sp, #76]
   82b4c:	b9404fe0 	ldr	w0, [sp, #76]
   82b50:	7100001f 	cmp	w0, #0x0
   82b54:	540000a0 	b.eq	82b68 <do_cmd_ls+0x58>  // b.none
   82b58:	90000020 	adrp	x0, 86000 <el1t_irq_invalid+0x74>
   82b5c:	91188000 	add	x0, x0, #0x620
   82b60:	94000752 	bl	848a8 <uart_sendline>
   82b64:	1400000d 	b	82b98 <do_cmd_ls+0x88>
   82b68:	f94017e0 	ldr	x0, [sp, #40]
   82b6c:	f100001f 	cmp	x0, #0x0
   82b70:	540000c0 	b.eq	82b88 <do_cmd_ls+0x78>  // b.none
   82b74:	f94023e0 	ldr	x0, [sp, #64]
   82b78:	aa0003e1 	mov	x1, x0
   82b7c:	90000020 	adrp	x0, 86000 <el1t_irq_invalid+0x74>
   82b80:	9121a000 	add	x0, x0, #0x868
   82b84:	94000749 	bl	848a8 <uart_sendline>
   82b88:	f94017e0 	ldr	x0, [sp, #40]
   82b8c:	f100001f 	cmp	x0, #0x0
   82b90:	54fffd01 	b.ne	82b30 <do_cmd_ls+0x20>  // b.any
   82b94:	d503201f 	nop
   82b98:	d503201f 	nop
   82b9c:	a8c57bfd 	ldp	x29, x30, [sp], #80
   82ba0:	d65f03c0 	ret

0000000000082ba4 <do_cmd_reboot>:
   82ba4:	a9be7bfd 	stp	x29, x30, [sp, #-32]!
   82ba8:	910003fd 	mov	x29, sp
   82bac:	90000020 	adrp	x0, 86000 <el1t_irq_invalid+0x74>
   82bb0:	91224000 	add	x0, x0, #0x890
   82bb4:	9400073d 	bl	848a8 <uart_sendline>
   82bb8:	d2800380 	mov	x0, #0x1c                  	// #28
   82bbc:	f2a7e200 	movk	x0, #0x3f10, lsl #16
   82bc0:	f9000fe0 	str	x0, [sp, #24]
   82bc4:	f9400fe0 	ldr	x0, [sp, #24]
   82bc8:	52800401 	mov	w1, #0x20                  	// #32
   82bcc:	72ab4001 	movk	w1, #0x5a00, lsl #16
   82bd0:	b9000001 	str	w1, [x0]
   82bd4:	d2800480 	mov	x0, #0x24                  	// #36
   82bd8:	f2a7e200 	movk	x0, #0x3f10, lsl #16
   82bdc:	f9000be0 	str	x0, [sp, #16]
   82be0:	f9400be0 	ldr	x0, [sp, #16]
   82be4:	528000a1 	mov	w1, #0x5                   	// #5
   82be8:	72ab4001 	movk	w1, #0x5a00, lsl #16
   82bec:	b9000001 	str	w1, [x0]
   82bf0:	d503201f 	nop
   82bf4:	a8c27bfd 	ldp	x29, x30, [sp], #32
   82bf8:	d65f03c0 	ret

0000000000082bfc <do_cmd_set2sTimer>:
   82bfc:	a9bd7bfd 	stp	x29, x30, [sp, #-48]!
   82c00:	910003fd 	mov	x29, sp
   82c04:	f9000fe0 	str	x0, [sp, #24]
   82c08:	d53be020 	mrs	x0, cntpct_el0
   82c0c:	f90017e0 	str	x0, [sp, #40]
   82c10:	d53be000 	mrs	x0, cntfrq_el0
   82c14:	f90013e0 	str	x0, [sp, #32]
   82c18:	f94017e1 	ldr	x1, [sp, #40]
   82c1c:	f94013e0 	ldr	x0, [sp, #32]
   82c20:	9ac00c20 	sdiv	x0, x1, x0
   82c24:	aa0003e2 	mov	x2, x0
   82c28:	f9400fe1 	ldr	x1, [sp, #24]
   82c2c:	90000020 	adrp	x0, 86000 <el1t_irq_invalid+0x74>
   82c30:	9122c000 	add	x0, x0, #0x8b0
   82c34:	9400071d 	bl	848a8 <uart_sendline>
   82c38:	94000666 	bl	845d0 <getTimerFreq>
   82c3c:	d37ff800 	lsl	x0, x0, #1
   82c40:	aa0003e2 	mov	x2, x0
   82c44:	f9400fe1 	ldr	x1, [sp, #24]
   82c48:	90000000 	adrp	x0, 82000 <memory_reserve+0x160>
   82c4c:	912ff000 	add	x0, x0, #0xbfc
   82c50:	940005f1 	bl	84414 <add_timer>
   82c54:	d503201f 	nop
   82c58:	a8c37bfd 	ldp	x29, x30, [sp], #48
   82c5c:	d65f03c0 	ret

0000000000082c60 <do_cmd_setTimer>:
   82c60:	a9bd7bfd 	stp	x29, x30, [sp, #-48]!
   82c64:	910003fd 	mov	x29, sp
   82c68:	f9000bf3 	str	x19, [sp, #16]
   82c6c:	f90017e0 	str	x0, [sp, #40]
   82c70:	b90027e1 	str	w1, [sp, #36]
   82c74:	b98027f3 	ldrsw	x19, [sp, #36]
   82c78:	94000656 	bl	845d0 <getTimerFreq>
   82c7c:	9b007e60 	mul	x0, x19, x0
   82c80:	aa0003e2 	mov	x2, x0
   82c84:	f94017e1 	ldr	x1, [sp, #40]
   82c88:	d0000020 	adrp	x0, 88000 <cmd_list+0x758>
   82c8c:	f943e400 	ldr	x0, [x0, #1992]
   82c90:	940005e1 	bl	84414 <add_timer>
   82c94:	d503201f 	nop
   82c98:	f9400bf3 	ldr	x19, [sp, #16]
   82c9c:	a8c37bfd 	ldp	x29, x30, [sp], #48
   82ca0:	d65f03c0 	ret

0000000000082ca4 <do_cmd_mem_test>:
   82ca4:	a9b57bfd 	stp	x29, x30, [sp, #-176]!
   82ca8:	910003fd 	mov	x29, sp
   82cac:	52840000 	mov	w0, #0x2000                	// #8192
   82cb0:	72a00100 	movk	w0, #0x8, lsl #16
   82cb4:	97fffc54 	bl	81e04 <kmalloc>
   82cb8:	f90057e0 	str	x0, [sp, #168]
   82cbc:	52a00120 	mov	w0, #0x90000               	// #589824
   82cc0:	97fffc51 	bl	81e04 <kmalloc>
   82cc4:	f90053e0 	str	x0, [sp, #160]
   82cc8:	52a00400 	mov	w0, #0x200000              	// #2097152
   82ccc:	97fffc4e 	bl	81e04 <kmalloc>
   82cd0:	f9004fe0 	str	x0, [sp, #152]
   82cd4:	52a00720 	mov	w0, #0x390000              	// #3735552
   82cd8:	97fffc4b 	bl	81e04 <kmalloc>
   82cdc:	f9004be0 	str	x0, [sp, #144]
   82ce0:	f9404fe0 	ldr	x0, [sp, #152]
   82ce4:	97fffc58 	bl	81e44 <kfree>
   82ce8:	f9404be0 	ldr	x0, [sp, #144]
   82cec:	97fffc56 	bl	81e44 <kfree>
   82cf0:	f94057e0 	ldr	x0, [sp, #168]
   82cf4:	97fffc54 	bl	81e44 <kfree>
   82cf8:	f94053e0 	ldr	x0, [sp, #160]
   82cfc:	97fffc52 	bl	81e44 <kfree>
   82d00:	52820000 	mov	w0, #0x1000                	// #4096
   82d04:	97fffc40 	bl	81e04 <kmalloc>
   82d08:	f90047e0 	str	x0, [sp, #136]
   82d0c:	52a00020 	mov	w0, #0x10000               	// #65536
   82d10:	97fffc3d 	bl	81e04 <kmalloc>
   82d14:	f90043e0 	str	x0, [sp, #128]
   82d18:	52a00200 	mov	w0, #0x100000              	// #1048576
   82d1c:	97fffc3a 	bl	81e04 <kmalloc>
   82d20:	f9003fe0 	str	x0, [sp, #120]
   82d24:	f94047e0 	ldr	x0, [sp, #136]
   82d28:	97fffc47 	bl	81e44 <kfree>
   82d2c:	f94043e0 	ldr	x0, [sp, #128]
   82d30:	97fffc45 	bl	81e44 <kfree>
   82d34:	f9403fe0 	ldr	x0, [sp, #120]
   82d38:	97fffc43 	bl	81e44 <kfree>
   82d3c:	52800400 	mov	w0, #0x20                  	// #32
   82d40:	97fffc31 	bl	81e04 <kmalloc>
   82d44:	f90047e0 	str	x0, [sp, #136]
   82d48:	52800640 	mov	w0, #0x32                  	// #50
   82d4c:	97fffc2e 	bl	81e04 <kmalloc>
   82d50:	f9003be0 	str	x0, [sp, #112]
   82d54:	52800800 	mov	w0, #0x40                  	// #64
   82d58:	97fffc2b 	bl	81e04 <kmalloc>
   82d5c:	f90043e0 	str	x0, [sp, #128]
   82d60:	52800800 	mov	w0, #0x40                  	// #64
   82d64:	97fffc28 	bl	81e04 <kmalloc>
   82d68:	f90037e0 	str	x0, [sp, #104]
   82d6c:	52801000 	mov	w0, #0x80                  	// #128
   82d70:	97fffc25 	bl	81e04 <kmalloc>
   82d74:	f9003fe0 	str	x0, [sp, #120]
   82d78:	52801020 	mov	w0, #0x81                  	// #129
   82d7c:	97fffc22 	bl	81e04 <kmalloc>
   82d80:	f90033e0 	str	x0, [sp, #96]
   82d84:	52802000 	mov	w0, #0x100                 	// #256
   82d88:	97fffc1f 	bl	81e04 <kmalloc>
   82d8c:	f9002fe0 	str	x0, [sp, #88]
   82d90:	52802000 	mov	w0, #0x100                 	// #256
   82d94:	97fffc1c 	bl	81e04 <kmalloc>
   82d98:	f9002be0 	str	x0, [sp, #80]
   82d9c:	52804000 	mov	w0, #0x200                 	// #512
   82da0:	97fffc19 	bl	81e04 <kmalloc>
   82da4:	f90027e0 	str	x0, [sp, #72]
   82da8:	52807ce0 	mov	w0, #0x3e7                 	// #999
   82dac:	97fffc16 	bl	81e04 <kmalloc>
   82db0:	f90023e0 	str	x0, [sp, #64]
   82db4:	52840000 	mov	w0, #0x2000                	// #8192
   82db8:	97fffc13 	bl	81e04 <kmalloc>
   82dbc:	f9001fe0 	str	x0, [sp, #56]
   82dc0:	52840000 	mov	w0, #0x2000                	// #8192
   82dc4:	97fffc10 	bl	81e04 <kmalloc>
   82dc8:	f9001be0 	str	x0, [sp, #48]
   82dcc:	52840000 	mov	w0, #0x2000                	// #8192
   82dd0:	97fffc0d 	bl	81e04 <kmalloc>
   82dd4:	f90017e0 	str	x0, [sp, #40]
   82dd8:	52840000 	mov	w0, #0x2000                	// #8192
   82ddc:	97fffc0a 	bl	81e04 <kmalloc>
   82de0:	f90013e0 	str	x0, [sp, #32]
   82de4:	52840000 	mov	w0, #0x2000                	// #8192
   82de8:	97fffc07 	bl	81e04 <kmalloc>
   82dec:	f9000fe0 	str	x0, [sp, #24]
   82df0:	52840000 	mov	w0, #0x2000                	// #8192
   82df4:	97fffc04 	bl	81e04 <kmalloc>
   82df8:	f9000be0 	str	x0, [sp, #16]
   82dfc:	f94047e0 	ldr	x0, [sp, #136]
   82e00:	97fffc11 	bl	81e44 <kfree>
   82e04:	f9403be0 	ldr	x0, [sp, #112]
   82e08:	97fffc0f 	bl	81e44 <kfree>
   82e0c:	f94043e0 	ldr	x0, [sp, #128]
   82e10:	97fffc0d 	bl	81e44 <kfree>
   82e14:	f94037e0 	ldr	x0, [sp, #104]
   82e18:	97fffc0b 	bl	81e44 <kfree>
   82e1c:	f9403fe0 	ldr	x0, [sp, #120]
   82e20:	97fffc09 	bl	81e44 <kfree>
   82e24:	f94033e0 	ldr	x0, [sp, #96]
   82e28:	97fffc07 	bl	81e44 <kfree>
   82e2c:	f9402be0 	ldr	x0, [sp, #80]
   82e30:	97fffc05 	bl	81e44 <kfree>
   82e34:	f9402fe0 	ldr	x0, [sp, #88]
   82e38:	97fffc03 	bl	81e44 <kfree>
   82e3c:	f94027e0 	ldr	x0, [sp, #72]
   82e40:	97fffc01 	bl	81e44 <kfree>
   82e44:	f94023e0 	ldr	x0, [sp, #64]
   82e48:	97fffbff 	bl	81e44 <kfree>
   82e4c:	f9401fe0 	ldr	x0, [sp, #56]
   82e50:	97fffbfd 	bl	81e44 <kfree>
   82e54:	f9401be0 	ldr	x0, [sp, #48]
   82e58:	97fffbfb 	bl	81e44 <kfree>
   82e5c:	f94017e0 	ldr	x0, [sp, #40]
   82e60:	97fffbf9 	bl	81e44 <kfree>
   82e64:	f94013e0 	ldr	x0, [sp, #32]
   82e68:	97fffbf7 	bl	81e44 <kfree>
   82e6c:	f9400fe0 	ldr	x0, [sp, #24]
   82e70:	97fffbf5 	bl	81e44 <kfree>
   82e74:	f9400be0 	ldr	x0, [sp, #16]
   82e78:	97fffbf3 	bl	81e44 <kfree>
   82e7c:	d503201f 	nop
   82e80:	a8cb7bfd 	ldp	x29, x30, [sp], #176
   82e84:	d65f03c0 	ret

0000000000082e88 <do_cmd_thread_test>:
   82e88:	a9be7bfd 	stp	x29, x30, [sp, #-32]!
   82e8c:	910003fd 	mov	x29, sp
   82e90:	b9001fff 	str	wzr, [sp, #28]
   82e94:	1400000c 	b	82ec4 <do_cmd_thread_test+0x3c>
   82e98:	d0000020 	adrp	x0, 88000 <cmd_list+0x758>
   82e9c:	f9440800 	ldr	x0, [x0, #2064]
   82ea0:	9400039a 	bl	83d08 <thread_create>
   82ea4:	b9407800 	ldr	w0, [x0, #120]
   82ea8:	2a0003e1 	mov	w1, w0
   82eac:	90000020 	adrp	x0, 86000 <el1t_irq_invalid+0x74>
   82eb0:	9123a000 	add	x0, x0, #0x8e8
   82eb4:	9400067d 	bl	848a8 <uart_sendline>
   82eb8:	b9401fe0 	ldr	w0, [sp, #28]
   82ebc:	11000400 	add	w0, w0, #0x1
   82ec0:	b9001fe0 	str	w0, [sp, #28]
   82ec4:	b9401fe0 	ldr	w0, [sp, #28]
   82ec8:	7100101f 	cmp	w0, #0x4
   82ecc:	54fffe6d 	b.le	82e98 <do_cmd_thread_test+0x10>
   82ed0:	9400042d 	bl	83f84 <idle>
   82ed4:	d503201f 	nop
   82ed8:	a8c27bfd 	ldp	x29, x30, [sp], #32
   82edc:	d65f03c0 	ret

0000000000082ee0 <do_cmd_syscall_test>:
   82ee0:	a9bf7bfd 	stp	x29, x30, [sp, #-16]!
   82ee4:	910003fd 	mov	x29, sp
   82ee8:	b0000000 	adrp	x0, 83000 <test_mbox_call+0x2c>
   82eec:	9100d000 	add	x0, x0, #0x34
   82ef0:	94000386 	bl	83d08 <thread_create>
   82ef4:	94000424 	bl	83f84 <idle>
   82ef8:	d503201f 	nop
   82efc:	a8c17bfd 	ldp	x29, x30, [sp], #16
   82f00:	d65f03c0 	ret

0000000000082f04 <test_getpid>:
   82f04:	d10043ff 	sub	sp, sp, #0x10
   82f08:	b9000fff 	str	wzr, [sp, #12]
   82f0c:	d2800008 	mov	x8, #0x0                   	// #0
   82f10:	d4000001 	svc	#0x0
   82f14:	aa0003e0 	mov	x0, x0
   82f18:	b9000fe0 	str	w0, [sp, #12]
   82f1c:	b9400fe0 	ldr	w0, [sp, #12]
   82f20:	910043ff 	add	sp, sp, #0x10
   82f24:	d65f03c0 	ret

0000000000082f28 <test_uart_read>:
   82f28:	d10083ff 	sub	sp, sp, #0x20
   82f2c:	f90007e0 	str	x0, [sp, #8]
   82f30:	f90003e1 	str	x1, [sp]
   82f34:	b9001fff 	str	wzr, [sp, #28]
   82f38:	f94003e0 	ldr	x0, [sp]
   82f3c:	aa0003e1 	mov	x1, x0
   82f40:	f94007e0 	ldr	x0, [sp, #8]
   82f44:	aa0003e0 	mov	x0, x0
   82f48:	d2800028 	mov	x8, #0x1                   	// #1
   82f4c:	d4000001 	svc	#0x0
   82f50:	aa0003e0 	mov	x0, x0
   82f54:	b9001fe0 	str	w0, [sp, #28]
   82f58:	b9801fe0 	ldrsw	x0, [sp, #28]
   82f5c:	910083ff 	add	sp, sp, #0x20
   82f60:	d65f03c0 	ret

0000000000082f64 <test_uart_write>:
   82f64:	d10083ff 	sub	sp, sp, #0x20
   82f68:	f90007e0 	str	x0, [sp, #8]
   82f6c:	f90003e1 	str	x1, [sp]
   82f70:	b9001fff 	str	wzr, [sp, #28]
   82f74:	f94003e0 	ldr	x0, [sp]
   82f78:	aa0003e1 	mov	x1, x0
   82f7c:	f94007e0 	ldr	x0, [sp, #8]
   82f80:	aa0003e0 	mov	x0, x0
   82f84:	d2800048 	mov	x8, #0x2                   	// #2
   82f88:	d4000001 	svc	#0x0
   82f8c:	aa0003e0 	mov	x0, x0
   82f90:	b9001fe0 	str	w0, [sp, #28]
   82f94:	b9801fe0 	ldrsw	x0, [sp, #28]
   82f98:	910083ff 	add	sp, sp, #0x20
   82f9c:	d65f03c0 	ret

0000000000082fa0 <test_fork>:
   82fa0:	d10043ff 	sub	sp, sp, #0x10
   82fa4:	b9000fff 	str	wzr, [sp, #12]
   82fa8:	d2800088 	mov	x8, #0x4                   	// #4
   82fac:	d4000001 	svc	#0x0
   82fb0:	aa0003e0 	mov	x0, x0
   82fb4:	b9000fe0 	str	w0, [sp, #12]
   82fb8:	b9400fe0 	ldr	w0, [sp, #12]
   82fbc:	910043ff 	add	sp, sp, #0x10
   82fc0:	d65f03c0 	ret

0000000000082fc4 <test_exit>:
   82fc4:	d28000a8 	mov	x8, #0x5                   	// #5
   82fc8:	d4000001 	svc	#0x0
   82fcc:	d503201f 	nop
   82fd0:	d65f03c0 	ret

0000000000082fd4 <test_mbox_call>:
   82fd4:	d10083ff 	sub	sp, sp, #0x20
   82fd8:	39003fe0 	strb	w0, [sp, #15]
   82fdc:	f90003e1 	str	x1, [sp]
   82fe0:	b9001fff 	str	wzr, [sp, #28]
   82fe4:	f94003e0 	ldr	x0, [sp]
   82fe8:	aa0003e1 	mov	x1, x0
   82fec:	39403fe0 	ldrb	w0, [sp, #15]
   82ff0:	aa0003e0 	mov	x0, x0
   82ff4:	d28000c8 	mov	x8, #0x6                   	// #6
   82ff8:	d4000001 	svc	#0x0
   82ffc:	aa0003e0 	mov	x0, x0
   83000:	b9001fe0 	str	w0, [sp, #28]
   83004:	b9401fe0 	ldr	w0, [sp, #28]
   83008:	910083ff 	add	sp, sp, #0x20
   8300c:	d65f03c0 	ret

0000000000083010 <test_kill>:
   83010:	d10043ff 	sub	sp, sp, #0x10
   83014:	b9000fe0 	str	w0, [sp, #12]
   83018:	b9400fe0 	ldr	w0, [sp, #12]
   8301c:	aa0003e0 	mov	x0, x0
   83020:	d28000e8 	mov	x8, #0x7                   	// #7
   83024:	d4000001 	svc	#0x0
   83028:	d503201f 	nop
   8302c:	910043ff 	add	sp, sp, #0x10
   83030:	d65f03c0 	ret

0000000000083034 <fork_test>:
   83034:	a9b57bfd 	stp	x29, x30, [sp, #-176]!
   83038:	910003fd 	mov	x29, sp
   8303c:	94000ccc 	bl	8636c <get_current>
   83040:	940003aa 	bl	83ee8 <from_el1_to_el0>
   83044:	f0000000 	adrp	x0, 86000 <el1t_irq_invalid+0x74>
   83048:	9123e000 	add	x0, x0, #0x8f8
   8304c:	94000617 	bl	848a8 <uart_sendline>
   83050:	910083e0 	add	x0, sp, #0x20
   83054:	d28000a1 	mov	x1, #0x5                   	// #5
   83058:	97ffffb4 	bl	82f28 <test_uart_read>
   8305c:	910083e0 	add	x0, sp, #0x20
   83060:	d2801001 	mov	x1, #0x80                  	// #128
   83064:	97ffffc0 	bl	82f64 <test_uart_write>
   83068:	97ffffa7 	bl	82f04 <test_getpid>
   8306c:	2a0003e1 	mov	w1, w0
   83070:	f0000000 	adrp	x0, 86000 <el1t_irq_invalid+0x74>
   83074:	91242000 	add	x0, x0, #0x908
   83078:	9400060c 	bl	848a8 <uart_sendline>
   8307c:	52800020 	mov	w0, #0x1                   	// #1
   83080:	b9001fe0 	str	w0, [sp, #28]
   83084:	52807ce0 	mov	w0, #0x3e7                 	// #999
   83088:	b900abe0 	str	w0, [sp, #168]
   8308c:	97ffffc5 	bl	82fa0 <test_fork>
   83090:	b900abe0 	str	w0, [sp, #168]
   83094:	b940abe0 	ldr	w0, [sp, #168]
   83098:	7100001f 	cmp	w0, #0x0
   8309c:	54000861 	b.ne	831a8 <fork_test+0x174>  // b.any
   830a0:	910003e0 	mov	x0, sp
   830a4:	f90053e0 	str	x0, [sp, #160]
   830a8:	97ffff97 	bl	82f04 <test_getpid>
   830ac:	2a0003e5 	mov	w5, w0
   830b0:	b9401fe0 	ldr	w0, [sp, #28]
   830b4:	910073e1 	add	x1, sp, #0x1c
   830b8:	f94053e4 	ldr	x4, [sp, #160]
   830bc:	aa0103e3 	mov	x3, x1
   830c0:	2a0003e2 	mov	w2, w0
   830c4:	2a0503e1 	mov	w1, w5
   830c8:	f0000000 	adrp	x0, 86000 <el1t_irq_invalid+0x74>
   830cc:	91248000 	add	x0, x0, #0x920
   830d0:	940005f6 	bl	848a8 <uart_sendline>
   830d4:	b9401fe0 	ldr	w0, [sp, #28]
   830d8:	11000400 	add	w0, w0, #0x1
   830dc:	b9001fe0 	str	w0, [sp, #28]
   830e0:	97ffffb0 	bl	82fa0 <test_fork>
   830e4:	b900abe0 	str	w0, [sp, #168]
   830e8:	b940abe0 	ldr	w0, [sp, #168]
   830ec:	7100001f 	cmp	w0, #0x0
   830f0:	54000540 	b.eq	83198 <fork_test+0x164>  // b.none
   830f4:	910003e0 	mov	x0, sp
   830f8:	f90053e0 	str	x0, [sp, #160]
   830fc:	97ffff82 	bl	82f04 <test_getpid>
   83100:	2a0003e5 	mov	w5, w0
   83104:	b9401fe0 	ldr	w0, [sp, #28]
   83108:	910073e1 	add	x1, sp, #0x1c
   8310c:	f94053e4 	ldr	x4, [sp, #160]
   83110:	aa0103e3 	mov	x3, x1
   83114:	2a0003e2 	mov	w2, w0
   83118:	2a0503e1 	mov	w1, w5
   8311c:	f0000000 	adrp	x0, 86000 <el1t_irq_invalid+0x74>
   83120:	91248000 	add	x0, x0, #0x920
   83124:	940005e1 	bl	848a8 <uart_sendline>
   83128:	14000026 	b	831c0 <fork_test+0x18c>
   8312c:	910003e0 	mov	x0, sp
   83130:	f90053e0 	str	x0, [sp, #160]
   83134:	97ffff74 	bl	82f04 <test_getpid>
   83138:	2a0003e5 	mov	w5, w0
   8313c:	b9401fe0 	ldr	w0, [sp, #28]
   83140:	910073e1 	add	x1, sp, #0x1c
   83144:	f94053e4 	ldr	x4, [sp, #160]
   83148:	aa0103e3 	mov	x3, x1
   8314c:	2a0003e2 	mov	w2, w0
   83150:	2a0503e1 	mov	w1, w5
   83154:	f0000000 	adrp	x0, 86000 <el1t_irq_invalid+0x74>
   83158:	91254000 	add	x0, x0, #0x950
   8315c:	940005d3 	bl	848a8 <uart_sendline>
   83160:	b900afff 	str	wzr, [sp, #172]
   83164:	14000005 	b	83178 <fork_test+0x144>
   83168:	d503201f 	nop
   8316c:	b940afe0 	ldr	w0, [sp, #172]
   83170:	11000400 	add	w0, w0, #0x1
   83174:	b900afe0 	str	w0, [sp, #172]
   83178:	b940afe1 	ldr	w1, [sp, #172]
   8317c:	528847e0 	mov	w0, #0x423f                	// #16959
   83180:	72a001e0 	movk	w0, #0xf, lsl #16
   83184:	6b00003f 	cmp	w1, w0
   83188:	54ffff0d 	b.le	83168 <fork_test+0x134>
   8318c:	b9401fe0 	ldr	w0, [sp, #28]
   83190:	11000400 	add	w0, w0, #0x1
   83194:	b9001fe0 	str	w0, [sp, #28]
   83198:	b9401fe0 	ldr	w0, [sp, #28]
   8319c:	7100101f 	cmp	w0, #0x4
   831a0:	54fffc6d 	b.le	8312c <fork_test+0xf8>
   831a4:	14000007 	b	831c0 <fork_test+0x18c>
   831a8:	97ffff57 	bl	82f04 <test_getpid>
   831ac:	b940abe2 	ldr	w2, [sp, #168]
   831b0:	2a0003e1 	mov	w1, w0
   831b4:	f0000000 	adrp	x0, 86000 <el1t_irq_invalid+0x74>
   831b8:	91262000 	add	x0, x0, #0x988
   831bc:	940005bb 	bl	848a8 <uart_sendline>
   831c0:	97ffff81 	bl	82fc4 <test_exit>
   831c4:	d503201f 	nop
   831c8:	a8cb7bfd 	ldp	x29, x30, [sp], #176
   831cc:	d65f03c0 	ret

00000000000831d0 <signal_default_handler>:
   831d0:	a9bf7bfd 	stp	x29, x30, [sp, #-16]!
   831d4:	910003fd 	mov	x29, sp
   831d8:	94000c65 	bl	8636c <get_current>
   831dc:	b9407800 	ldr	w0, [x0, #120]
   831e0:	2a0003e1 	mov	w1, w0
   831e4:	d2800000 	mov	x0, #0x0                   	// #0
   831e8:	940001a1 	bl	8386c <kill>
   831ec:	d503201f 	nop
   831f0:	a8c17bfd 	ldp	x29, x30, [sp], #16
   831f4:	d65f03c0 	ret

00000000000831f8 <check_signal>:
   831f8:	a9bd7bfd 	stp	x29, x30, [sp, #-48]!
   831fc:	910003fd 	mov	x29, sp
   83200:	f9000fe0 	str	x0, [sp, #24]
   83204:	94000c5a 	bl	8636c <get_current>
   83208:	b943c000 	ldr	w0, [x0, #960]
   8320c:	7100001f 	cmp	w0, #0x0
   83210:	54000621 	b.ne	832d4 <check_signal+0xdc>  // b.any
   83214:	97fff5f9 	bl	809f8 <lock>
   83218:	94000c55 	bl	8636c <get_current>
   8321c:	aa0003e1 	mov	x1, x0
   83220:	52800020 	mov	w0, #0x1                   	// #1
   83224:	b903c020 	str	w0, [x1, #960]
   83228:	97fff601 	bl	80a2c <unlock>
   8322c:	b9002fff 	str	wzr, [sp, #44]
   83230:	14000021 	b	832b4 <check_signal+0xbc>
   83234:	94000c4e 	bl	8636c <get_current>
   83238:	910f2000 	add	x0, x0, #0x3c8
   8323c:	94000c4e 	bl	86374 <store_context>
   83240:	94000c4b 	bl	8636c <get_current>
   83244:	aa0003e1 	mov	x1, x0
   83248:	b9802fe0 	ldrsw	x0, [sp, #44]
   8324c:	9100a000 	add	x0, x0, #0x28
   83250:	d37ef400 	lsl	x0, x0, #2
   83254:	8b000020 	add	x0, x1, x0
   83258:	b9400800 	ldr	w0, [x0, #8]
   8325c:	7100001f 	cmp	w0, #0x0
   83260:	5400024d 	b.le	832a8 <check_signal+0xb0>
   83264:	97fff5e5 	bl	809f8 <lock>
   83268:	94000c41 	bl	8636c <get_current>
   8326c:	b9802fe1 	ldrsw	x1, [sp, #44]
   83270:	9100a021 	add	x1, x1, #0x28
   83274:	d37ef421 	lsl	x1, x1, #2
   83278:	8b010001 	add	x1, x0, x1
   8327c:	b9400821 	ldr	w1, [x1, #8]
   83280:	51000421 	sub	w1, w1, #0x1
   83284:	b9802fe2 	ldrsw	x2, [sp, #44]
   83288:	9100a042 	add	x2, x2, #0x28
   8328c:	d37ef442 	lsl	x2, x2, #2
   83290:	8b020000 	add	x0, x0, x2
   83294:	b9000801 	str	w1, [x0, #8]
   83298:	97fff5e5 	bl	80a2c <unlock>
   8329c:	b9402fe1 	ldr	w1, [sp, #44]
   832a0:	f9400fe0 	ldr	x0, [sp, #24]
   832a4:	9400000f 	bl	832e0 <run_signal>
   832a8:	b9402fe0 	ldr	w0, [sp, #44]
   832ac:	11000400 	add	w0, w0, #0x1
   832b0:	b9002fe0 	str	w0, [sp, #44]
   832b4:	b9402fe0 	ldr	w0, [sp, #44]
   832b8:	7101001f 	cmp	w0, #0x40
   832bc:	54fffbcd 	b.le	83234 <check_signal+0x3c>
   832c0:	97fff5ce 	bl	809f8 <lock>
   832c4:	94000c2a 	bl	8636c <get_current>
   832c8:	b903c01f 	str	wzr, [x0, #960]
   832cc:	97fff5d8 	bl	80a2c <unlock>
   832d0:	14000002 	b	832d8 <check_signal+0xe0>
   832d4:	d503201f 	nop
   832d8:	a8c37bfd 	ldp	x29, x30, [sp], #48
   832dc:	d65f03c0 	ret

00000000000832e0 <run_signal>:
   832e0:	a9bc7bfd 	stp	x29, x30, [sp, #-64]!
   832e4:	910003fd 	mov	x29, sp
   832e8:	f9000bf3 	str	x19, [sp, #16]
   832ec:	f90017e0 	str	x0, [sp, #40]
   832f0:	b90027e1 	str	w1, [sp, #36]
   832f4:	94000c1e 	bl	8636c <get_current>
   832f8:	aa0003f3 	mov	x19, x0
   832fc:	94000c1c 	bl	8636c <get_current>
   83300:	aa0003e1 	mov	x1, x0
   83304:	b98027e0 	ldrsw	x0, [sp, #36]
   83308:	9100d800 	add	x0, x0, #0x36
   8330c:	f8607a60 	ldr	x0, [x19, x0, lsl #3]
   83310:	f901dc20 	str	x0, [x1, #952]
   83314:	94000c16 	bl	8636c <get_current>
   83318:	f941dc01 	ldr	x1, [x0, #952]
   8331c:	90000000 	adrp	x0, 83000 <test_mbox_call+0x2c>
   83320:	91074000 	add	x0, x0, #0x1d0
   83324:	eb00003f 	cmp	x1, x0
   83328:	54000061 	b.ne	83334 <run_signal+0x54>  // b.any
   8332c:	97ffffa9 	bl	831d0 <signal_default_handler>
   83330:	1400000e 	b	83368 <run_signal+0x88>
   83334:	52820000 	mov	w0, #0x1000                	// #4096
   83338:	97fffab3 	bl	81e04 <kmalloc>
   8333c:	f9001fe0 	str	x0, [sp, #56]
   83340:	90000000 	adrp	x0, 83000 <test_mbox_call+0x2c>
   83344:	910dd000 	add	x0, x0, #0x374
   83348:	d5184020 	msr	elr_el1, x0
   8334c:	f9401fe0 	ldr	x0, [sp, #56]
   83350:	91400400 	add	x0, x0, #0x1, lsl #12
   83354:	d5184100 	msr	sp_el0, x0
   83358:	f94017e0 	ldr	x0, [sp, #40]
   8335c:	f9407c00 	ldr	x0, [x0, #248]
   83360:	d5184000 	msr	spsr_el1, x0
   83364:	d69f03e0 	eret
   83368:	f9400bf3 	ldr	x19, [sp, #16]
   8336c:	a8c47bfd 	ldp	x29, x30, [sp], #64
   83370:	d65f03c0 	ret

0000000000083374 <signal_handler_wrapper>:
   83374:	a9bf7bfd 	stp	x29, x30, [sp, #-16]!
   83378:	910003fd 	mov	x29, sp
   8337c:	94000bfc 	bl	8636c <get_current>
   83380:	f941dc00 	ldr	x0, [x0, #952]
   83384:	d63f0000 	blr	x0
   83388:	d2800c68 	mov	x8, #0x63                  	// #99
   8338c:	d4000001 	svc	#0x0
   83390:	d503201f 	nop
   83394:	a8c17bfd 	ldp	x29, x30, [sp], #16
   83398:	d65f03c0 	ret

000000000008339c <getpid>:
   8339c:	a9be7bfd 	stp	x29, x30, [sp, #-32]!
   833a0:	910003fd 	mov	x29, sp
   833a4:	f9000fe0 	str	x0, [sp, #24]
   833a8:	94000bf1 	bl	8636c <get_current>
   833ac:	b9407800 	ldr	w0, [x0, #120]
   833b0:	93407c01 	sxtw	x1, w0
   833b4:	f9400fe0 	ldr	x0, [sp, #24]
   833b8:	f9000001 	str	x1, [x0]
   833bc:	94000bec 	bl	8636c <get_current>
   833c0:	b9407800 	ldr	w0, [x0, #120]
   833c4:	a8c27bfd 	ldp	x29, x30, [sp], #32
   833c8:	d65f03c0 	ret

00000000000833cc <uart_read>:
   833cc:	a9bb7bfd 	stp	x29, x30, [sp, #-80]!
   833d0:	910003fd 	mov	x29, sp
   833d4:	f9000bf3 	str	x19, [sp, #16]
   833d8:	f9001fe0 	str	x0, [sp, #56]
   833dc:	f9001be1 	str	x1, [sp, #48]
   833e0:	f90017e2 	str	x2, [sp, #40]
   833e4:	b9004fff 	str	wzr, [sp, #76]
   833e8:	1400000a 	b	83410 <uart_read+0x44>
   833ec:	b9404fe0 	ldr	w0, [sp, #76]
   833f0:	11000401 	add	w1, w0, #0x1
   833f4:	b9004fe1 	str	w1, [sp, #76]
   833f8:	93407c00 	sxtw	x0, w0
   833fc:	f9401be1 	ldr	x1, [sp, #48]
   83400:	8b000033 	add	x19, x1, x0
   83404:	940005e2 	bl	84b8c <uart_async_getc>
   83408:	12001c00 	and	w0, w0, #0xff
   8340c:	39000260 	strb	w0, [x19]
   83410:	b9804fe0 	ldrsw	x0, [sp, #76]
   83414:	f94017e1 	ldr	x1, [sp, #40]
   83418:	eb00003f 	cmp	x1, x0
   8341c:	54fffe88 	b.hi	833ec <uart_read+0x20>  // b.pmore
   83420:	b9804fe1 	ldrsw	x1, [sp, #76]
   83424:	f9401fe0 	ldr	x0, [sp, #56]
   83428:	f9000001 	str	x1, [x0]
   8342c:	b9804fe0 	ldrsw	x0, [sp, #76]
   83430:	f9400bf3 	ldr	x19, [sp, #16]
   83434:	a8c57bfd 	ldp	x29, x30, [sp], #80
   83438:	d65f03c0 	ret

000000000008343c <uart_write>:
   8343c:	a9bc7bfd 	stp	x29, x30, [sp, #-64]!
   83440:	910003fd 	mov	x29, sp
   83444:	f90017e0 	str	x0, [sp, #40]
   83448:	f90013e1 	str	x1, [sp, #32]
   8344c:	f9000fe2 	str	x2, [sp, #24]
   83450:	b9003fff 	str	wzr, [sp, #60]
   83454:	14000009 	b	83478 <uart_write+0x3c>
   83458:	b9403fe0 	ldr	w0, [sp, #60]
   8345c:	11000401 	add	w1, w0, #0x1
   83460:	b9003fe1 	str	w1, [sp, #60]
   83464:	93407c00 	sxtw	x0, w0
   83468:	f94013e1 	ldr	x1, [sp, #32]
   8346c:	8b000020 	add	x0, x1, x0
   83470:	39400000 	ldrb	w0, [x0]
   83474:	940005a0 	bl	84af4 <uart_async_putc>
   83478:	b9803fe0 	ldrsw	x0, [sp, #60]
   8347c:	f9400fe1 	ldr	x1, [sp, #24]
   83480:	eb00003f 	cmp	x1, x0
   83484:	54fffea8 	b.hi	83458 <uart_write+0x1c>  // b.pmore
   83488:	b9803fe1 	ldrsw	x1, [sp, #60]
   8348c:	f94017e0 	ldr	x0, [sp, #40]
   83490:	f9000001 	str	x1, [x0]
   83494:	b9803fe0 	ldrsw	x0, [sp, #60]
   83498:	a8c47bfd 	ldp	x29, x30, [sp], #64
   8349c:	d65f03c0 	ret

00000000000834a0 <exec>:
   834a0:	a9bb7bfd 	stp	x29, x30, [sp, #-80]!
   834a4:	910003fd 	mov	x29, sp
   834a8:	f9000bf3 	str	x19, [sp, #16]
   834ac:	f9001fe0 	str	x0, [sp, #56]
   834b0:	f9001be1 	str	x1, [sp, #48]
   834b4:	f90017e2 	str	x2, [sp, #40]
   834b8:	94000bad 	bl	8636c <get_current>
   834bc:	f90023e0 	str	x0, [sp, #64]
   834c0:	f9401be0 	ldr	x0, [sp, #48]
   834c4:	9400016b 	bl	83a70 <get_file_size>
   834c8:	2a0003e1 	mov	w1, w0
   834cc:	f94023e0 	ldr	x0, [sp, #64]
   834d0:	b9008801 	str	w1, [x0, #136]
   834d4:	f94023e0 	ldr	x0, [sp, #64]
   834d8:	f9404013 	ldr	x19, [x0, #128]
   834dc:	f9401be0 	ldr	x0, [sp, #48]
   834e0:	9400018f 	bl	83b1c <get_file_start>
   834e4:	aa0003e1 	mov	x1, x0
   834e8:	f94023e0 	ldr	x0, [sp, #64]
   834ec:	b9408800 	ldr	w0, [x0, #136]
   834f0:	2a0003e0 	mov	w0, w0
   834f4:	aa0003e2 	mov	x2, x0
   834f8:	aa1303e0 	mov	x0, x19
   834fc:	94000841 	bl	85600 <memcpy>
   83500:	b9004fff 	str	wzr, [sp, #76]
   83504:	1400000a 	b	8352c <exec+0x8c>
   83508:	f94023e0 	ldr	x0, [sp, #64]
   8350c:	b9804fe1 	ldrsw	x1, [sp, #76]
   83510:	9100d821 	add	x1, x1, #0x36
   83514:	b0000022 	adrp	x2, 88000 <cmd_list+0x758>
   83518:	f943e842 	ldr	x2, [x2, #2000]
   8351c:	f8217802 	str	x2, [x0, x1, lsl #3]
   83520:	b9404fe0 	ldr	w0, [sp, #76]
   83524:	11000400 	add	w0, w0, #0x1
   83528:	b9004fe0 	str	w0, [sp, #76]
   8352c:	b9404fe0 	ldr	w0, [sp, #76]
   83530:	7101001f 	cmp	w0, #0x40
   83534:	54fffead 	b.le	83508 <exec+0x68>
   83538:	f94023e0 	ldr	x0, [sp, #64]
   8353c:	f9404000 	ldr	x0, [x0, #128]
   83540:	aa0003e1 	mov	x1, x0
   83544:	f9401fe0 	ldr	x0, [sp, #56]
   83548:	f9008001 	str	x1, [x0, #256]
   8354c:	f94023e0 	ldr	x0, [sp, #64]
   83550:	f9404c00 	ldr	x0, [x0, #152]
   83554:	91400401 	add	x1, x0, #0x1, lsl #12
   83558:	f9401fe0 	ldr	x0, [sp, #56]
   8355c:	f9008401 	str	x1, [x0, #264]
   83560:	f9401fe0 	ldr	x0, [sp, #56]
   83564:	f900001f 	str	xzr, [x0]
   83568:	52800000 	mov	w0, #0x0                   	// #0
   8356c:	f9400bf3 	ldr	x19, [sp, #16]
   83570:	a8c57bfd 	ldp	x29, x30, [sp], #80
   83574:	d65f03c0 	ret

0000000000083578 <fork>:
   83578:	a9bb7bfd 	stp	x29, x30, [sp, #-80]!
   8357c:	910003fd 	mov	x29, sp
   83580:	f9000fe0 	str	x0, [sp, #24]
   83584:	97fff51d 	bl	809f8 <lock>
   83588:	94000b79 	bl	8636c <get_current>
   8358c:	f9404000 	ldr	x0, [x0, #128]
   83590:	940001de 	bl	83d08 <thread_create>
   83594:	f90023e0 	str	x0, [sp, #64]
   83598:	94000b75 	bl	8636c <get_current>
   8359c:	f9001fe0 	str	x0, [sp, #56]
   835a0:	f9401fe0 	ldr	x0, [sp, #56]
   835a4:	b9407800 	ldr	w0, [x0, #120]
   835a8:	b90037e0 	str	w0, [sp, #52]
   835ac:	f9401fe0 	ldr	x0, [sp, #56]
   835b0:	b9408801 	ldr	w1, [x0, #136]
   835b4:	f94023e0 	ldr	x0, [sp, #64]
   835b8:	b9008801 	str	w1, [x0, #136]
   835bc:	f94023e0 	ldr	x0, [sp, #64]
   835c0:	f9404c03 	ldr	x3, [x0, #152]
   835c4:	f9401fe0 	ldr	x0, [sp, #56]
   835c8:	f9404c00 	ldr	x0, [x0, #152]
   835cc:	d2820002 	mov	x2, #0x1000                	// #4096
   835d0:	aa0003e1 	mov	x1, x0
   835d4:	aa0303e0 	mov	x0, x3
   835d8:	9400080a 	bl	85600 <memcpy>
   835dc:	f94023e0 	ldr	x0, [sp, #64]
   835e0:	f9405003 	ldr	x3, [x0, #160]
   835e4:	f9401fe0 	ldr	x0, [sp, #56]
   835e8:	f9405000 	ldr	x0, [x0, #160]
   835ec:	d2820002 	mov	x2, #0x1000                	// #4096
   835f0:	aa0003e1 	mov	x1, x0
   835f4:	aa0303e0 	mov	x0, x3
   835f8:	94000802 	bl	85600 <memcpy>
   835fc:	b9004fff 	str	wzr, [sp, #76]
   83600:	1400000c 	b	83630 <fork+0xb8>
   83604:	f9401fe0 	ldr	x0, [sp, #56]
   83608:	b9804fe1 	ldrsw	x1, [sp, #76]
   8360c:	9100d821 	add	x1, x1, #0x36
   83610:	f8617802 	ldr	x2, [x0, x1, lsl #3]
   83614:	f94023e0 	ldr	x0, [sp, #64]
   83618:	b9804fe1 	ldrsw	x1, [sp, #76]
   8361c:	9100d821 	add	x1, x1, #0x36
   83620:	f8217802 	str	x2, [x0, x1, lsl #3]
   83624:	b9404fe0 	ldr	w0, [sp, #76]
   83628:	11000400 	add	w0, w0, #0x1
   8362c:	b9004fe0 	str	w0, [sp, #76]
   83630:	b9404fe0 	ldr	w0, [sp, #76]
   83634:	7101001f 	cmp	w0, #0x40
   83638:	54fffe6d 	b.le	83604 <fork+0x8c>
   8363c:	94000b4c 	bl	8636c <get_current>
   83640:	94000b4d 	bl	86374 <store_context>
   83644:	94000b4a 	bl	8636c <get_current>
   83648:	b9407800 	ldr	w0, [x0, #120]
   8364c:	b94037e1 	ldr	w1, [sp, #52]
   83650:	6b00003f 	cmp	w1, w0
   83654:	54000320 	b.eq	836b8 <fork+0x140>  // b.none
   83658:	f94023e0 	ldr	x0, [sp, #64]
   8365c:	f9405001 	ldr	x1, [x0, #160]
   83660:	f9401fe0 	ldr	x0, [sp, #56]
   83664:	f9405000 	ldr	x0, [x0, #160]
   83668:	cb000020 	sub	x0, x1, x0
   8366c:	aa0003e1 	mov	x1, x0
   83670:	f9400fe0 	ldr	x0, [sp, #24]
   83674:	8b010000 	add	x0, x0, x1
   83678:	f9000fe0 	str	x0, [sp, #24]
   8367c:	f9400fe0 	ldr	x0, [sp, #24]
   83680:	f9408400 	ldr	x0, [x0, #264]
   83684:	f94023e1 	ldr	x1, [sp, #64]
   83688:	f9404c22 	ldr	x2, [x1, #152]
   8368c:	f9401fe1 	ldr	x1, [sp, #56]
   83690:	f9404c21 	ldr	x1, [x1, #152]
   83694:	cb010041 	sub	x1, x2, x1
   83698:	8b010001 	add	x1, x0, x1
   8369c:	f9400fe0 	ldr	x0, [sp, #24]
   836a0:	f9008401 	str	x1, [x0, #264]
   836a4:	f9400fe0 	ldr	x0, [sp, #24]
   836a8:	f900001f 	str	xzr, [x0]
   836ac:	97fff4e0 	bl	80a2c <unlock>
   836b0:	52800000 	mov	w0, #0x0                   	// #0
   836b4:	1400002d 	b	83768 <fork+0x1f0>
   836b8:	94000b2d 	bl	8636c <get_current>
   836bc:	aa0003e1 	mov	x1, x0
   836c0:	f94023e0 	ldr	x0, [sp, #64]
   836c4:	a9400c22 	ldp	x2, x3, [x1]
   836c8:	a9000c02 	stp	x2, x3, [x0]
   836cc:	a9410c22 	ldp	x2, x3, [x1, #16]
   836d0:	a9010c02 	stp	x2, x3, [x0, #16]
   836d4:	a9420c22 	ldp	x2, x3, [x1, #32]
   836d8:	a9020c02 	stp	x2, x3, [x0, #32]
   836dc:	a9430c22 	ldp	x2, x3, [x1, #48]
   836e0:	a9030c02 	stp	x2, x3, [x0, #48]
   836e4:	a9440c22 	ldp	x2, x3, [x1, #64]
   836e8:	a9040c02 	stp	x2, x3, [x0, #64]
   836ec:	a9450c22 	ldp	x2, x3, [x1, #80]
   836f0:	a9050c02 	stp	x2, x3, [x0, #80]
   836f4:	f9403021 	ldr	x1, [x1, #96]
   836f8:	f9003001 	str	x1, [x0, #96]
   836fc:	f94023e0 	ldr	x0, [sp, #64]
   83700:	f9405000 	ldr	x0, [x0, #160]
   83704:	aa0003e1 	mov	x1, x0
   83708:	f9401fe0 	ldr	x0, [sp, #56]
   8370c:	f9405000 	ldr	x0, [x0, #160]
   83710:	cb000020 	sub	x0, x1, x0
   83714:	f90017e0 	str	x0, [sp, #40]
   83718:	f94023e0 	ldr	x0, [sp, #64]
   8371c:	f9402801 	ldr	x1, [x0, #80]
   83720:	f94017e0 	ldr	x0, [sp, #40]
   83724:	8b000021 	add	x1, x1, x0
   83728:	f94023e0 	ldr	x0, [sp, #64]
   8372c:	f9002801 	str	x1, [x0, #80]
   83730:	f94023e0 	ldr	x0, [sp, #64]
   83734:	f9403001 	ldr	x1, [x0, #96]
   83738:	f94017e0 	ldr	x0, [sp, #40]
   8373c:	8b000021 	add	x1, x1, x0
   83740:	f94023e0 	ldr	x0, [sp, #64]
   83744:	f9003001 	str	x1, [x0, #96]
   83748:	f94023e0 	ldr	x0, [sp, #64]
   8374c:	b9407800 	ldr	w0, [x0, #120]
   83750:	93407c01 	sxtw	x1, w0
   83754:	f9400fe0 	ldr	x0, [sp, #24]
   83758:	f9000001 	str	x1, [x0]
   8375c:	97fff4b4 	bl	80a2c <unlock>
   83760:	f94023e0 	ldr	x0, [sp, #64]
   83764:	b9407800 	ldr	w0, [x0, #120]
   83768:	a8c57bfd 	ldp	x29, x30, [sp], #80
   8376c:	d65f03c0 	ret

0000000000083770 <exit>:
   83770:	a9be7bfd 	stp	x29, x30, [sp, #-32]!
   83774:	910003fd 	mov	x29, sp
   83778:	f9000fe0 	str	x0, [sp, #24]
   8377c:	b90017e1 	str	w1, [sp, #20]
   83780:	94000206 	bl	83f98 <thread_exit>
   83784:	d503201f 	nop
   83788:	a8c27bfd 	ldp	x29, x30, [sp], #32
   8378c:	d65f03c0 	ret

0000000000083790 <mbox_call>:
   83790:	a9bc7bfd 	stp	x29, x30, [sp, #-64]!
   83794:	910003fd 	mov	x29, sp
   83798:	f90017e0 	str	x0, [sp, #40]
   8379c:	39009fe1 	strb	w1, [sp, #39]
   837a0:	f9000fe2 	str	x2, [sp, #24]
   837a4:	97fff495 	bl	809f8 <lock>
   837a8:	f9400fe0 	ldr	x0, [sp, #24]
   837ac:	121c6c01 	and	w1, w0, #0xfffffff0
   837b0:	39409fe0 	ldrb	w0, [sp, #39]
   837b4:	12000c00 	and	w0, w0, #0xf
   837b8:	2a000020 	orr	w0, w1, w0
   837bc:	b9003fe0 	str	w0, [sp, #60]
   837c0:	d503201f 	nop
   837c4:	d2971300 	mov	x0, #0xb898                	// #47256
   837c8:	f2a7e000 	movk	x0, #0x3f00, lsl #16
   837cc:	b9400000 	ldr	w0, [x0]
   837d0:	7100001f 	cmp	w0, #0x0
   837d4:	54ffff8b 	b.lt	837c4 <mbox_call+0x34>  // b.tstop
   837d8:	d2971400 	mov	x0, #0xb8a0                	// #47264
   837dc:	f2a7e000 	movk	x0, #0x3f00, lsl #16
   837e0:	b9403fe1 	ldr	w1, [sp, #60]
   837e4:	b9000001 	str	w1, [x0]
   837e8:	d503201f 	nop
   837ec:	d2971300 	mov	x0, #0xb898                	// #47256
   837f0:	f2a7e000 	movk	x0, #0x3f00, lsl #16
   837f4:	b9400000 	ldr	w0, [x0]
   837f8:	12020000 	and	w0, w0, #0x40000000
   837fc:	7100001f 	cmp	w0, #0x0
   83800:	54ffff61 	b.ne	837ec <mbox_call+0x5c>  // b.any
   83804:	d2971000 	mov	x0, #0xb880                	// #47232
   83808:	f2a7e000 	movk	x0, #0x3f00, lsl #16
   8380c:	b9400000 	ldr	w0, [x0]
   83810:	b9403fe1 	ldr	w1, [sp, #60]
   83814:	6b00003f 	cmp	w1, w0
   83818:	54fffe81 	b.ne	837e8 <mbox_call+0x58>  // b.any
   8381c:	f9400fe0 	ldr	x0, [sp, #24]
   83820:	91001000 	add	x0, x0, #0x4
   83824:	b9400001 	ldr	w1, [x0]
   83828:	52b00000 	mov	w0, #0x80000000            	// #-2147483648
   8382c:	6b00003f 	cmp	w1, w0
   83830:	1a9f17e0 	cset	w0, eq  // eq = none
   83834:	12001c00 	and	w0, w0, #0xff
   83838:	92401c01 	and	x1, x0, #0xff
   8383c:	f94017e0 	ldr	x0, [sp, #40]
   83840:	f9000001 	str	x1, [x0]
   83844:	97fff47a 	bl	80a2c <unlock>
   83848:	f9400fe0 	ldr	x0, [sp, #24]
   8384c:	91001000 	add	x0, x0, #0x4
   83850:	b9400001 	ldr	w1, [x0]
   83854:	52b00000 	mov	w0, #0x80000000            	// #-2147483648
   83858:	6b00003f 	cmp	w1, w0
   8385c:	1a9f17e0 	cset	w0, eq  // eq = none
   83860:	12001c00 	and	w0, w0, #0xff
   83864:	a8c47bfd 	ldp	x29, x30, [sp], #64
   83868:	d65f03c0 	ret

000000000008386c <kill>:
   8386c:	a9be7bfd 	stp	x29, x30, [sp, #-32]!
   83870:	910003fd 	mov	x29, sp
   83874:	f9000fe0 	str	x0, [sp, #24]
   83878:	b90017e1 	str	w1, [sp, #20]
   8387c:	b94017e0 	ldr	w0, [sp, #20]
   83880:	7100001f 	cmp	w0, #0x0
   83884:	5400044b 	b.lt	8390c <kill+0xa0>  // b.tstop
   83888:	b94017e1 	ldr	w1, [sp, #20]
   8388c:	528ff4c0 	mov	w0, #0x7fa6                	// #32678
   83890:	6b00003f 	cmp	w1, w0
   83894:	540003cc 	b.gt	8390c <kill+0xa0>
   83898:	b0000020 	adrp	x0, 88000 <cmd_list+0x758>
   8389c:	f943f802 	ldr	x2, [x0, #2032]
   838a0:	b98017e1 	ldrsw	x1, [sp, #20]
   838a4:	aa0103e0 	mov	x0, x1
   838a8:	d37cec00 	lsl	x0, x0, #4
   838ac:	8b010000 	add	x0, x0, x1
   838b0:	d37ef400 	lsl	x0, x0, #2
   838b4:	cb010000 	sub	x0, x0, x1
   838b8:	d37cec00 	lsl	x0, x0, #4
   838bc:	8b000040 	add	x0, x2, x0
   838c0:	b9408c00 	ldr	w0, [x0, #140]
   838c4:	7100001f 	cmp	w0, #0x0
   838c8:	54000220 	b.eq	8390c <kill+0xa0>  // b.none
   838cc:	97fff44b 	bl	809f8 <lock>
   838d0:	b0000020 	adrp	x0, 88000 <cmd_list+0x758>
   838d4:	f943f802 	ldr	x2, [x0, #2032]
   838d8:	b98017e1 	ldrsw	x1, [sp, #20]
   838dc:	aa0103e0 	mov	x0, x1
   838e0:	d37cec00 	lsl	x0, x0, #4
   838e4:	8b010000 	add	x0, x0, x1
   838e8:	d37ef400 	lsl	x0, x0, #2
   838ec:	cb010000 	sub	x0, x0, x1
   838f0:	d37cec00 	lsl	x0, x0, #4
   838f4:	8b000040 	add	x0, x2, x0
   838f8:	52800021 	mov	w1, #0x1                   	// #1
   838fc:	b9009001 	str	w1, [x0, #144]
   83900:	97fff44b 	bl	80a2c <unlock>
   83904:	9400018b 	bl	83f30 <schedule>
   83908:	14000002 	b	83910 <kill+0xa4>
   8390c:	d503201f 	nop
   83910:	a8c27bfd 	ldp	x29, x30, [sp], #32
   83914:	d65f03c0 	ret

0000000000083918 <signal_register>:
   83918:	a9be7bfd 	stp	x29, x30, [sp, #-32]!
   8391c:	910003fd 	mov	x29, sp
   83920:	b9001fe0 	str	w0, [sp, #28]
   83924:	f9000be1 	str	x1, [sp, #16]
   83928:	b9401fe0 	ldr	w0, [sp, #28]
   8392c:	7100001f 	cmp	w0, #0x0
   83930:	5400016b 	b.lt	8395c <signal_register+0x44>  // b.tstop
   83934:	b9401fe0 	ldr	w0, [sp, #28]
   83938:	7101001f 	cmp	w0, #0x40
   8393c:	5400010c 	b.gt	8395c <signal_register+0x44>
   83940:	94000a8b 	bl	8636c <get_current>
   83944:	aa0003e2 	mov	x2, x0
   83948:	b9801fe0 	ldrsw	x0, [sp, #28]
   8394c:	9100d800 	add	x0, x0, #0x36
   83950:	f9400be1 	ldr	x1, [sp, #16]
   83954:	f8207841 	str	x1, [x2, x0, lsl #3]
   83958:	14000002 	b	83960 <signal_register+0x48>
   8395c:	d503201f 	nop
   83960:	a8c27bfd 	ldp	x29, x30, [sp], #32
   83964:	d65f03c0 	ret

0000000000083968 <signal_kill>:
   83968:	a9be7bfd 	stp	x29, x30, [sp, #-32]!
   8396c:	910003fd 	mov	x29, sp
   83970:	b9001fe0 	str	w0, [sp, #28]
   83974:	b9001be1 	str	w1, [sp, #24]
   83978:	b9401fe0 	ldr	w0, [sp, #28]
   8397c:	7100001f 	cmp	w0, #0x0
   83980:	5400042b 	b.lt	83a04 <signal_kill+0x9c>  // b.tstop
   83984:	b9401fe1 	ldr	w1, [sp, #28]
   83988:	528ff4c0 	mov	w0, #0x7fa6                	// #32678
   8398c:	6b00003f 	cmp	w1, w0
   83990:	540003ac 	b.gt	83a04 <signal_kill+0x9c>
   83994:	b0000020 	adrp	x0, 88000 <cmd_list+0x758>
   83998:	f943f802 	ldr	x2, [x0, #2032]
   8399c:	b9801fe1 	ldrsw	x1, [sp, #28]
   839a0:	aa0103e0 	mov	x0, x1
   839a4:	d37cec00 	lsl	x0, x0, #4
   839a8:	8b010000 	add	x0, x0, x1
   839ac:	d37ef400 	lsl	x0, x0, #2
   839b0:	cb010000 	sub	x0, x0, x1
   839b4:	d37cec00 	lsl	x0, x0, #4
   839b8:	8b000040 	add	x0, x2, x0
   839bc:	b9408c00 	ldr	w0, [x0, #140]
   839c0:	7100001f 	cmp	w0, #0x0
   839c4:	54000200 	b.eq	83a04 <signal_kill+0x9c>  // b.none
   839c8:	97fff40c 	bl	809f8 <lock>
   839cc:	b0000020 	adrp	x0, 88000 <cmd_list+0x758>
   839d0:	f943f802 	ldr	x2, [x0, #2032]
   839d4:	b9801fe1 	ldrsw	x1, [sp, #28]
   839d8:	aa0103e0 	mov	x0, x1
   839dc:	d37cec00 	lsl	x0, x0, #4
   839e0:	8b010000 	add	x0, x0, x1
   839e4:	d37ef400 	lsl	x0, x0, #2
   839e8:	cb010000 	sub	x0, x0, x1
   839ec:	d37cec00 	lsl	x0, x0, #4
   839f0:	8b000040 	add	x0, x2, x0
   839f4:	52800021 	mov	w1, #0x1                   	// #1
   839f8:	b9009001 	str	w1, [x0, #144]
   839fc:	97fff40c 	bl	80a2c <unlock>
   83a00:	14000002 	b	83a08 <signal_kill+0xa0>
   83a04:	d503201f 	nop
   83a08:	a8c27bfd 	ldp	x29, x30, [sp], #32
   83a0c:	d65f03c0 	ret

0000000000083a10 <signal_return>:
   83a10:	a9bd7bfd 	stp	x29, x30, [sp, #-48]!
   83a14:	910003fd 	mov	x29, sp
   83a18:	f9000fe0 	str	x0, [sp, #24]
   83a1c:	f9400fe0 	ldr	x0, [sp, #24]
   83a20:	f9408400 	ldr	x0, [x0, #264]
   83a24:	92402c00 	and	x0, x0, #0xfff
   83a28:	f100001f 	cmp	x0, #0x0
   83a2c:	540000a1 	b.ne	83a40 <signal_return+0x30>  // b.any
   83a30:	f9400fe0 	ldr	x0, [sp, #24]
   83a34:	f9408400 	ldr	x0, [x0, #264]
   83a38:	d1400400 	sub	x0, x0, #0x1, lsl #12
   83a3c:	14000004 	b	83a4c <signal_return+0x3c>
   83a40:	f9400fe0 	ldr	x0, [sp, #24]
   83a44:	f9408400 	ldr	x0, [x0, #264]
   83a48:	9274cc00 	and	x0, x0, #0xfffffffffffff000
   83a4c:	f90017e0 	str	x0, [sp, #40]
   83a50:	f94017e0 	ldr	x0, [sp, #40]
   83a54:	97fff8fc 	bl	81e44 <kfree>
   83a58:	94000a45 	bl	8636c <get_current>
   83a5c:	910f2000 	add	x0, x0, #0x3c8
   83a60:	94000a4e 	bl	86398 <load_context>
   83a64:	d503201f 	nop
   83a68:	a8c37bfd 	ldp	x29, x30, [sp], #48
   83a6c:	d65f03c0 	ret

0000000000083a70 <get_file_size>:
   83a70:	a9bb7bfd 	stp	x29, x30, [sp, #-80]!
   83a74:	910003fd 	mov	x29, sp
   83a78:	f9000fe0 	str	x0, [sp, #24]
   83a7c:	b0000020 	adrp	x0, 88000 <cmd_list+0x758>
   83a80:	f9441000 	ldr	x0, [x0, #2080]
   83a84:	f9400000 	ldr	x0, [x0]
   83a88:	f90017e0 	str	x0, [sp, #40]
   83a8c:	1400001e 	b	83b04 <get_file_size+0x94>
   83a90:	f94017e0 	ldr	x0, [sp, #40]
   83a94:	9100a3e4 	add	x4, sp, #0x28
   83a98:	9100e3e3 	add	x3, sp, #0x38
   83a9c:	9100d3e2 	add	x2, sp, #0x34
   83aa0:	910103e1 	add	x1, sp, #0x40
   83aa4:	97fff1c8 	bl	801c4 <cpio_newc_parse_header>
   83aa8:	b9004fe0 	str	w0, [sp, #76]
   83aac:	b9404fe0 	ldr	w0, [sp, #76]
   83ab0:	7100001f 	cmp	w0, #0x0
   83ab4:	540000c0 	b.eq	83acc <get_file_size+0x5c>  // b.none
   83ab8:	f0000000 	adrp	x0, 86000 <el1t_irq_invalid+0x74>
   83abc:	9126a000 	add	x0, x0, #0x9a8
   83ac0:	9400037a 	bl	848a8 <uart_sendline>
   83ac4:	12800000 	mov	w0, #0xffffffff            	// #-1
   83ac8:	14000013 	b	83b14 <get_file_size+0xa4>
   83acc:	f94023e0 	ldr	x0, [sp, #64]
   83ad0:	f9400fe1 	ldr	x1, [sp, #24]
   83ad4:	94000620 	bl	85354 <strcmp>
   83ad8:	7100001f 	cmp	w0, #0x0
   83adc:	54000061 	b.ne	83ae8 <get_file_size+0x78>  // b.any
   83ae0:	b94037e0 	ldr	w0, [sp, #52]
   83ae4:	1400000c 	b	83b14 <get_file_size+0xa4>
   83ae8:	f94017e0 	ldr	x0, [sp, #40]
   83aec:	f100001f 	cmp	x0, #0x0
   83af0:	540000a1 	b.ne	83b04 <get_file_size+0x94>  // b.any
   83af4:	f9400fe1 	ldr	x1, [sp, #24]
   83af8:	f0000000 	adrp	x0, 86000 <el1t_irq_invalid+0x74>
   83afc:	91270000 	add	x0, x0, #0x9c0
   83b00:	9400036a 	bl	848a8 <uart_sendline>
   83b04:	f94017e0 	ldr	x0, [sp, #40]
   83b08:	f100001f 	cmp	x0, #0x0
   83b0c:	54fffc21 	b.ne	83a90 <get_file_size+0x20>  // b.any
   83b10:	52800000 	mov	w0, #0x0                   	// #0
   83b14:	a8c57bfd 	ldp	x29, x30, [sp], #80
   83b18:	d65f03c0 	ret

0000000000083b1c <get_file_start>:
   83b1c:	a9bb7bfd 	stp	x29, x30, [sp, #-80]!
   83b20:	910003fd 	mov	x29, sp
   83b24:	f9000fe0 	str	x0, [sp, #24]
   83b28:	b0000020 	adrp	x0, 88000 <cmd_list+0x758>
   83b2c:	f9441000 	ldr	x0, [x0, #2080]
   83b30:	f9400000 	ldr	x0, [x0]
   83b34:	f90017e0 	str	x0, [sp, #40]
   83b38:	1400001d 	b	83bac <get_file_start+0x90>
   83b3c:	f94017e0 	ldr	x0, [sp, #40]
   83b40:	9100a3e4 	add	x4, sp, #0x28
   83b44:	9100e3e3 	add	x3, sp, #0x38
   83b48:	9100d3e2 	add	x2, sp, #0x34
   83b4c:	910103e1 	add	x1, sp, #0x40
   83b50:	97fff19d 	bl	801c4 <cpio_newc_parse_header>
   83b54:	b9004fe0 	str	w0, [sp, #76]
   83b58:	b9404fe0 	ldr	w0, [sp, #76]
   83b5c:	7100001f 	cmp	w0, #0x0
   83b60:	540000a0 	b.eq	83b74 <get_file_start+0x58>  // b.none
   83b64:	f0000000 	adrp	x0, 86000 <el1t_irq_invalid+0x74>
   83b68:	9126a000 	add	x0, x0, #0x9a8
   83b6c:	9400034f 	bl	848a8 <uart_sendline>
   83b70:	14000012 	b	83bb8 <get_file_start+0x9c>
   83b74:	f94023e0 	ldr	x0, [sp, #64]
   83b78:	f9400fe1 	ldr	x1, [sp, #24]
   83b7c:	940005f6 	bl	85354 <strcmp>
   83b80:	7100001f 	cmp	w0, #0x0
   83b84:	54000061 	b.ne	83b90 <get_file_start+0x74>  // b.any
   83b88:	f9401fe0 	ldr	x0, [sp, #56]
   83b8c:	1400000c 	b	83bbc <get_file_start+0xa0>
   83b90:	f94017e0 	ldr	x0, [sp, #40]
   83b94:	f100001f 	cmp	x0, #0x0
   83b98:	540000a1 	b.ne	83bac <get_file_start+0x90>  // b.any
   83b9c:	f9400fe1 	ldr	x1, [sp, #24]
   83ba0:	f0000000 	adrp	x0, 86000 <el1t_irq_invalid+0x74>
   83ba4:	91270000 	add	x0, x0, #0x9c0
   83ba8:	94000340 	bl	848a8 <uart_sendline>
   83bac:	f94017e0 	ldr	x0, [sp, #40]
   83bb0:	f100001f 	cmp	x0, #0x0
   83bb4:	54fffc41 	b.ne	83b3c <get_file_start+0x20>  // b.any
   83bb8:	d2800000 	mov	x0, #0x0                   	// #0
   83bbc:	a8c57bfd 	ldp	x29, x30, [sp], #80
   83bc0:	d65f03c0 	ret

0000000000083bc4 <init_thread>:
   83bc4:	a9be7bfd 	stp	x29, x30, [sp, #-32]!
   83bc8:	910003fd 	mov	x29, sp
   83bcc:	97fff38b 	bl	809f8 <lock>
   83bd0:	52808600 	mov	w0, #0x430                 	// #1072
   83bd4:	97fff88c 	bl	81e04 <kmalloc>
   83bd8:	aa0003e1 	mov	x1, x0
   83bdc:	b0000020 	adrp	x0, 88000 <cmd_list+0x758>
   83be0:	91286000 	add	x0, x0, #0xa18
   83be4:	f9000001 	str	x1, [x0]
   83be8:	b0000020 	adrp	x0, 88000 <cmd_list+0x758>
   83bec:	91286000 	add	x0, x0, #0xa18
   83bf0:	f9400000 	ldr	x0, [x0]
   83bf4:	b0000021 	adrp	x1, 88000 <cmd_list+0x758>
   83bf8:	91286021 	add	x1, x1, #0xa18
   83bfc:	f9400021 	ldr	x1, [x1]
   83c00:	f9003401 	str	x1, [x0, #104]
   83c04:	b0000020 	adrp	x0, 88000 <cmd_list+0x758>
   83c08:	91286000 	add	x0, x0, #0xa18
   83c0c:	f9400000 	ldr	x0, [x0]
   83c10:	b0000021 	adrp	x1, 88000 <cmd_list+0x758>
   83c14:	91286021 	add	x1, x1, #0xa18
   83c18:	f9400021 	ldr	x1, [x1]
   83c1c:	f9003801 	str	x1, [x0, #112]
   83c20:	b0000020 	adrp	x0, 88000 <cmd_list+0x758>
   83c24:	91286000 	add	x0, x0, #0xa18
   83c28:	f9400000 	ldr	x0, [x0]
   83c2c:	12800001 	mov	w1, #0xffffffff            	// #-1
   83c30:	b9007801 	str	w1, [x0, #120]
   83c34:	b9001fff 	str	wzr, [sp, #28]
   83c38:	14000026 	b	83cd0 <init_thread+0x10c>
   83c3c:	b0000020 	adrp	x0, 88000 <cmd_list+0x758>
   83c40:	91288002 	add	x2, x0, #0xa20
   83c44:	b9801fe1 	ldrsw	x1, [sp, #28]
   83c48:	aa0103e0 	mov	x0, x1
   83c4c:	d37cec00 	lsl	x0, x0, #4
   83c50:	8b010000 	add	x0, x0, x1
   83c54:	d37ef400 	lsl	x0, x0, #2
   83c58:	cb010000 	sub	x0, x0, x1
   83c5c:	d37cec00 	lsl	x0, x0, #4
   83c60:	8b000040 	add	x0, x2, x0
   83c64:	b9008c1f 	str	wzr, [x0, #140]
   83c68:	b0000020 	adrp	x0, 88000 <cmd_list+0x758>
   83c6c:	91288002 	add	x2, x0, #0xa20
   83c70:	b9801fe1 	ldrsw	x1, [sp, #28]
   83c74:	aa0103e0 	mov	x0, x1
   83c78:	d37cec00 	lsl	x0, x0, #4
   83c7c:	8b010000 	add	x0, x0, x1
   83c80:	d37ef400 	lsl	x0, x0, #2
   83c84:	cb010000 	sub	x0, x0, x1
   83c88:	d37cec00 	lsl	x0, x0, #4
   83c8c:	8b000040 	add	x0, x2, x0
   83c90:	b900901f 	str	wzr, [x0, #144]
   83c94:	b0000020 	adrp	x0, 88000 <cmd_list+0x758>
   83c98:	91288002 	add	x2, x0, #0xa20
   83c9c:	b9801fe1 	ldrsw	x1, [sp, #28]
   83ca0:	aa0103e0 	mov	x0, x1
   83ca4:	d37cec00 	lsl	x0, x0, #4
   83ca8:	8b010000 	add	x0, x0, x1
   83cac:	d37ef400 	lsl	x0, x0, #2
   83cb0:	cb010000 	sub	x0, x0, x1
   83cb4:	d37cec00 	lsl	x0, x0, #4
   83cb8:	8b000040 	add	x0, x2, x0
   83cbc:	b9401fe1 	ldr	w1, [sp, #28]
   83cc0:	b9007801 	str	w1, [x0, #120]
   83cc4:	b9401fe0 	ldr	w0, [sp, #28]
   83cc8:	11000400 	add	w0, w0, #0x1
   83ccc:	b9001fe0 	str	w0, [sp, #28]
   83cd0:	b9401fe1 	ldr	w1, [sp, #28]
   83cd4:	528ff4c0 	mov	w0, #0x7fa6                	// #32678
   83cd8:	6b00003f 	cmp	w1, w0
   83cdc:	54fffb0d 	b.le	83c3c <init_thread+0x78>
   83ce0:	90000000 	adrp	x0, 83000 <test_mbox_call+0x2c>
   83ce4:	913e1000 	add	x0, x0, #0xf84
   83ce8:	94000008 	bl	83d08 <thread_create>
   83cec:	f9000be0 	str	x0, [sp, #16]
   83cf0:	f9400be0 	ldr	x0, [sp, #16]
   83cf4:	d518d080 	msr	tpidr_el1, x0
   83cf8:	97fff34d 	bl	80a2c <unlock>
   83cfc:	d503201f 	nop
   83d00:	a8c27bfd 	ldp	x29, x30, [sp], #32
   83d04:	d65f03c0 	ret

0000000000083d08 <thread_create>:
   83d08:	a9bd7bfd 	stp	x29, x30, [sp, #-48]!
   83d0c:	910003fd 	mov	x29, sp
   83d10:	f9000fe0 	str	x0, [sp, #24]
   83d14:	97fff339 	bl	809f8 <lock>
   83d18:	d0010b60 	adrp	x0, 21f1000 <_heap_stack_size+0x19f1000>
   83d1c:	9115c000 	add	x0, x0, #0x570
   83d20:	b9400001 	ldr	w1, [x0]
   83d24:	528ff4c0 	mov	w0, #0x7fa6                	// #32678
   83d28:	6b00003f 	cmp	w1, w0
   83d2c:	5400006d 	b.le	83d38 <thread_create+0x30>
   83d30:	d2800000 	mov	x0, #0x0                   	// #0
   83d34:	1400006b 	b	83ee0 <thread_create+0x1d8>
   83d38:	d0010b60 	adrp	x0, 21f1000 <_heap_stack_size+0x19f1000>
   83d3c:	9115c000 	add	x0, x0, #0x570
   83d40:	b9400001 	ldr	w1, [x0]
   83d44:	b0000020 	adrp	x0, 88000 <cmd_list+0x758>
   83d48:	91288002 	add	x2, x0, #0xa20
   83d4c:	93407c21 	sxtw	x1, w1
   83d50:	aa0103e0 	mov	x0, x1
   83d54:	d37cec00 	lsl	x0, x0, #4
   83d58:	8b010000 	add	x0, x0, x1
   83d5c:	d37ef400 	lsl	x0, x0, #2
   83d60:	cb010000 	sub	x0, x0, x1
   83d64:	d37cec00 	lsl	x0, x0, #4
   83d68:	8b000040 	add	x0, x2, x0
   83d6c:	b9408c00 	ldr	w0, [x0, #140]
   83d70:	7100001f 	cmp	w0, #0x0
   83d74:	54000641 	b.ne	83e3c <thread_create+0x134>  // b.any
   83d78:	d0010b60 	adrp	x0, 21f1000 <_heap_stack_size+0x19f1000>
   83d7c:	9115c000 	add	x0, x0, #0x570
   83d80:	b9400000 	ldr	w0, [x0]
   83d84:	11000402 	add	w2, w0, #0x1
   83d88:	d0010b61 	adrp	x1, 21f1000 <_heap_stack_size+0x19f1000>
   83d8c:	9115c021 	add	x1, x1, #0x570
   83d90:	b9000022 	str	w2, [x1]
   83d94:	93407c01 	sxtw	x1, w0
   83d98:	aa0103e0 	mov	x0, x1
   83d9c:	d37cec00 	lsl	x0, x0, #4
   83da0:	8b010000 	add	x0, x0, x1
   83da4:	d37ef400 	lsl	x0, x0, #2
   83da8:	cb010000 	sub	x0, x0, x1
   83dac:	d37cec00 	lsl	x0, x0, #4
   83db0:	b0000021 	adrp	x1, 88000 <cmd_list+0x758>
   83db4:	91288021 	add	x1, x1, #0xa20
   83db8:	8b010000 	add	x0, x0, x1
   83dbc:	f90013e0 	str	x0, [sp, #32]
   83dc0:	f94013e0 	ldr	x0, [sp, #32]
   83dc4:	b900901f 	str	wzr, [x0, #144]
   83dc8:	f94013e0 	ldr	x0, [sp, #32]
   83dcc:	52800021 	mov	w1, #0x1                   	// #1
   83dd0:	b9008c01 	str	w1, [x0, #140]
   83dd4:	52820000 	mov	w0, #0x1000                	// #4096
   83dd8:	97fff80b 	bl	81e04 <kmalloc>
   83ddc:	aa0003e1 	mov	x1, x0
   83de0:	f94013e0 	ldr	x0, [sp, #32]
   83de4:	f9004c01 	str	x1, [x0, #152]
   83de8:	52820000 	mov	w0, #0x1000                	// #4096
   83dec:	97fff806 	bl	81e04 <kmalloc>
   83df0:	aa0003e1 	mov	x1, x0
   83df4:	f94013e0 	ldr	x0, [sp, #32]
   83df8:	f9005001 	str	x1, [x0, #160]
   83dfc:	f9400fe1 	ldr	x1, [sp, #24]
   83e00:	f94013e0 	ldr	x0, [sp, #32]
   83e04:	f9002c01 	str	x1, [x0, #88]
   83e08:	f94013e0 	ldr	x0, [sp, #32]
   83e0c:	f9404c00 	ldr	x0, [x0, #152]
   83e10:	91400401 	add	x1, x0, #0x1, lsl #12
   83e14:	f94013e0 	ldr	x0, [sp, #32]
   83e18:	f9003001 	str	x1, [x0, #96]
   83e1c:	f94013e0 	ldr	x0, [sp, #32]
   83e20:	f9403001 	ldr	x1, [x0, #96]
   83e24:	f94013e0 	ldr	x0, [sp, #32]
   83e28:	f9002801 	str	x1, [x0, #80]
   83e2c:	f94013e0 	ldr	x0, [sp, #32]
   83e30:	b903c01f 	str	wzr, [x0, #960]
   83e34:	b9002fff 	str	wzr, [sp, #44]
   83e38:	14000012 	b	83e80 <thread_create+0x178>
   83e3c:	d2800000 	mov	x0, #0x0                   	// #0
   83e40:	14000028 	b	83ee0 <thread_create+0x1d8>
   83e44:	f94013e1 	ldr	x1, [sp, #32]
   83e48:	b9802fe0 	ldrsw	x0, [sp, #44]
   83e4c:	9100a000 	add	x0, x0, #0x28
   83e50:	d37ef400 	lsl	x0, x0, #2
   83e54:	8b000020 	add	x0, x1, x0
   83e58:	b900081f 	str	wzr, [x0, #8]
   83e5c:	f94013e0 	ldr	x0, [sp, #32]
   83e60:	b9802fe1 	ldrsw	x1, [sp, #44]
   83e64:	9100d821 	add	x1, x1, #0x36
   83e68:	b0000022 	adrp	x2, 88000 <cmd_list+0x758>
   83e6c:	f943e842 	ldr	x2, [x2, #2000]
   83e70:	f8217802 	str	x2, [x0, x1, lsl #3]
   83e74:	b9402fe0 	ldr	w0, [sp, #44]
   83e78:	11000400 	add	w0, w0, #0x1
   83e7c:	b9002fe0 	str	w0, [sp, #44]
   83e80:	b9402fe0 	ldr	w0, [sp, #44]
   83e84:	7101001f 	cmp	w0, #0x40
   83e88:	54fffded 	b.le	83e44 <thread_create+0x13c>
   83e8c:	b0000020 	adrp	x0, 88000 <cmd_list+0x758>
   83e90:	91286000 	add	x0, x0, #0xa18
   83e94:	f9400000 	ldr	x0, [x0]
   83e98:	f9403801 	ldr	x1, [x0, #112]
   83e9c:	f94013e0 	ldr	x0, [sp, #32]
   83ea0:	f9003801 	str	x1, [x0, #112]
   83ea4:	b0000020 	adrp	x0, 88000 <cmd_list+0x758>
   83ea8:	91286000 	add	x0, x0, #0xa18
   83eac:	f9400001 	ldr	x1, [x0]
   83eb0:	f94013e0 	ldr	x0, [sp, #32]
   83eb4:	f9003401 	str	x1, [x0, #104]
   83eb8:	f94013e0 	ldr	x0, [sp, #32]
   83ebc:	f9403800 	ldr	x0, [x0, #112]
   83ec0:	f94013e1 	ldr	x1, [sp, #32]
   83ec4:	f9003401 	str	x1, [x0, #104]
   83ec8:	f94013e0 	ldr	x0, [sp, #32]
   83ecc:	f9403400 	ldr	x0, [x0, #104]
   83ed0:	f94013e1 	ldr	x1, [sp, #32]
   83ed4:	f9003801 	str	x1, [x0, #112]
   83ed8:	97fff2d5 	bl	80a2c <unlock>
   83edc:	f94013e0 	ldr	x0, [sp, #32]
   83ee0:	a8c37bfd 	ldp	x29, x30, [sp], #48
   83ee4:	d65f03c0 	ret

0000000000083ee8 <from_el1_to_el0>:
   83ee8:	d10043ff 	sub	sp, sp, #0x10
   83eec:	f90007e0 	str	x0, [sp, #8]
   83ef0:	f94007e0 	ldr	x0, [sp, #8]
   83ef4:	d518d080 	msr	tpidr_el1, x0
   83ef8:	d518403e 	msr	elr_el1, x30
   83efc:	52806800 	mov	w0, #0x340                 	// #832
   83f00:	d5184000 	msr	spsr_el1, x0
   83f04:	f94007e0 	ldr	x0, [sp, #8]
   83f08:	f9403000 	ldr	x0, [x0, #96]
   83f0c:	d5184100 	msr	sp_el0, x0
   83f10:	f94007e0 	ldr	x0, [sp, #8]
   83f14:	f9405000 	ldr	x0, [x0, #160]
   83f18:	91400400 	add	x0, x0, #0x1, lsl #12
   83f1c:	9100001f 	mov	sp, x0
   83f20:	d69f03e0 	eret
   83f24:	d503201f 	nop
   83f28:	910043ff 	add	sp, sp, #0x10
   83f2c:	d65f03c0 	ret

0000000000083f30 <schedule>:
   83f30:	a9be7bfd 	stp	x29, x30, [sp, #-32]!
   83f34:	910003fd 	mov	x29, sp
   83f38:	97fff2b0 	bl	809f8 <lock>
   83f3c:	9400090c 	bl	8636c <get_current>
   83f40:	f9000fe0 	str	x0, [sp, #24]
   83f44:	f9400fe0 	ldr	x0, [sp, #24]
   83f48:	f9403400 	ldr	x0, [x0, #104]
   83f4c:	f9000fe0 	str	x0, [sp, #24]
   83f50:	b0000020 	adrp	x0, 88000 <cmd_list+0x758>
   83f54:	91286000 	add	x0, x0, #0xa18
   83f58:	f9400000 	ldr	x0, [x0]
   83f5c:	f9400fe1 	ldr	x1, [sp, #24]
   83f60:	eb00003f 	cmp	x1, x0
   83f64:	54ffff00 	b.eq	83f44 <schedule+0x14>  // b.none
   83f68:	97fff2b1 	bl	80a2c <unlock>
   83f6c:	94000900 	bl	8636c <get_current>
   83f70:	f9400fe1 	ldr	x1, [sp, #24]
   83f74:	940008ec 	bl	86324 <switch_to>
   83f78:	d503201f 	nop
   83f7c:	a8c27bfd 	ldp	x29, x30, [sp], #32
   83f80:	d65f03c0 	ret

0000000000083f84 <idle>:
   83f84:	a9bf7bfd 	stp	x29, x30, [sp, #-16]!
   83f88:	910003fd 	mov	x29, sp
   83f8c:	9400000f 	bl	83fc8 <kill_zombie>
   83f90:	97ffffe8 	bl	83f30 <schedule>
   83f94:	17fffffe 	b	83f8c <idle+0x8>

0000000000083f98 <thread_exit>:
   83f98:	a9bf7bfd 	stp	x29, x30, [sp, #-16]!
   83f9c:	910003fd 	mov	x29, sp
   83fa0:	97fff296 	bl	809f8 <lock>
   83fa4:	940008f2 	bl	8636c <get_current>
   83fa8:	aa0003e1 	mov	x1, x0
   83fac:	52800020 	mov	w0, #0x1                   	// #1
   83fb0:	b9009020 	str	w0, [x1, #144]
   83fb4:	97fff29e 	bl	80a2c <unlock>
   83fb8:	97ffffde 	bl	83f30 <schedule>
   83fbc:	d503201f 	nop
   83fc0:	a8c17bfd 	ldp	x29, x30, [sp], #16
   83fc4:	d65f03c0 	ret

0000000000083fc8 <kill_zombie>:
   83fc8:	a9be7bfd 	stp	x29, x30, [sp, #-32]!
   83fcc:	910003fd 	mov	x29, sp
   83fd0:	97fff28a 	bl	809f8 <lock>
   83fd4:	b0000020 	adrp	x0, 88000 <cmd_list+0x758>
   83fd8:	91286000 	add	x0, x0, #0xa18
   83fdc:	f9400000 	ldr	x0, [x0]
   83fe0:	f9403400 	ldr	x0, [x0, #104]
   83fe4:	f9000fe0 	str	x0, [sp, #24]
   83fe8:	1400001c 	b	84058 <kill_zombie+0x90>
   83fec:	f9400fe0 	ldr	x0, [sp, #24]
   83ff0:	b9409000 	ldr	w0, [x0, #144]
   83ff4:	7100001f 	cmp	w0, #0x0
   83ff8:	540002a0 	b.eq	8404c <kill_zombie+0x84>  // b.none
   83ffc:	f9400fe0 	ldr	x0, [sp, #24]
   84000:	f9403400 	ldr	x0, [x0, #104]
   84004:	f9400fe1 	ldr	x1, [sp, #24]
   84008:	f9403821 	ldr	x1, [x1, #112]
   8400c:	f9003801 	str	x1, [x0, #112]
   84010:	f9400fe0 	ldr	x0, [sp, #24]
   84014:	f9403800 	ldr	x0, [x0, #112]
   84018:	f9400fe1 	ldr	x1, [sp, #24]
   8401c:	f9403421 	ldr	x1, [x1, #104]
   84020:	f9003401 	str	x1, [x0, #104]
   84024:	f9400fe0 	ldr	x0, [sp, #24]
   84028:	f9405000 	ldr	x0, [x0, #160]
   8402c:	97fff786 	bl	81e44 <kfree>
   84030:	f9400fe0 	ldr	x0, [sp, #24]
   84034:	f9404c00 	ldr	x0, [x0, #152]
   84038:	97fff783 	bl	81e44 <kfree>
   8403c:	f9400fe0 	ldr	x0, [sp, #24]
   84040:	b9008c1f 	str	wzr, [x0, #140]
   84044:	f9400fe0 	ldr	x0, [sp, #24]
   84048:	b900901f 	str	wzr, [x0, #144]
   8404c:	f9400fe0 	ldr	x0, [sp, #24]
   84050:	f9403400 	ldr	x0, [x0, #104]
   84054:	f9000fe0 	str	x0, [sp, #24]
   84058:	90000020 	adrp	x0, 88000 <cmd_list+0x758>
   8405c:	91286000 	add	x0, x0, #0xa18
   84060:	f9400000 	ldr	x0, [x0]
   84064:	f9400fe1 	ldr	x1, [sp, #24]
   84068:	eb00003f 	cmp	x1, x0
   8406c:	54fffc01 	b.ne	83fec <kill_zombie+0x24>  // b.any
   84070:	97fff26f 	bl	80a2c <unlock>
   84074:	d503201f 	nop
   84078:	a8c27bfd 	ldp	x29, x30, [sp], #32
   8407c:	d65f03c0 	ret

0000000000084080 <thread_exec>:
   84080:	a9bd7bfd 	stp	x29, x30, [sp, #-48]!
   84084:	910003fd 	mov	x29, sp
   84088:	f9000fe0 	str	x0, [sp, #24]
   8408c:	b90017e1 	str	w1, [sp, #20]
   84090:	f9400fe0 	ldr	x0, [sp, #24]
   84094:	97ffff1d 	bl	83d08 <thread_create>
   84098:	f90017e0 	str	x0, [sp, #40]
   8409c:	f94017e0 	ldr	x0, [sp, #40]
   840a0:	b94017e1 	ldr	w1, [sp, #20]
   840a4:	b9008801 	str	w1, [x0, #136]
   840a8:	b94017e0 	ldr	w0, [sp, #20]
   840ac:	97fff756 	bl	81e04 <kmalloc>
   840b0:	aa0003e1 	mov	x1, x0
   840b4:	f94017e0 	ldr	x0, [sp, #40]
   840b8:	f9004001 	str	x1, [x0, #128]
   840bc:	f94017e0 	ldr	x0, [sp, #40]
   840c0:	f9404000 	ldr	x0, [x0, #128]
   840c4:	b94017e1 	ldr	w1, [sp, #20]
   840c8:	aa0103e2 	mov	x2, x1
   840cc:	f9400fe1 	ldr	x1, [sp, #24]
   840d0:	9400054c 	bl	85600 <memcpy>
   840d4:	f94017e0 	ldr	x0, [sp, #40]
   840d8:	f9404000 	ldr	x0, [x0, #128]
   840dc:	aa0003e1 	mov	x1, x0
   840e0:	f94017e0 	ldr	x0, [sp, #40]
   840e4:	f9002c01 	str	x1, [x0, #88]
   840e8:	f94017e0 	ldr	x0, [sp, #40]
   840ec:	d518d080 	msr	tpidr_el1, x0
   840f0:	f94017e0 	ldr	x0, [sp, #40]
   840f4:	f9402c00 	ldr	x0, [x0, #88]
   840f8:	d5184020 	msr	elr_el1, x0
   840fc:	52800000 	mov	w0, #0x0                   	// #0
   84100:	d5184000 	msr	spsr_el1, x0
   84104:	f94017e0 	ldr	x0, [sp, #40]
   84108:	f9403000 	ldr	x0, [x0, #96]
   8410c:	d5184100 	msr	sp_el0, x0
   84110:	f94017e0 	ldr	x0, [sp, #40]
   84114:	f9405000 	ldr	x0, [x0, #160]
   84118:	91400400 	add	x0, x0, #0x1, lsl #12
   8411c:	9100001f 	mov	sp, x0
   84120:	9400012c 	bl	845d0 <getTimerFreq>
   84124:	aa0003e2 	mov	x2, x0
   84128:	d0000000 	adrp	x0, 86000 <el1t_irq_invalid+0x74>
   8412c:	9127c001 	add	x1, x0, #0x9f0
   84130:	90000000 	adrp	x0, 84000 <kill_zombie+0x38>
   84134:	91053000 	add	x0, x0, #0x14c
   84138:	940000b7 	bl	84414 <add_timer>
   8413c:	d69f03e0 	eret
   84140:	d503201f 	nop
   84144:	a8c37bfd 	ldp	x29, x30, [sp], #48
   84148:	d65f03c0 	ret

000000000008414c <schedule_timer>:
   8414c:	a9bf7bfd 	stp	x29, x30, [sp, #-16]!
   84150:	910003fd 	mov	x29, sp
   84154:	9400011f 	bl	845d0 <getTimerFreq>
   84158:	9345fc00 	asr	x0, x0, #5
   8415c:	aa0003e2 	mov	x2, x0
   84160:	d0000000 	adrp	x0, 86000 <el1t_irq_invalid+0x74>
   84164:	9127e001 	add	x1, x0, #0x9f8
   84168:	90000000 	adrp	x0, 84000 <kill_zombie+0x38>
   8416c:	91053000 	add	x0, x0, #0x14c
   84170:	940000a9 	bl	84414 <add_timer>
   84174:	d503201f 	nop
   84178:	a8c17bfd 	ldp	x29, x30, [sp], #16
   8417c:	d65f03c0 	ret

0000000000084180 <foo>:
   84180:	a9be7bfd 	stp	x29, x30, [sp, #-32]!
   84184:	910003fd 	mov	x29, sp
   84188:	b9001fff 	str	wzr, [sp, #28]
   8418c:	14000017 	b	841e8 <foo+0x68>
   84190:	94000877 	bl	8636c <get_current>
   84194:	b9407800 	ldr	w0, [x0, #120]
   84198:	b9401fe2 	ldr	w2, [sp, #28]
   8419c:	2a0003e1 	mov	w1, w0
   841a0:	d0000000 	adrp	x0, 86000 <el1t_irq_invalid+0x74>
   841a4:	91282000 	add	x0, x0, #0xa08
   841a8:	940001c0 	bl	848a8 <uart_sendline>
   841ac:	b9001bff 	str	wzr, [sp, #24]
   841b0:	14000005 	b	841c4 <foo+0x44>
   841b4:	d503201f 	nop
   841b8:	b9401be0 	ldr	w0, [sp, #24]
   841bc:	11000400 	add	w0, w0, #0x1
   841c0:	b9001be0 	str	w0, [sp, #24]
   841c4:	b9401be1 	ldr	w1, [sp, #24]
   841c8:	5292cfe0 	mov	w0, #0x967f                	// #38527
   841cc:	72a01300 	movk	w0, #0x98, lsl #16
   841d0:	6b00003f 	cmp	w1, w0
   841d4:	54ffff0d 	b.le	841b4 <foo+0x34>
   841d8:	97ffff56 	bl	83f30 <schedule>
   841dc:	b9401fe0 	ldr	w0, [sp, #28]
   841e0:	11000400 	add	w0, w0, #0x1
   841e4:	b9001fe0 	str	w0, [sp, #28]
   841e8:	b9401fe0 	ldr	w0, [sp, #28]
   841ec:	7100241f 	cmp	w0, #0x9
   841f0:	54fffd0d 	b.le	84190 <foo+0x10>
   841f4:	97ffff69 	bl	83f98 <thread_exit>
   841f8:	d503201f 	nop
   841fc:	a8c27bfd 	ldp	x29, x30, [sp], #32
   84200:	d65f03c0 	ret
   84204:	00000000 	udf	#0

0000000000084208 <timer_list_init>:
   84208:	a9bf7bfd 	stp	x29, x30, [sp, #-16]!
   8420c:	910003fd 	mov	x29, sp
   84210:	52800500 	mov	w0, #0x28                  	// #40
   84214:	97fff3f7 	bl	811f0 <simple_malloc>
   84218:	aa0003e1 	mov	x1, x0
   8421c:	b0010b60 	adrp	x0, 21f1000 <_heap_stack_size+0x19f1000>
   84220:	9115e000 	add	x0, x0, #0x578
   84224:	f9000001 	str	x1, [x0]
   84228:	b0010b60 	adrp	x0, 21f1000 <_heap_stack_size+0x19f1000>
   8422c:	9115e000 	add	x0, x0, #0x578
   84230:	f9400000 	ldr	x0, [x0]
   84234:	b0010b61 	adrp	x1, 21f1000 <_heap_stack_size+0x19f1000>
   84238:	9115e021 	add	x1, x1, #0x578
   8423c:	f9400021 	ldr	x1, [x1]
   84240:	f9000001 	str	x1, [x0]
   84244:	b0010b60 	adrp	x0, 21f1000 <_heap_stack_size+0x19f1000>
   84248:	9115e000 	add	x0, x0, #0x578
   8424c:	f9400000 	ldr	x0, [x0]
   84250:	b0010b61 	adrp	x1, 21f1000 <_heap_stack_size+0x19f1000>
   84254:	9115e021 	add	x1, x1, #0x578
   84258:	f9400021 	ldr	x1, [x1]
   8425c:	f9000401 	str	x1, [x0, #8]
   84260:	d503201f 	nop
   84264:	a8c17bfd 	ldp	x29, x30, [sp], #16
   84268:	d65f03c0 	ret

000000000008426c <timer_list_insert_front>:
   8426c:	d10043ff 	sub	sp, sp, #0x10
   84270:	f90007e0 	str	x0, [sp, #8]
   84274:	f90003e1 	str	x1, [sp]
   84278:	f94003e0 	ldr	x0, [sp]
   8427c:	f9400401 	ldr	x1, [x0, #8]
   84280:	f94007e0 	ldr	x0, [sp, #8]
   84284:	f9000401 	str	x1, [x0, #8]
   84288:	f94007e0 	ldr	x0, [sp, #8]
   8428c:	f94003e1 	ldr	x1, [sp]
   84290:	f9000001 	str	x1, [x0]
   84294:	f94003e0 	ldr	x0, [sp]
   84298:	f9400400 	ldr	x0, [x0, #8]
   8429c:	f94007e1 	ldr	x1, [sp, #8]
   842a0:	f9000001 	str	x1, [x0]
   842a4:	f94003e0 	ldr	x0, [sp]
   842a8:	f94007e1 	ldr	x1, [sp, #8]
   842ac:	f9000401 	str	x1, [x0, #8]
   842b0:	d503201f 	nop
   842b4:	910043ff 	add	sp, sp, #0x10
   842b8:	d65f03c0 	ret

00000000000842bc <timer_init_interrupt>:
   842bc:	d10043ff 	sub	sp, sp, #0x10
   842c0:	d2800020 	mov	x0, #0x1                   	// #1
   842c4:	d51be220 	msr	cntp_ctl_el0, x0
   842c8:	d53be000 	mrs	x0, cntfrq_el0
   842cc:	9345fc00 	asr	x0, x0, #5
   842d0:	d51be200 	msr	cntp_tval_el0, x0
   842d4:	d2800040 	mov	x0, #0x2                   	// #2
   842d8:	58001881 	ldr	x1, 845e8 <getTimerFreq+0x18>
   842dc:	b9000020 	str	w0, [x1]
   842e0:	d538e100 	mrs	x0, cntkctl_el1
   842e4:	f90007e0 	str	x0, [sp, #8]
   842e8:	f94007e0 	ldr	x0, [sp, #8]
   842ec:	b2400000 	orr	x0, x0, #0x1
   842f0:	f90007e0 	str	x0, [sp, #8]
   842f4:	f94007e0 	ldr	x0, [sp, #8]
   842f8:	d518e100 	msr	cntkctl_el1, x0
   842fc:	d503201f 	nop
   84300:	910043ff 	add	sp, sp, #0x10
   84304:	d65f03c0 	ret

0000000000084308 <timer_enable_interrupt>:
   84308:	d2800020 	mov	x0, #0x1                   	// #1
   8430c:	d51be220 	msr	cntp_ctl_el0, x0
   84310:	d503201f 	nop
   84314:	d65f03c0 	ret

0000000000084318 <timer_disable_interrupt>:
   84318:	d2800000 	mov	x0, #0x0                   	// #0
   8431c:	d51be220 	msr	cntp_ctl_el0, x0
   84320:	d503201f 	nop
   84324:	d65f03c0 	ret

0000000000084328 <timer_handler>:
   84328:	a9be7bfd 	stp	x29, x30, [sp, #-32]!
   8432c:	910003fd 	mov	x29, sp
   84330:	b0010b60 	adrp	x0, 21f1000 <_heap_stack_size+0x19f1000>
   84334:	9115e000 	add	x0, x0, #0x578
   84338:	f9400000 	ldr	x0, [x0]
   8433c:	f9400000 	ldr	x0, [x0]
   84340:	f9000fe0 	str	x0, [sp, #24]
   84344:	b0010b60 	adrp	x0, 21f1000 <_heap_stack_size+0x19f1000>
   84348:	9115e000 	add	x0, x0, #0x578
   8434c:	f9400000 	ldr	x0, [x0]
   84350:	f9400001 	ldr	x1, [x0]
   84354:	b0010b60 	adrp	x0, 21f1000 <_heap_stack_size+0x19f1000>
   84358:	9115e000 	add	x0, x0, #0x578
   8435c:	f9400000 	ldr	x0, [x0]
   84360:	eb00003f 	cmp	x1, x0
   84364:	540002c0 	b.eq	843bc <timer_handler+0x94>  // b.none
   84368:	f9400fe0 	ldr	x0, [sp, #24]
   8436c:	f9400c00 	ldr	x0, [x0, #24]
   84370:	aa0003e1 	mov	x1, x0
   84374:	f9400fe0 	ldr	x0, [sp, #24]
   84378:	f9401000 	ldr	x0, [x0, #32]
   8437c:	d63f0020 	blr	x1
   84380:	f9400fe0 	ldr	x0, [sp, #24]
   84384:	f9400400 	ldr	x0, [x0, #8]
   84388:	f9400fe1 	ldr	x1, [sp, #24]
   8438c:	f9400021 	ldr	x1, [x1]
   84390:	f9000001 	str	x1, [x0]
   84394:	f9400fe0 	ldr	x0, [sp, #24]
   84398:	f9400000 	ldr	x0, [x0]
   8439c:	f9400fe1 	ldr	x1, [sp, #24]
   843a0:	f9400421 	ldr	x1, [x1, #8]
   843a4:	f9000401 	str	x1, [x0, #8]
   843a8:	f9400fe0 	ldr	x0, [sp, #24]
   843ac:	f9401000 	ldr	x0, [x0, #32]
   843b0:	97fff3aa 	bl	81258 <free>
   843b4:	f9400fe0 	ldr	x0, [sp, #24]
   843b8:	97fff3a8 	bl	81258 <free>
   843bc:	b0010b60 	adrp	x0, 21f1000 <_heap_stack_size+0x19f1000>
   843c0:	9115e000 	add	x0, x0, #0x578
   843c4:	f9400000 	ldr	x0, [x0]
   843c8:	f9400001 	ldr	x1, [x0]
   843cc:	b0010b60 	adrp	x0, 21f1000 <_heap_stack_size+0x19f1000>
   843d0:	9115e000 	add	x0, x0, #0x578
   843d4:	f9400000 	ldr	x0, [x0]
   843d8:	eb00003f 	cmp	x1, x0
   843dc:	54000100 	b.eq	843fc <timer_handler+0xd4>  // b.none
   843e0:	b0010b60 	adrp	x0, 21f1000 <_heap_stack_size+0x19f1000>
   843e4:	9115e000 	add	x0, x0, #0x578
   843e8:	f9400000 	ldr	x0, [x0]
   843ec:	f9400000 	ldr	x0, [x0]
   843f0:	f9400800 	ldr	x0, [x0, #16]
   843f4:	94000070 	bl	845b4 <set_timer_interrupt_by_tick>
   843f8:	14000004 	b	84408 <timer_handler+0xe0>
   843fc:	d290d3e0 	mov	x0, #0x869f                	// #34463
   84400:	f2a00020 	movk	x0, #0x1, lsl #16
   84404:	94000063 	bl	84590 <set_timer_interrupt>
   84408:	d503201f 	nop
   8440c:	a8c27bfd 	ldp	x29, x30, [sp], #32
   84410:	d65f03c0 	ret

0000000000084414 <add_timer>:
   84414:	a9bb7bfd 	stp	x29, x30, [sp, #-80]!
   84418:	910003fd 	mov	x29, sp
   8441c:	f90017e0 	str	x0, [sp, #40]
   84420:	f90013e1 	str	x1, [sp, #32]
   84424:	f9000fe2 	str	x2, [sp, #24]
   84428:	52800500 	mov	w0, #0x28                  	// #40
   8442c:	97fff371 	bl	811f0 <simple_malloc>
   84430:	f90023e0 	str	x0, [sp, #64]
   84434:	b0010b60 	adrp	x0, 21f1000 <_heap_stack_size+0x19f1000>
   84438:	9115e000 	add	x0, x0, #0x578
   8443c:	f9400001 	ldr	x1, [x0]
   84440:	f94023e0 	ldr	x0, [sp, #64]
   84444:	f9000001 	str	x1, [x0]
   84448:	b0010b60 	adrp	x0, 21f1000 <_heap_stack_size+0x19f1000>
   8444c:	9115e000 	add	x0, x0, #0x578
   84450:	f9400001 	ldr	x1, [x0]
   84454:	f94023e0 	ldr	x0, [sp, #64]
   84458:	f9000401 	str	x1, [x0, #8]
   8445c:	f94023e0 	ldr	x0, [sp, #64]
   84460:	f94017e1 	ldr	x1, [sp, #40]
   84464:	f9000c01 	str	x1, [x0, #24]
   84468:	d53be020 	mrs	x0, cntpct_el0
   8446c:	f9001fe0 	str	x0, [sp, #56]
   84470:	f9400fe1 	ldr	x1, [sp, #24]
   84474:	f9401fe0 	ldr	x0, [sp, #56]
   84478:	8b000021 	add	x1, x1, x0
   8447c:	f94023e0 	ldr	x0, [sp, #64]
   84480:	f9000801 	str	x1, [x0, #16]
   84484:	f94013e0 	ldr	x0, [sp, #32]
   84488:	940003a3 	bl	85314 <strlen>
   8448c:	11000400 	add	w0, w0, #0x1
   84490:	97fff358 	bl	811f0 <simple_malloc>
   84494:	aa0003e1 	mov	x1, x0
   84498:	f94023e0 	ldr	x0, [sp, #64]
   8449c:	f9001001 	str	x1, [x0, #32]
   844a0:	f94023e0 	ldr	x0, [sp, #64]
   844a4:	f9401000 	ldr	x0, [x0, #32]
   844a8:	f94013e1 	ldr	x1, [sp, #32]
   844ac:	9400046e 	bl	85664 <strcpy>
   844b0:	b0010b60 	adrp	x0, 21f1000 <_heap_stack_size+0x19f1000>
   844b4:	9115e000 	add	x0, x0, #0x578
   844b8:	f9400000 	ldr	x0, [x0]
   844bc:	f9400000 	ldr	x0, [x0]
   844c0:	f90027e0 	str	x0, [sp, #72]
   844c4:	1400000e 	b	844fc <add_timer+0xe8>
   844c8:	f94023e0 	ldr	x0, [sp, #64]
   844cc:	f9400801 	ldr	x1, [x0, #16]
   844d0:	f94027e0 	ldr	x0, [sp, #72]
   844d4:	f9400800 	ldr	x0, [x0, #16]
   844d8:	eb00003f 	cmp	x1, x0
   844dc:	540000a2 	b.cs	844f0 <add_timer+0xdc>  // b.hs, b.nlast
   844e0:	f94027e1 	ldr	x1, [sp, #72]
   844e4:	f94023e0 	ldr	x0, [sp, #64]
   844e8:	97ffff61 	bl	8426c <timer_list_insert_front>
   844ec:	1400000a 	b	84514 <add_timer+0x100>
   844f0:	f94027e0 	ldr	x0, [sp, #72]
   844f4:	f9400000 	ldr	x0, [x0]
   844f8:	f90027e0 	str	x0, [sp, #72]
   844fc:	b0010b60 	adrp	x0, 21f1000 <_heap_stack_size+0x19f1000>
   84500:	9115e000 	add	x0, x0, #0x578
   84504:	f9400000 	ldr	x0, [x0]
   84508:	f94027e1 	ldr	x1, [sp, #72]
   8450c:	eb00003f 	cmp	x1, x0
   84510:	54fffdc1 	b.ne	844c8 <add_timer+0xb4>  // b.any
   84514:	b0010b60 	adrp	x0, 21f1000 <_heap_stack_size+0x19f1000>
   84518:	9115e000 	add	x0, x0, #0x578
   8451c:	f9400000 	ldr	x0, [x0]
   84520:	f94027e1 	ldr	x1, [sp, #72]
   84524:	eb00003f 	cmp	x1, x0
   84528:	540000e1 	b.ne	84544 <add_timer+0x130>  // b.any
   8452c:	b0010b60 	adrp	x0, 21f1000 <_heap_stack_size+0x19f1000>
   84530:	9115e000 	add	x0, x0, #0x578
   84534:	f9400000 	ldr	x0, [x0]
   84538:	aa0003e1 	mov	x1, x0
   8453c:	f94023e0 	ldr	x0, [sp, #64]
   84540:	97ffff4b 	bl	8426c <timer_list_insert_front>
   84544:	b0010b60 	adrp	x0, 21f1000 <_heap_stack_size+0x19f1000>
   84548:	9115e000 	add	x0, x0, #0x578
   8454c:	f9400000 	ldr	x0, [x0]
   84550:	f9400000 	ldr	x0, [x0]
   84554:	f9400800 	ldr	x0, [x0, #16]
   84558:	94000017 	bl	845b4 <set_timer_interrupt_by_tick>
   8455c:	d503201f 	nop
   84560:	a8c57bfd 	ldp	x29, x30, [sp], #80
   84564:	d65f03c0 	ret

0000000000084568 <timer_print_msg>:
   84568:	a9be7bfd 	stp	x29, x30, [sp, #-32]!
   8456c:	910003fd 	mov	x29, sp
   84570:	f9000fe0 	str	x0, [sp, #24]
   84574:	f9400fe1 	ldr	x1, [sp, #24]
   84578:	d0000000 	adrp	x0, 86000 <el1t_irq_invalid+0x74>
   8457c:	91288000 	add	x0, x0, #0xa20
   84580:	940000ca 	bl	848a8 <uart_sendline>
   84584:	d503201f 	nop
   84588:	a8c27bfd 	ldp	x29, x30, [sp], #32
   8458c:	d65f03c0 	ret

0000000000084590 <set_timer_interrupt>:
   84590:	d10043ff 	sub	sp, sp, #0x10
   84594:	f90007e0 	str	x0, [sp, #8]
   84598:	d53be001 	mrs	x1, cntfrq_el0
   8459c:	f94007e0 	ldr	x0, [sp, #8]
   845a0:	9b007c21 	mul	x1, x1, x0
   845a4:	d51be241 	msr	cntp_cval_el0, x1
   845a8:	d503201f 	nop
   845ac:	910043ff 	add	sp, sp, #0x10
   845b0:	d65f03c0 	ret

00000000000845b4 <set_timer_interrupt_by_tick>:
   845b4:	d10043ff 	sub	sp, sp, #0x10
   845b8:	f90007e0 	str	x0, [sp, #8]
   845bc:	f94007e0 	ldr	x0, [sp, #8]
   845c0:	d51be240 	msr	cntp_cval_el0, x0
   845c4:	d503201f 	nop
   845c8:	910043ff 	add	sp, sp, #0x10
   845cc:	d65f03c0 	ret

00000000000845d0 <getTimerFreq>:
   845d0:	d10043ff 	sub	sp, sp, #0x10
   845d4:	d53be000 	mrs	x0, cntfrq_el0
   845d8:	f90007e0 	str	x0, [sp, #8]
   845dc:	f94007e0 	ldr	x0, [sp, #8]
   845e0:	910043ff 	add	sp, sp, #0x10
   845e4:	d65f03c0 	ret
   845e8:	40000040 	.inst	0x40000040 ; undefined
   845ec:	00000000 	udf	#0

00000000000845f0 <uart_init>:
   845f0:	f81f0ff3 	str	x19, [sp, #-16]!
   845f4:	d28a0080 	mov	x0, #0x5004                	// #20484
   845f8:	f2a7e420 	movk	x0, #0x3f21, lsl #16
   845fc:	b9400001 	ldr	w1, [x0]
   84600:	d28a0080 	mov	x0, #0x5004                	// #20484
   84604:	f2a7e420 	movk	x0, #0x3f21, lsl #16
   84608:	32000021 	orr	w1, w1, #0x1
   8460c:	b9000001 	str	w1, [x0]
   84610:	d28a0c00 	mov	x0, #0x5060                	// #20576
   84614:	f2a7e420 	movk	x0, #0x3f21, lsl #16
   84618:	b900001f 	str	wzr, [x0]
   8461c:	d28a0880 	mov	x0, #0x5044                	// #20548
   84620:	f2a7e420 	movk	x0, #0x3f21, lsl #16
   84624:	b900001f 	str	wzr, [x0]
   84628:	d28a0980 	mov	x0, #0x504c                	// #20556
   8462c:	f2a7e420 	movk	x0, #0x3f21, lsl #16
   84630:	52800061 	mov	w1, #0x3                   	// #3
   84634:	b9000001 	str	w1, [x0]
   84638:	d28a0a00 	mov	x0, #0x5050                	// #20560
   8463c:	f2a7e420 	movk	x0, #0x3f21, lsl #16
   84640:	b900001f 	str	wzr, [x0]
   84644:	d28a0d00 	mov	x0, #0x5068                	// #20584
   84648:	f2a7e420 	movk	x0, #0x3f21, lsl #16
   8464c:	528021c1 	mov	w1, #0x10e                 	// #270
   84650:	b9000001 	str	w1, [x0]
   84654:	d28a0900 	mov	x0, #0x5048                	// #20552
   84658:	f2a7e420 	movk	x0, #0x3f21, lsl #16
   8465c:	528000c1 	mov	w1, #0x6                   	// #6
   84660:	b9000001 	str	w1, [x0]
   84664:	d2800080 	mov	x0, #0x4                   	// #4
   84668:	f2a7e400 	movk	x0, #0x3f20, lsl #16
   8466c:	b9400013 	ldr	w19, [x0]
   84670:	12117273 	and	w19, w19, #0xffff8fff
   84674:	32130273 	orr	w19, w19, #0x2000
   84678:	120e7273 	and	w19, w19, #0xfffc7fff
   8467c:	32100273 	orr	w19, w19, #0x10000
   84680:	d2800080 	mov	x0, #0x4                   	// #4
   84684:	f2a7e400 	movk	x0, #0x3f20, lsl #16
   84688:	b9000013 	str	w19, [x0]
   8468c:	d2801280 	mov	x0, #0x94                  	// #148
   84690:	f2a7e400 	movk	x0, #0x3f20, lsl #16
   84694:	b900001f 	str	wzr, [x0]
   84698:	528012d3 	mov	w19, #0x96                  	// #150
   8469c:	14000002 	b	846a4 <uart_init+0xb4>
   846a0:	d503201f 	nop
   846a4:	2a1303e0 	mov	w0, w19
   846a8:	51000413 	sub	w19, w0, #0x1
   846ac:	7100001f 	cmp	w0, #0x0
   846b0:	54ffff81 	b.ne	846a0 <uart_init+0xb0>  // b.any
   846b4:	d2801300 	mov	x0, #0x98                  	// #152
   846b8:	f2a7e400 	movk	x0, #0x3f20, lsl #16
   846bc:	52980001 	mov	w1, #0xc000                	// #49152
   846c0:	b9000001 	str	w1, [x0]
   846c4:	528012d3 	mov	w19, #0x96                  	// #150
   846c8:	14000002 	b	846d0 <uart_init+0xe0>
   846cc:	d503201f 	nop
   846d0:	2a1303e0 	mov	w0, w19
   846d4:	51000413 	sub	w19, w0, #0x1
   846d8:	7100001f 	cmp	w0, #0x0
   846dc:	54ffff81 	b.ne	846cc <uart_init+0xdc>  // b.any
   846e0:	d2801300 	mov	x0, #0x98                  	// #152
   846e4:	f2a7e400 	movk	x0, #0x3f20, lsl #16
   846e8:	b900001f 	str	wzr, [x0]
   846ec:	d28a0c00 	mov	x0, #0x5060                	// #20576
   846f0:	f2a7e420 	movk	x0, #0x3f21, lsl #16
   846f4:	52800061 	mov	w1, #0x3                   	// #3
   846f8:	b9000001 	str	w1, [x0]
   846fc:	d2964200 	mov	x0, #0xb210                	// #45584
   84700:	f2a7e000 	movk	x0, #0x3f00, lsl #16
   84704:	b9400001 	ldr	w1, [x0]
   84708:	d2964200 	mov	x0, #0xb210                	// #45584
   8470c:	f2a7e000 	movk	x0, #0x3f00, lsl #16
   84710:	32030021 	orr	w1, w1, #0x20000000
   84714:	b9000001 	str	w1, [x0]
   84718:	d503201f 	nop
   8471c:	f84107f3 	ldr	x19, [sp], #16
   84720:	d65f03c0 	ret

0000000000084724 <uart_getc>:
   84724:	d10043ff 	sub	sp, sp, #0x10
   84728:	d503201f 	nop
   8472c:	d28a0a80 	mov	x0, #0x5054                	// #20564
   84730:	f2a7e420 	movk	x0, #0x3f21, lsl #16
   84734:	b9400000 	ldr	w0, [x0]
   84738:	12000000 	and	w0, w0, #0x1
   8473c:	7100001f 	cmp	w0, #0x0
   84740:	54ffff60 	b.eq	8472c <uart_getc+0x8>  // b.none
   84744:	d28a0800 	mov	x0, #0x5040                	// #20544
   84748:	f2a7e420 	movk	x0, #0x3f21, lsl #16
   8474c:	b9400000 	ldr	w0, [x0]
   84750:	39003fe0 	strb	w0, [sp, #15]
   84754:	39403fe0 	ldrb	w0, [sp, #15]
   84758:	910043ff 	add	sp, sp, #0x10
   8475c:	d65f03c0 	ret

0000000000084760 <uart_recv>:
   84760:	a9be7bfd 	stp	x29, x30, [sp, #-32]!
   84764:	910003fd 	mov	x29, sp
   84768:	d503201f 	nop
   8476c:	d28a0a80 	mov	x0, #0x5054                	// #20564
   84770:	f2a7e420 	movk	x0, #0x3f21, lsl #16
   84774:	b9400000 	ldr	w0, [x0]
   84778:	12000000 	and	w0, w0, #0x1
   8477c:	7100001f 	cmp	w0, #0x0
   84780:	54ffff60 	b.eq	8476c <uart_recv+0xc>  // b.none
   84784:	d28a0800 	mov	x0, #0x5040                	// #20544
   84788:	f2a7e420 	movk	x0, #0x3f21, lsl #16
   8478c:	b9400000 	ldr	w0, [x0]
   84790:	39007fe0 	strb	w0, [sp, #31]
   84794:	90000020 	adrp	x0, 88000 <cmd_list+0x758>
   84798:	911ea000 	add	x0, x0, #0x7a8
   8479c:	b9400000 	ldr	w0, [x0]
   847a0:	7100001f 	cmp	w0, #0x0
   847a4:	54000100 	b.eq	847c4 <uart_recv+0x64>  // b.none
   847a8:	39407fe0 	ldrb	w0, [sp, #31]
   847ac:	9400000e 	bl	847e4 <uart_send>
   847b0:	39407fe0 	ldrb	w0, [sp, #31]
   847b4:	7100341f 	cmp	w0, #0xd
   847b8:	54000061 	b.ne	847c4 <uart_recv+0x64>  // b.any
   847bc:	52800140 	mov	w0, #0xa                   	// #10
   847c0:	94000009 	bl	847e4 <uart_send>
   847c4:	39407fe0 	ldrb	w0, [sp, #31]
   847c8:	7100341f 	cmp	w0, #0xd
   847cc:	54000060 	b.eq	847d8 <uart_recv+0x78>  // b.none
   847d0:	39407fe0 	ldrb	w0, [sp, #31]
   847d4:	14000002 	b	847dc <uart_recv+0x7c>
   847d8:	52800140 	mov	w0, #0xa                   	// #10
   847dc:	a8c27bfd 	ldp	x29, x30, [sp], #32
   847e0:	d65f03c0 	ret

00000000000847e4 <uart_send>:
   847e4:	d10043ff 	sub	sp, sp, #0x10
   847e8:	39003fe0 	strb	w0, [sp, #15]
   847ec:	d503201f 	nop
   847f0:	d28a0a80 	mov	x0, #0x5054                	// #20564
   847f4:	f2a7e420 	movk	x0, #0x3f21, lsl #16
   847f8:	b9400000 	ldr	w0, [x0]
   847fc:	121b0000 	and	w0, w0, #0x20
   84800:	7100001f 	cmp	w0, #0x0
   84804:	54ffff60 	b.eq	847f0 <uart_send+0xc>  // b.none
   84808:	d28a0800 	mov	x0, #0x5040                	// #20544
   8480c:	f2a7e420 	movk	x0, #0x3f21, lsl #16
   84810:	39403fe1 	ldrb	w1, [sp, #15]
   84814:	b9000001 	str	w1, [x0]
   84818:	d503201f 	nop
   8481c:	910043ff 	add	sp, sp, #0x10
   84820:	d65f03c0 	ret

0000000000084824 <uart_2hex>:
   84824:	a9bd7bfd 	stp	x29, x30, [sp, #-48]!
   84828:	910003fd 	mov	x29, sp
   8482c:	b9001fe0 	str	w0, [sp, #28]
   84830:	52800380 	mov	w0, #0x1c                  	// #28
   84834:	b9002fe0 	str	w0, [sp, #44]
   84838:	14000015 	b	8488c <uart_2hex+0x68>
   8483c:	b9402fe0 	ldr	w0, [sp, #44]
   84840:	b9401fe1 	ldr	w1, [sp, #28]
   84844:	1ac02420 	lsr	w0, w1, w0
   84848:	12000c00 	and	w0, w0, #0xf
   8484c:	b9002be0 	str	w0, [sp, #40]
   84850:	b9402be0 	ldr	w0, [sp, #40]
   84854:	7100241f 	cmp	w0, #0x9
   84858:	54000069 	b.ls	84864 <uart_2hex+0x40>  // b.plast
   8485c:	528006e0 	mov	w0, #0x37                  	// #55
   84860:	14000002 	b	84868 <uart_2hex+0x44>
   84864:	52800600 	mov	w0, #0x30                  	// #48
   84868:	b9402be1 	ldr	w1, [sp, #40]
   8486c:	0b000020 	add	w0, w1, w0
   84870:	b9002be0 	str	w0, [sp, #40]
   84874:	b9402be0 	ldr	w0, [sp, #40]
   84878:	12001c00 	and	w0, w0, #0xff
   8487c:	97ffffda 	bl	847e4 <uart_send>
   84880:	b9402fe0 	ldr	w0, [sp, #44]
   84884:	51001000 	sub	w0, w0, #0x4
   84888:	b9002fe0 	str	w0, [sp, #44]
   8488c:	b9402fe0 	ldr	w0, [sp, #44]
   84890:	7100001f 	cmp	w0, #0x0
   84894:	54fffd4a 	b.ge	8483c <uart_2hex+0x18>  // b.tcont
   84898:	d503201f 	nop
   8489c:	d503201f 	nop
   848a0:	a8c37bfd 	ldp	x29, x30, [sp], #48
   848a4:	d65f03c0 	ret

00000000000848a8 <uart_sendline>:
   848a8:	a9a57bfd 	stp	x29, x30, [sp, #-432]!
   848ac:	910003fd 	mov	x29, sp
   848b0:	f9001fe0 	str	x0, [sp, #56]
   848b4:	f900bfe1 	str	x1, [sp, #376]
   848b8:	f900c3e2 	str	x2, [sp, #384]
   848bc:	f900c7e3 	str	x3, [sp, #392]
   848c0:	f900cbe4 	str	x4, [sp, #400]
   848c4:	f900cfe5 	str	x5, [sp, #408]
   848c8:	f900d3e6 	str	x6, [sp, #416]
   848cc:	f900d7e7 	str	x7, [sp, #424]
   848d0:	9106c3e0 	add	x0, sp, #0x1b0
   848d4:	f900a3e0 	str	x0, [sp, #320]
   848d8:	9106c3e0 	add	x0, sp, #0x1b0
   848dc:	f900a7e0 	str	x0, [sp, #328]
   848e0:	9105c3e0 	add	x0, sp, #0x170
   848e4:	f900abe0 	str	x0, [sp, #336]
   848e8:	128006e0 	mov	w0, #0xffffffc8            	// #-56
   848ec:	b9015be0 	str	w0, [sp, #344]
   848f0:	b9015fff 	str	wzr, [sp, #348]
   848f4:	910103e0 	add	x0, sp, #0x40
   848f8:	f900b7e0 	str	x0, [sp, #360]
   848fc:	910043e2 	add	x2, sp, #0x10
   84900:	910503e3 	add	x3, sp, #0x140
   84904:	a9400460 	ldp	x0, x1, [x3]
   84908:	a9000440 	stp	x0, x1, [x2]
   8490c:	a9410460 	ldp	x0, x1, [x3, #16]
   84910:	a9010440 	stp	x0, x1, [x2, #16]
   84914:	910043e0 	add	x0, sp, #0x10
   84918:	aa0003e2 	mov	x2, x0
   8491c:	f9401fe1 	ldr	x1, [sp, #56]
   84920:	f940b7e0 	ldr	x0, [sp, #360]
   84924:	940000e1 	bl	84ca8 <vsprintf>
   84928:	b90167e0 	str	w0, [sp, #356]
   8492c:	1400000c 	b	8495c <uart_sendline+0xb4>
   84930:	f940b7e0 	ldr	x0, [sp, #360]
   84934:	39400000 	ldrb	w0, [x0]
   84938:	7100281f 	cmp	w0, #0xa
   8493c:	54000061 	b.ne	84948 <uart_sendline+0xa0>  // b.any
   84940:	528001a0 	mov	w0, #0xd                   	// #13
   84944:	97ffffa8 	bl	847e4 <uart_send>
   84948:	f940b7e0 	ldr	x0, [sp, #360]
   8494c:	91000401 	add	x1, x0, #0x1
   84950:	f900b7e1 	str	x1, [sp, #360]
   84954:	39400000 	ldrb	w0, [x0]
   84958:	97ffffa3 	bl	847e4 <uart_send>
   8495c:	f940b7e0 	ldr	x0, [sp, #360]
   84960:	39400000 	ldrb	w0, [x0]
   84964:	7100001f 	cmp	w0, #0x0
   84968:	54fffe41 	b.ne	84930 <uart_sendline+0x88>  // b.any
   8496c:	b94167e0 	ldr	w0, [sp, #356]
   84970:	a8db7bfd 	ldp	x29, x30, [sp], #432
   84974:	d65f03c0 	ret

0000000000084978 <uart_tx_irq_handler>:
   84978:	a9bf7bfd 	stp	x29, x30, [sp, #-16]!
   8497c:	910003fd 	mov	x29, sp
   84980:	b0010b60 	adrp	x0, 21f1000 <_heap_stack_size+0x19f1000>
   84984:	911e1000 	add	x0, x0, #0x784
   84988:	b9400001 	ldr	w1, [x0]
   8498c:	b0010b60 	adrp	x0, 21f1000 <_heap_stack_size+0x19f1000>
   84990:	911e0000 	add	x0, x0, #0x780
   84994:	b9400000 	ldr	w0, [x0]
   84998:	6b00003f 	cmp	w1, w0
   8499c:	54000061 	b.ne	849a8 <uart_tx_irq_handler+0x30>  // b.any
   849a0:	940000b9 	bl	84c84 <uart_tx_irq_disable>
   849a4:	14000020 	b	84a24 <uart_tx_irq_handler+0xac>
   849a8:	940000b7 	bl	84c84 <uart_tx_irq_disable>
   849ac:	14000016 	b	84a04 <uart_tx_irq_handler+0x8c>
   849b0:	b0010b60 	adrp	x0, 21f1000 <_heap_stack_size+0x19f1000>
   849b4:	911e0000 	add	x0, x0, #0x780
   849b8:	b9400000 	ldr	w0, [x0]
   849bc:	11000402 	add	w2, w0, #0x1
   849c0:	b0010b61 	adrp	x1, 21f1000 <_heap_stack_size+0x19f1000>
   849c4:	911e0021 	add	x1, x1, #0x780
   849c8:	b9000022 	str	w2, [x1]
   849cc:	b0010b61 	adrp	x1, 21f1000 <_heap_stack_size+0x19f1000>
   849d0:	91160021 	add	x1, x1, #0x580
   849d4:	2a0003e0 	mov	w0, w0
   849d8:	38606821 	ldrb	w1, [x1, x0]
   849dc:	d28a0800 	mov	x0, #0x5040                	// #20544
   849e0:	f2a7e420 	movk	x0, #0x3f21, lsl #16
   849e4:	b9000001 	str	w1, [x0]
   849e8:	b0010b60 	adrp	x0, 21f1000 <_heap_stack_size+0x19f1000>
   849ec:	911e0000 	add	x0, x0, #0x780
   849f0:	b9400000 	ldr	w0, [x0]
   849f4:	12001c01 	and	w1, w0, #0xff
   849f8:	b0010b60 	adrp	x0, 21f1000 <_heap_stack_size+0x19f1000>
   849fc:	911e0000 	add	x0, x0, #0x780
   84a00:	b9000001 	str	w1, [x0]
   84a04:	b0010b60 	adrp	x0, 21f1000 <_heap_stack_size+0x19f1000>
   84a08:	911e0000 	add	x0, x0, #0x780
   84a0c:	b9400001 	ldr	w1, [x0]
   84a10:	b0010b60 	adrp	x0, 21f1000 <_heap_stack_size+0x19f1000>
   84a14:	911e1000 	add	x0, x0, #0x784
   84a18:	b9400000 	ldr	w0, [x0]
   84a1c:	6b00003f 	cmp	w1, w0
   84a20:	54fffc81 	b.ne	849b0 <uart_tx_irq_handler+0x38>  // b.any
   84a24:	a8c17bfd 	ldp	x29, x30, [sp], #16
   84a28:	d65f03c0 	ret

0000000000084a2c <uart_rx_irq_handler>:
   84a2c:	a9be7bfd 	stp	x29, x30, [sp, #-32]!
   84a30:	910003fd 	mov	x29, sp
   84a34:	f9000bf3 	str	x19, [sp, #16]
   84a38:	b0010b60 	adrp	x0, 21f1000 <_heap_stack_size+0x19f1000>
   84a3c:	911e3000 	add	x0, x0, #0x78c
   84a40:	b9400000 	ldr	w0, [x0]
   84a44:	11000400 	add	w0, w0, #0x1
   84a48:	12001c01 	and	w1, w0, #0xff
   84a4c:	b0010b60 	adrp	x0, 21f1000 <_heap_stack_size+0x19f1000>
   84a50:	911e2000 	add	x0, x0, #0x788
   84a54:	b9400000 	ldr	w0, [x0]
   84a58:	6b00003f 	cmp	w1, w0
   84a5c:	54000061 	b.ne	84a68 <uart_rx_irq_handler+0x3c>  // b.any
   84a60:	94000077 	bl	84c3c <uart_rx_irq_disable>
   84a64:	14000021 	b	84ae8 <uart_rx_irq_handler+0xbc>
   84a68:	94000075 	bl	84c3c <uart_rx_irq_disable>
   84a6c:	14000015 	b	84ac0 <uart_rx_irq_handler+0x94>
   84a70:	b0010b60 	adrp	x0, 21f1000 <_heap_stack_size+0x19f1000>
   84a74:	911e3000 	add	x0, x0, #0x78c
   84a78:	b9400013 	ldr	w19, [x0]
   84a7c:	11000661 	add	w1, w19, #0x1
   84a80:	b0010b60 	adrp	x0, 21f1000 <_heap_stack_size+0x19f1000>
   84a84:	911e3000 	add	x0, x0, #0x78c
   84a88:	b9000001 	str	w1, [x0]
   84a8c:	97ffff35 	bl	84760 <uart_recv>
   84a90:	12001c02 	and	w2, w0, #0xff
   84a94:	b0010b60 	adrp	x0, 21f1000 <_heap_stack_size+0x19f1000>
   84a98:	911a0001 	add	x1, x0, #0x680
   84a9c:	2a1303e0 	mov	w0, w19
   84aa0:	38206822 	strb	w2, [x1, x0]
   84aa4:	b0010b60 	adrp	x0, 21f1000 <_heap_stack_size+0x19f1000>
   84aa8:	911e3000 	add	x0, x0, #0x78c
   84aac:	b9400000 	ldr	w0, [x0]
   84ab0:	12001c01 	and	w1, w0, #0xff
   84ab4:	b0010b60 	adrp	x0, 21f1000 <_heap_stack_size+0x19f1000>
   84ab8:	911e3000 	add	x0, x0, #0x78c
   84abc:	b9000001 	str	w1, [x0]
   84ac0:	b0010b60 	adrp	x0, 21f1000 <_heap_stack_size+0x19f1000>
   84ac4:	911e2000 	add	x0, x0, #0x788
   84ac8:	b9400000 	ldr	w0, [x0]
   84acc:	11000400 	add	w0, w0, #0x1
   84ad0:	12001c01 	and	w1, w0, #0xff
   84ad4:	b0010b60 	adrp	x0, 21f1000 <_heap_stack_size+0x19f1000>
   84ad8:	911e3000 	add	x0, x0, #0x78c
   84adc:	b9400000 	ldr	w0, [x0]
   84ae0:	6b00003f 	cmp	w1, w0
   84ae4:	54fffc61 	b.ne	84a70 <uart_rx_irq_handler+0x44>  // b.any
   84ae8:	f9400bf3 	ldr	x19, [sp, #16]
   84aec:	a8c27bfd 	ldp	x29, x30, [sp], #32
   84af0:	d65f03c0 	ret

0000000000084af4 <uart_async_putc>:
   84af4:	a9be7bfd 	stp	x29, x30, [sp, #-32]!
   84af8:	910003fd 	mov	x29, sp
   84afc:	39007fe0 	strb	w0, [sp, #31]
   84b00:	d503201f 	nop
   84b04:	b0010b60 	adrp	x0, 21f1000 <_heap_stack_size+0x19f1000>
   84b08:	911e1000 	add	x0, x0, #0x784
   84b0c:	b9400000 	ldr	w0, [x0]
   84b10:	11000400 	add	w0, w0, #0x1
   84b14:	12001c01 	and	w1, w0, #0xff
   84b18:	b0010b60 	adrp	x0, 21f1000 <_heap_stack_size+0x19f1000>
   84b1c:	911e0000 	add	x0, x0, #0x780
   84b20:	b9400000 	ldr	w0, [x0]
   84b24:	6b00003f 	cmp	w1, w0
   84b28:	54fffee0 	b.eq	84b04 <uart_async_putc+0x10>  // b.none
   84b2c:	94000056 	bl	84c84 <uart_tx_irq_disable>
   84b30:	b0010b60 	adrp	x0, 21f1000 <_heap_stack_size+0x19f1000>
   84b34:	911e1000 	add	x0, x0, #0x784
   84b38:	b9400000 	ldr	w0, [x0]
   84b3c:	11000402 	add	w2, w0, #0x1
   84b40:	b0010b61 	adrp	x1, 21f1000 <_heap_stack_size+0x19f1000>
   84b44:	911e1021 	add	x1, x1, #0x784
   84b48:	b9000022 	str	w2, [x1]
   84b4c:	b0010b61 	adrp	x1, 21f1000 <_heap_stack_size+0x19f1000>
   84b50:	91160021 	add	x1, x1, #0x580
   84b54:	2a0003e0 	mov	w0, w0
   84b58:	39407fe2 	ldrb	w2, [sp, #31]
   84b5c:	38206822 	strb	w2, [x1, x0]
   84b60:	b0010b60 	adrp	x0, 21f1000 <_heap_stack_size+0x19f1000>
   84b64:	911e1000 	add	x0, x0, #0x784
   84b68:	b9400000 	ldr	w0, [x0]
   84b6c:	12001c01 	and	w1, w0, #0xff
   84b70:	b0010b60 	adrp	x0, 21f1000 <_heap_stack_size+0x19f1000>
   84b74:	911e1000 	add	x0, x0, #0x784
   84b78:	b9000001 	str	w1, [x0]
   84b7c:	94000039 	bl	84c60 <uart_tx_irq_enable>
   84b80:	d503201f 	nop
   84b84:	a8c27bfd 	ldp	x29, x30, [sp], #32
   84b88:	d65f03c0 	ret

0000000000084b8c <uart_async_getc>:
   84b8c:	a9be7bfd 	stp	x29, x30, [sp, #-32]!
   84b90:	910003fd 	mov	x29, sp
   84b94:	94000021 	bl	84c18 <uart_rx_irq_enable>
   84b98:	d503201f 	nop
   84b9c:	b0010b60 	adrp	x0, 21f1000 <_heap_stack_size+0x19f1000>
   84ba0:	911e2000 	add	x0, x0, #0x788
   84ba4:	b9400001 	ldr	w1, [x0]
   84ba8:	b0010b60 	adrp	x0, 21f1000 <_heap_stack_size+0x19f1000>
   84bac:	911e3000 	add	x0, x0, #0x78c
   84bb0:	b9400000 	ldr	w0, [x0]
   84bb4:	6b00003f 	cmp	w1, w0
   84bb8:	54ffff20 	b.eq	84b9c <uart_async_getc+0x10>  // b.none
   84bbc:	94000020 	bl	84c3c <uart_rx_irq_disable>
   84bc0:	b0010b60 	adrp	x0, 21f1000 <_heap_stack_size+0x19f1000>
   84bc4:	911e2000 	add	x0, x0, #0x788
   84bc8:	b9400000 	ldr	w0, [x0]
   84bcc:	11000402 	add	w2, w0, #0x1
   84bd0:	b0010b61 	adrp	x1, 21f1000 <_heap_stack_size+0x19f1000>
   84bd4:	911e2021 	add	x1, x1, #0x788
   84bd8:	b9000022 	str	w2, [x1]
   84bdc:	b0010b61 	adrp	x1, 21f1000 <_heap_stack_size+0x19f1000>
   84be0:	911a0021 	add	x1, x1, #0x680
   84be4:	2a0003e0 	mov	w0, w0
   84be8:	38606820 	ldrb	w0, [x1, x0]
   84bec:	39007fe0 	strb	w0, [sp, #31]
   84bf0:	b0010b60 	adrp	x0, 21f1000 <_heap_stack_size+0x19f1000>
   84bf4:	911e2000 	add	x0, x0, #0x788
   84bf8:	b9400000 	ldr	w0, [x0]
   84bfc:	12001c01 	and	w1, w0, #0xff
   84c00:	b0010b60 	adrp	x0, 21f1000 <_heap_stack_size+0x19f1000>
   84c04:	911e2000 	add	x0, x0, #0x788
   84c08:	b9000001 	str	w1, [x0]
   84c0c:	39407fe0 	ldrb	w0, [sp, #31]
   84c10:	a8c27bfd 	ldp	x29, x30, [sp], #32
   84c14:	d65f03c0 	ret

0000000000084c18 <uart_rx_irq_enable>:
   84c18:	d28a0880 	mov	x0, #0x5044                	// #20548
   84c1c:	f2a7e420 	movk	x0, #0x3f21, lsl #16
   84c20:	b9400001 	ldr	w1, [x0]
   84c24:	d28a0880 	mov	x0, #0x5044                	// #20548
   84c28:	f2a7e420 	movk	x0, #0x3f21, lsl #16
   84c2c:	32000021 	orr	w1, w1, #0x1
   84c30:	b9000001 	str	w1, [x0]
   84c34:	d503201f 	nop
   84c38:	d65f03c0 	ret

0000000000084c3c <uart_rx_irq_disable>:
   84c3c:	d28a0880 	mov	x0, #0x5044                	// #20548
   84c40:	f2a7e420 	movk	x0, #0x3f21, lsl #16
   84c44:	b9400001 	ldr	w1, [x0]
   84c48:	d28a0880 	mov	x0, #0x5044                	// #20548
   84c4c:	f2a7e420 	movk	x0, #0x3f21, lsl #16
   84c50:	121f7821 	and	w1, w1, #0xfffffffe
   84c54:	b9000001 	str	w1, [x0]
   84c58:	d503201f 	nop
   84c5c:	d65f03c0 	ret

0000000000084c60 <uart_tx_irq_enable>:
   84c60:	d28a0880 	mov	x0, #0x5044                	// #20548
   84c64:	f2a7e420 	movk	x0, #0x3f21, lsl #16
   84c68:	b9400001 	ldr	w1, [x0]
   84c6c:	d28a0880 	mov	x0, #0x5044                	// #20548
   84c70:	f2a7e420 	movk	x0, #0x3f21, lsl #16
   84c74:	321f0021 	orr	w1, w1, #0x2
   84c78:	b9000001 	str	w1, [x0]
   84c7c:	d503201f 	nop
   84c80:	d65f03c0 	ret

0000000000084c84 <uart_tx_irq_disable>:
   84c84:	d28a0880 	mov	x0, #0x5044                	// #20548
   84c88:	f2a7e420 	movk	x0, #0x3f21, lsl #16
   84c8c:	b9400001 	ldr	w1, [x0]
   84c90:	d28a0880 	mov	x0, #0x5044                	// #20548
   84c94:	f2a7e420 	movk	x0, #0x3f21, lsl #16
   84c98:	121e7821 	and	w1, w1, #0xfffffffd
   84c9c:	b9000001 	str	w1, [x0]
   84ca0:	d503201f 	nop
   84ca4:	d65f03c0 	ret

0000000000084ca8 <vsprintf>:
   84ca8:	f81a0ff3 	str	x19, [sp, #-96]!
   84cac:	f9000fe0 	str	x0, [sp, #24]
   84cb0:	f9000be1 	str	x1, [sp, #16]
   84cb4:	aa0203f3 	mov	x19, x2
   84cb8:	f9400fe0 	ldr	x0, [sp, #24]
   84cbc:	f9001fe0 	str	x0, [sp, #56]
   84cc0:	f9400fe0 	ldr	x0, [sp, #24]
   84cc4:	f100001f 	cmp	x0, #0x0
   84cc8:	54000080 	b.eq	84cd8 <vsprintf+0x30>  // b.none
   84ccc:	f9400be0 	ldr	x0, [sp, #16]
   84cd0:	f100001f 	cmp	x0, #0x0
   84cd4:	54000061 	b.ne	84ce0 <vsprintf+0x38>  // b.any
   84cd8:	52800000 	mov	w0, #0x0                   	// #0
   84cdc:	1400016a 	b	85284 <vsprintf+0x5dc>
   84ce0:	f9002fff 	str	xzr, [sp, #88]
   84ce4:	1400015f 	b	85260 <vsprintf+0x5b8>
   84ce8:	f9400fe1 	ldr	x1, [sp, #24]
   84cec:	f9401fe0 	ldr	x0, [sp, #56]
   84cf0:	cb000020 	sub	x0, x1, x0
   84cf4:	f103c01f 	cmp	x0, #0xf0
   84cf8:	5400006d 	b.le	84d04 <vsprintf+0x5c>
   84cfc:	12800000 	mov	w0, #0xffffffff            	// #-1
   84d00:	14000161 	b	85284 <vsprintf+0x5dc>
   84d04:	f9400be0 	ldr	x0, [sp, #16]
   84d08:	39400000 	ldrb	w0, [x0]
   84d0c:	7100941f 	cmp	w0, #0x25
   84d10:	54002901 	b.ne	85230 <vsprintf+0x588>  // b.any
   84d14:	f9400be0 	ldr	x0, [sp, #16]
   84d18:	91000400 	add	x0, x0, #0x1
   84d1c:	f9000be0 	str	x0, [sp, #16]
   84d20:	f9400be0 	ldr	x0, [sp, #16]
   84d24:	39400000 	ldrb	w0, [x0]
   84d28:	7100941f 	cmp	w0, #0x25
   84d2c:	54002860 	b.eq	85238 <vsprintf+0x590>  // b.none
   84d30:	b90057ff 	str	wzr, [sp, #84]
   84d34:	14000010 	b	84d74 <vsprintf+0xcc>
   84d38:	b94057e1 	ldr	w1, [sp, #84]
   84d3c:	2a0103e0 	mov	w0, w1
   84d40:	531e7400 	lsl	w0, w0, #2
   84d44:	0b010000 	add	w0, w0, w1
   84d48:	531f7800 	lsl	w0, w0, #1
   84d4c:	b90057e0 	str	w0, [sp, #84]
   84d50:	f9400be0 	ldr	x0, [sp, #16]
   84d54:	39400000 	ldrb	w0, [x0]
   84d58:	5100c000 	sub	w0, w0, #0x30
   84d5c:	b94057e1 	ldr	w1, [sp, #84]
   84d60:	0b000020 	add	w0, w1, w0
   84d64:	b90057e0 	str	w0, [sp, #84]
   84d68:	f9400be0 	ldr	x0, [sp, #16]
   84d6c:	91000400 	add	x0, x0, #0x1
   84d70:	f9000be0 	str	x0, [sp, #16]
   84d74:	f9400be0 	ldr	x0, [sp, #16]
   84d78:	39400000 	ldrb	w0, [x0]
   84d7c:	7100bc1f 	cmp	w0, #0x2f
   84d80:	540000a9 	b.ls	84d94 <vsprintf+0xec>  // b.plast
   84d84:	f9400be0 	ldr	x0, [sp, #16]
   84d88:	39400000 	ldrb	w0, [x0]
   84d8c:	7100e41f 	cmp	w0, #0x39
   84d90:	54fffd49 	b.ls	84d38 <vsprintf+0x90>  // b.plast
   84d94:	f9400be0 	ldr	x0, [sp, #16]
   84d98:	39400000 	ldrb	w0, [x0]
   84d9c:	7101b01f 	cmp	w0, #0x6c
   84da0:	54000081 	b.ne	84db0 <vsprintf+0x108>  // b.any
   84da4:	f9400be0 	ldr	x0, [sp, #16]
   84da8:	91000400 	add	x0, x0, #0x1
   84dac:	f9000be0 	str	x0, [sp, #16]
   84db0:	f9400be0 	ldr	x0, [sp, #16]
   84db4:	39400000 	ldrb	w0, [x0]
   84db8:	71018c1f 	cmp	w0, #0x63
   84dbc:	54000441 	b.ne	84e44 <vsprintf+0x19c>  // b.any
   84dc0:	b9401a61 	ldr	w1, [x19, #24]
   84dc4:	f9400260 	ldr	x0, [x19]
   84dc8:	7100003f 	cmp	w1, #0x0
   84dcc:	540000ab 	b.lt	84de0 <vsprintf+0x138>  // b.tstop
   84dd0:	91002c01 	add	x1, x0, #0xb
   84dd4:	927df021 	and	x1, x1, #0xfffffffffffffff8
   84dd8:	f9000261 	str	x1, [x19]
   84ddc:	1400000d 	b	84e10 <vsprintf+0x168>
   84de0:	11002022 	add	w2, w1, #0x8
   84de4:	b9001a62 	str	w2, [x19, #24]
   84de8:	b9401a62 	ldr	w2, [x19, #24]
   84dec:	7100005f 	cmp	w2, #0x0
   84df0:	540000ad 	b.le	84e04 <vsprintf+0x15c>
   84df4:	91002c01 	add	x1, x0, #0xb
   84df8:	927df021 	and	x1, x1, #0xfffffffffffffff8
   84dfc:	f9000261 	str	x1, [x19]
   84e00:	14000004 	b	84e10 <vsprintf+0x168>
   84e04:	f9400662 	ldr	x2, [x19, #8]
   84e08:	93407c20 	sxtw	x0, w1
   84e0c:	8b000040 	add	x0, x2, x0
   84e10:	b9400000 	ldr	w0, [x0]
   84e14:	93407c00 	sxtw	x0, w0
   84e18:	f9002fe0 	str	x0, [sp, #88]
   84e1c:	f9400fe0 	ldr	x0, [sp, #24]
   84e20:	91000401 	add	x1, x0, #0x1
   84e24:	f9000fe1 	str	x1, [sp, #24]
   84e28:	f9402fe1 	ldr	x1, [sp, #88]
   84e2c:	12001c21 	and	w1, w1, #0xff
   84e30:	39000001 	strb	w1, [x0]
   84e34:	f9400be0 	ldr	x0, [sp, #16]
   84e38:	91000400 	add	x0, x0, #0x1
   84e3c:	f9000be0 	str	x0, [sp, #16]
   84e40:	14000108 	b	85260 <vsprintf+0x5b8>
   84e44:	f9400be0 	ldr	x0, [sp, #16]
   84e48:	39400000 	ldrb	w0, [x0]
   84e4c:	7101901f 	cmp	w0, #0x64
   84e50:	54000ec1 	b.ne	85028 <vsprintf+0x380>  // b.any
   84e54:	b9401a61 	ldr	w1, [x19, #24]
   84e58:	f9400260 	ldr	x0, [x19]
   84e5c:	7100003f 	cmp	w1, #0x0
   84e60:	540000ab 	b.lt	84e74 <vsprintf+0x1cc>  // b.tstop
   84e64:	91002c01 	add	x1, x0, #0xb
   84e68:	927df021 	and	x1, x1, #0xfffffffffffffff8
   84e6c:	f9000261 	str	x1, [x19]
   84e70:	1400000d 	b	84ea4 <vsprintf+0x1fc>
   84e74:	11002022 	add	w2, w1, #0x8
   84e78:	b9001a62 	str	w2, [x19, #24]
   84e7c:	b9401a62 	ldr	w2, [x19, #24]
   84e80:	7100005f 	cmp	w2, #0x0
   84e84:	540000ad 	b.le	84e98 <vsprintf+0x1f0>
   84e88:	91002c01 	add	x1, x0, #0xb
   84e8c:	927df021 	and	x1, x1, #0xfffffffffffffff8
   84e90:	f9000261 	str	x1, [x19]
   84e94:	14000004 	b	84ea4 <vsprintf+0x1fc>
   84e98:	f9400662 	ldr	x2, [x19, #8]
   84e9c:	93407c20 	sxtw	x0, w1
   84ea0:	8b000040 	add	x0, x2, x0
   84ea4:	b9400000 	ldr	w0, [x0]
   84ea8:	93407c00 	sxtw	x0, w0
   84eac:	f9002fe0 	str	x0, [sp, #88]
   84eb0:	b90053ff 	str	wzr, [sp, #80]
   84eb4:	f9402fe0 	ldr	x0, [sp, #88]
   84eb8:	7100001f 	cmp	w0, #0x0
   84ebc:	540000ca 	b.ge	84ed4 <vsprintf+0x22c>  // b.tcont
   84ec0:	f9402fe0 	ldr	x0, [sp, #88]
   84ec4:	cb0003e0 	neg	x0, x0
   84ec8:	f9002fe0 	str	x0, [sp, #88]
   84ecc:	52800020 	mov	w0, #0x1                   	// #1
   84ed0:	b90053e0 	str	w0, [sp, #80]
   84ed4:	f9402fe1 	ldr	x1, [sp, #88]
   84ed8:	92b44ec0 	mov	x0, #0xffffffff5d89ffff    	// #-2725642241
   84edc:	f2c8af00 	movk	x0, #0x4578, lsl #32
   84ee0:	f2e02c60 	movk	x0, #0x163, lsl #48
   84ee4:	eb00003f 	cmp	x1, x0
   84ee8:	540000ad 	b.le	84efc <vsprintf+0x254>
   84eec:	92b44ec0 	mov	x0, #0xffffffff5d89ffff    	// #-2725642241
   84ef0:	f2c8af00 	movk	x0, #0x4578, lsl #32
   84ef4:	f2e02c60 	movk	x0, #0x163, lsl #48
   84ef8:	f9002fe0 	str	x0, [sp, #88]
   84efc:	52800240 	mov	w0, #0x12                  	// #18
   84f00:	b9004fe0 	str	w0, [sp, #76]
   84f04:	b9804fe0 	ldrsw	x0, [sp, #76]
   84f08:	910083e1 	add	x1, sp, #0x20
   84f0c:	3820683f 	strb	wzr, [x1, x0]
   84f10:	f9402fe1 	ldr	x1, [sp, #88]
   84f14:	b203e7e0 	mov	x0, #0x6666666666666666    	// #7378697629483820646
   84f18:	f28ccce0 	movk	x0, #0x6667
   84f1c:	9b407c20 	smulh	x0, x1, x0
   84f20:	9342fc02 	asr	x2, x0, #2
   84f24:	937ffc20 	asr	x0, x1, #63
   84f28:	cb000042 	sub	x2, x2, x0
   84f2c:	aa0203e0 	mov	x0, x2
   84f30:	d37ef400 	lsl	x0, x0, #2
   84f34:	8b020000 	add	x0, x0, x2
   84f38:	d37ff800 	lsl	x0, x0, #1
   84f3c:	cb000022 	sub	x2, x1, x0
   84f40:	12001c40 	and	w0, w2, #0xff
   84f44:	b9404fe1 	ldr	w1, [sp, #76]
   84f48:	51000421 	sub	w1, w1, #0x1
   84f4c:	b9004fe1 	str	w1, [sp, #76]
   84f50:	1100c000 	add	w0, w0, #0x30
   84f54:	12001c02 	and	w2, w0, #0xff
   84f58:	b9804fe0 	ldrsw	x0, [sp, #76]
   84f5c:	910083e1 	add	x1, sp, #0x20
   84f60:	38206822 	strb	w2, [x1, x0]
   84f64:	f9402fe0 	ldr	x0, [sp, #88]
   84f68:	b203e7e1 	mov	x1, #0x6666666666666666    	// #7378697629483820646
   84f6c:	f28ccce1 	movk	x1, #0x6667
   84f70:	9b417c01 	smulh	x1, x0, x1
   84f74:	9342fc21 	asr	x1, x1, #2
   84f78:	937ffc00 	asr	x0, x0, #63
   84f7c:	cb000020 	sub	x0, x1, x0
   84f80:	f9002fe0 	str	x0, [sp, #88]
   84f84:	f9402fe0 	ldr	x0, [sp, #88]
   84f88:	f100001f 	cmp	x0, #0x0
   84f8c:	54000080 	b.eq	84f9c <vsprintf+0x2f4>  // b.none
   84f90:	b9404fe0 	ldr	w0, [sp, #76]
   84f94:	7100001f 	cmp	w0, #0x0
   84f98:	54fffbcc 	b.gt	84f10 <vsprintf+0x268>
   84f9c:	b94053e0 	ldr	w0, [sp, #80]
   84fa0:	7100001f 	cmp	w0, #0x0
   84fa4:	54000100 	b.eq	84fc4 <vsprintf+0x31c>  // b.none
   84fa8:	b9404fe0 	ldr	w0, [sp, #76]
   84fac:	51000400 	sub	w0, w0, #0x1
   84fb0:	b9004fe0 	str	w0, [sp, #76]
   84fb4:	b9804fe0 	ldrsw	x0, [sp, #76]
   84fb8:	910083e1 	add	x1, sp, #0x20
   84fbc:	528005a2 	mov	w2, #0x2d                  	// #45
   84fc0:	38206822 	strb	w2, [x1, x0]
   84fc4:	b94057e0 	ldr	w0, [sp, #84]
   84fc8:	7100001f 	cmp	w0, #0x0
   84fcc:	5400024d 	b.le	85014 <vsprintf+0x36c>
   84fd0:	b94057e0 	ldr	w0, [sp, #84]
   84fd4:	7100441f 	cmp	w0, #0x11
   84fd8:	540001ec 	b.gt	85014 <vsprintf+0x36c>
   84fdc:	14000008 	b	84ffc <vsprintf+0x354>
   84fe0:	b9404fe0 	ldr	w0, [sp, #76]
   84fe4:	51000400 	sub	w0, w0, #0x1
   84fe8:	b9004fe0 	str	w0, [sp, #76]
   84fec:	b9804fe0 	ldrsw	x0, [sp, #76]
   84ff0:	910083e1 	add	x1, sp, #0x20
   84ff4:	52800402 	mov	w2, #0x20                  	// #32
   84ff8:	38206822 	strb	w2, [x1, x0]
   84ffc:	52800241 	mov	w1, #0x12                  	// #18
   85000:	b94057e0 	ldr	w0, [sp, #84]
   85004:	4b000020 	sub	w0, w1, w0
   85008:	b9404fe1 	ldr	w1, [sp, #76]
   8500c:	6b00003f 	cmp	w1, w0
   85010:	54fffe8c 	b.gt	84fe0 <vsprintf+0x338>
   85014:	910083e1 	add	x1, sp, #0x20
   85018:	b9804fe0 	ldrsw	x0, [sp, #76]
   8501c:	8b000020 	add	x0, x1, x0
   85020:	f90023e0 	str	x0, [sp, #64]
   85024:	1400006f 	b	851e0 <vsprintf+0x538>
   85028:	f9400be0 	ldr	x0, [sp, #16]
   8502c:	39400000 	ldrb	w0, [x0]
   85030:	7101e01f 	cmp	w0, #0x78
   85034:	54000a21 	b.ne	85178 <vsprintf+0x4d0>  // b.any
   85038:	b9401a61 	ldr	w1, [x19, #24]
   8503c:	f9400260 	ldr	x0, [x19]
   85040:	7100003f 	cmp	w1, #0x0
   85044:	540000ab 	b.lt	85058 <vsprintf+0x3b0>  // b.tstop
   85048:	91003c01 	add	x1, x0, #0xf
   8504c:	927df021 	and	x1, x1, #0xfffffffffffffff8
   85050:	f9000261 	str	x1, [x19]
   85054:	1400000d 	b	85088 <vsprintf+0x3e0>
   85058:	11002022 	add	w2, w1, #0x8
   8505c:	b9001a62 	str	w2, [x19, #24]
   85060:	b9401a62 	ldr	w2, [x19, #24]
   85064:	7100005f 	cmp	w2, #0x0
   85068:	540000ad 	b.le	8507c <vsprintf+0x3d4>
   8506c:	91003c01 	add	x1, x0, #0xf
   85070:	927df021 	and	x1, x1, #0xfffffffffffffff8
   85074:	f9000261 	str	x1, [x19]
   85078:	14000004 	b	85088 <vsprintf+0x3e0>
   8507c:	f9400662 	ldr	x2, [x19, #8]
   85080:	93407c20 	sxtw	x0, w1
   85084:	8b000040 	add	x0, x2, x0
   85088:	f9400000 	ldr	x0, [x0]
   8508c:	f9002fe0 	str	x0, [sp, #88]
   85090:	52800200 	mov	w0, #0x10                  	// #16
   85094:	b9004fe0 	str	w0, [sp, #76]
   85098:	b9804fe0 	ldrsw	x0, [sp, #76]
   8509c:	910083e1 	add	x1, sp, #0x20
   850a0:	3820683f 	strb	wzr, [x1, x0]
   850a4:	f9402fe0 	ldr	x0, [sp, #88]
   850a8:	12001c00 	and	w0, w0, #0xff
   850ac:	12000c00 	and	w0, w0, #0xf
   850b0:	3900dfe0 	strb	w0, [sp, #55]
   850b4:	3940dfe0 	ldrb	w0, [sp, #55]
   850b8:	7100241f 	cmp	w0, #0x9
   850bc:	54000069 	b.ls	850c8 <vsprintf+0x420>  // b.plast
   850c0:	528006e0 	mov	w0, #0x37                  	// #55
   850c4:	14000002 	b	850cc <vsprintf+0x424>
   850c8:	52800600 	mov	w0, #0x30                  	// #48
   850cc:	b9404fe1 	ldr	w1, [sp, #76]
   850d0:	51000421 	sub	w1, w1, #0x1
   850d4:	b9004fe1 	str	w1, [sp, #76]
   850d8:	3940dfe1 	ldrb	w1, [sp, #55]
   850dc:	0b010000 	add	w0, w0, w1
   850e0:	12001c02 	and	w2, w0, #0xff
   850e4:	b9804fe0 	ldrsw	x0, [sp, #76]
   850e8:	910083e1 	add	x1, sp, #0x20
   850ec:	38206822 	strb	w2, [x1, x0]
   850f0:	f9402fe0 	ldr	x0, [sp, #88]
   850f4:	9344fc00 	asr	x0, x0, #4
   850f8:	f9002fe0 	str	x0, [sp, #88]
   850fc:	f9402fe0 	ldr	x0, [sp, #88]
   85100:	f100001f 	cmp	x0, #0x0
   85104:	54000080 	b.eq	85114 <vsprintf+0x46c>  // b.none
   85108:	b9404fe0 	ldr	w0, [sp, #76]
   8510c:	7100001f 	cmp	w0, #0x0
   85110:	54fffcac 	b.gt	850a4 <vsprintf+0x3fc>
   85114:	b94057e0 	ldr	w0, [sp, #84]
   85118:	7100001f 	cmp	w0, #0x0
   8511c:	5400024d 	b.le	85164 <vsprintf+0x4bc>
   85120:	b94057e0 	ldr	w0, [sp, #84]
   85124:	7100401f 	cmp	w0, #0x10
   85128:	540001ec 	b.gt	85164 <vsprintf+0x4bc>
   8512c:	14000008 	b	8514c <vsprintf+0x4a4>
   85130:	b9404fe0 	ldr	w0, [sp, #76]
   85134:	51000400 	sub	w0, w0, #0x1
   85138:	b9004fe0 	str	w0, [sp, #76]
   8513c:	b9804fe0 	ldrsw	x0, [sp, #76]
   85140:	910083e1 	add	x1, sp, #0x20
   85144:	52800602 	mov	w2, #0x30                  	// #48
   85148:	38206822 	strb	w2, [x1, x0]
   8514c:	52800201 	mov	w1, #0x10                  	// #16
   85150:	b94057e0 	ldr	w0, [sp, #84]
   85154:	4b000020 	sub	w0, w1, w0
   85158:	b9404fe1 	ldr	w1, [sp, #76]
   8515c:	6b00003f 	cmp	w1, w0
   85160:	54fffe8c 	b.gt	85130 <vsprintf+0x488>
   85164:	910083e1 	add	x1, sp, #0x20
   85168:	b9804fe0 	ldrsw	x0, [sp, #76]
   8516c:	8b000020 	add	x0, x1, x0
   85170:	f90023e0 	str	x0, [sp, #64]
   85174:	1400001b 	b	851e0 <vsprintf+0x538>
   85178:	f9400be0 	ldr	x0, [sp, #16]
   8517c:	39400000 	ldrb	w0, [x0]
   85180:	7101cc1f 	cmp	w0, #0x73
   85184:	54000681 	b.ne	85254 <vsprintf+0x5ac>  // b.any
   85188:	b9401a61 	ldr	w1, [x19, #24]
   8518c:	f9400260 	ldr	x0, [x19]
   85190:	7100003f 	cmp	w1, #0x0
   85194:	540000ab 	b.lt	851a8 <vsprintf+0x500>  // b.tstop
   85198:	91003c01 	add	x1, x0, #0xf
   8519c:	927df021 	and	x1, x1, #0xfffffffffffffff8
   851a0:	f9000261 	str	x1, [x19]
   851a4:	1400000d 	b	851d8 <vsprintf+0x530>
   851a8:	11002022 	add	w2, w1, #0x8
   851ac:	b9001a62 	str	w2, [x19, #24]
   851b0:	b9401a62 	ldr	w2, [x19, #24]
   851b4:	7100005f 	cmp	w2, #0x0
   851b8:	540000ad 	b.le	851cc <vsprintf+0x524>
   851bc:	91003c01 	add	x1, x0, #0xf
   851c0:	927df021 	and	x1, x1, #0xfffffffffffffff8
   851c4:	f9000261 	str	x1, [x19]
   851c8:	14000004 	b	851d8 <vsprintf+0x530>
   851cc:	f9400662 	ldr	x2, [x19, #8]
   851d0:	93407c20 	sxtw	x0, w1
   851d4:	8b000040 	add	x0, x2, x0
   851d8:	f9400000 	ldr	x0, [x0]
   851dc:	f90023e0 	str	x0, [sp, #64]
   851e0:	f94023e0 	ldr	x0, [sp, #64]
   851e4:	f100001f 	cmp	x0, #0x0
   851e8:	540001a1 	b.ne	8521c <vsprintf+0x574>  // b.any
   851ec:	b0000000 	adrp	x0, 86000 <el1t_irq_invalid+0x74>
   851f0:	9128a000 	add	x0, x0, #0xa28
   851f4:	f90023e0 	str	x0, [sp, #64]
   851f8:	14000009 	b	8521c <vsprintf+0x574>
   851fc:	f94023e1 	ldr	x1, [sp, #64]
   85200:	91000420 	add	x0, x1, #0x1
   85204:	f90023e0 	str	x0, [sp, #64]
   85208:	f9400fe0 	ldr	x0, [sp, #24]
   8520c:	91000402 	add	x2, x0, #0x1
   85210:	f9000fe2 	str	x2, [sp, #24]
   85214:	39400021 	ldrb	w1, [x1]
   85218:	39000001 	strb	w1, [x0]
   8521c:	f94023e0 	ldr	x0, [sp, #64]
   85220:	39400000 	ldrb	w0, [x0]
   85224:	7100001f 	cmp	w0, #0x0
   85228:	54fffea1 	b.ne	851fc <vsprintf+0x554>  // b.any
   8522c:	1400000a 	b	85254 <vsprintf+0x5ac>
   85230:	d503201f 	nop
   85234:	14000002 	b	8523c <vsprintf+0x594>
   85238:	d503201f 	nop
   8523c:	f9400fe0 	ldr	x0, [sp, #24]
   85240:	91000401 	add	x1, x0, #0x1
   85244:	f9000fe1 	str	x1, [sp, #24]
   85248:	f9400be1 	ldr	x1, [sp, #16]
   8524c:	39400021 	ldrb	w1, [x1]
   85250:	39000001 	strb	w1, [x0]
   85254:	f9400be0 	ldr	x0, [sp, #16]
   85258:	91000400 	add	x0, x0, #0x1
   8525c:	f9000be0 	str	x0, [sp, #16]
   85260:	f9400be0 	ldr	x0, [sp, #16]
   85264:	39400000 	ldrb	w0, [x0]
   85268:	7100001f 	cmp	w0, #0x0
   8526c:	54ffd3e1 	b.ne	84ce8 <vsprintf+0x40>  // b.any
   85270:	f9400fe0 	ldr	x0, [sp, #24]
   85274:	3900001f 	strb	wzr, [x0]
   85278:	f9400fe1 	ldr	x1, [sp, #24]
   8527c:	f9401fe0 	ldr	x0, [sp, #56]
   85280:	cb000020 	sub	x0, x1, x0
   85284:	f84607f3 	ldr	x19, [sp], #96
   85288:	d65f03c0 	ret

000000000008528c <sprintf>:
   8528c:	a9b67bfd 	stp	x29, x30, [sp, #-160]!
   85290:	910003fd 	mov	x29, sp
   85294:	f9001fe0 	str	x0, [sp, #56]
   85298:	f9001be1 	str	x1, [sp, #48]
   8529c:	f9003be2 	str	x2, [sp, #112]
   852a0:	f9003fe3 	str	x3, [sp, #120]
   852a4:	f90043e4 	str	x4, [sp, #128]
   852a8:	f90047e5 	str	x5, [sp, #136]
   852ac:	f9004be6 	str	x6, [sp, #144]
   852b0:	f9004fe7 	str	x7, [sp, #152]
   852b4:	910283e0 	add	x0, sp, #0xa0
   852b8:	f90027e0 	str	x0, [sp, #72]
   852bc:	910283e0 	add	x0, sp, #0xa0
   852c0:	f9002be0 	str	x0, [sp, #80]
   852c4:	9101c3e0 	add	x0, sp, #0x70
   852c8:	f9002fe0 	str	x0, [sp, #88]
   852cc:	128005e0 	mov	w0, #0xffffffd0            	// #-48
   852d0:	b90063e0 	str	w0, [sp, #96]
   852d4:	b90067ff 	str	wzr, [sp, #100]
   852d8:	910043e2 	add	x2, sp, #0x10
   852dc:	910123e3 	add	x3, sp, #0x48
   852e0:	a9400460 	ldp	x0, x1, [x3]
   852e4:	a9000440 	stp	x0, x1, [x2]
   852e8:	a9410460 	ldp	x0, x1, [x3, #16]
   852ec:	a9010440 	stp	x0, x1, [x2, #16]
   852f0:	910043e0 	add	x0, sp, #0x10
   852f4:	aa0003e2 	mov	x2, x0
   852f8:	f9401be1 	ldr	x1, [sp, #48]
   852fc:	f9401fe0 	ldr	x0, [sp, #56]
   85300:	97fffe6a 	bl	84ca8 <vsprintf>
   85304:	b9006fe0 	str	w0, [sp, #108]
   85308:	b9406fe0 	ldr	w0, [sp, #108]
   8530c:	a8ca7bfd 	ldp	x29, x30, [sp], #160
   85310:	d65f03c0 	ret

0000000000085314 <strlen>:
   85314:	d10083ff 	sub	sp, sp, #0x20
   85318:	f90007e0 	str	x0, [sp, #8]
   8531c:	f9000fff 	str	xzr, [sp, #24]
   85320:	14000004 	b	85330 <strlen+0x1c>
   85324:	f9400fe0 	ldr	x0, [sp, #24]
   85328:	91000400 	add	x0, x0, #0x1
   8532c:	f9000fe0 	str	x0, [sp, #24]
   85330:	f94007e0 	ldr	x0, [sp, #8]
   85334:	91000401 	add	x1, x0, #0x1
   85338:	f90007e1 	str	x1, [sp, #8]
   8533c:	39400000 	ldrb	w0, [x0]
   85340:	7100001f 	cmp	w0, #0x0
   85344:	54ffff01 	b.ne	85324 <strlen+0x10>  // b.any
   85348:	f9400fe0 	ldr	x0, [sp, #24]
   8534c:	910083ff 	add	sp, sp, #0x20
   85350:	d65f03c0 	ret

0000000000085354 <strcmp>:
   85354:	d100c3ff 	sub	sp, sp, #0x30
   85358:	f90007e0 	str	x0, [sp, #8]
   8535c:	f90003e1 	str	x1, [sp]
   85360:	f94007e0 	ldr	x0, [sp, #8]
   85364:	f90017e0 	str	x0, [sp, #40]
   85368:	f94003e0 	ldr	x0, [sp]
   8536c:	f90013e0 	str	x0, [sp, #32]
   85370:	f94017e0 	ldr	x0, [sp, #40]
   85374:	91000401 	add	x1, x0, #0x1
   85378:	f90017e1 	str	x1, [sp, #40]
   8537c:	39400000 	ldrb	w0, [x0]
   85380:	39007fe0 	strb	w0, [sp, #31]
   85384:	f94013e0 	ldr	x0, [sp, #32]
   85388:	91000401 	add	x1, x0, #0x1
   8538c:	f90013e1 	str	x1, [sp, #32]
   85390:	39400000 	ldrb	w0, [x0]
   85394:	39007be0 	strb	w0, [sp, #30]
   85398:	39407fe0 	ldrb	w0, [sp, #31]
   8539c:	7100001f 	cmp	w0, #0x0
   853a0:	540000a1 	b.ne	853b4 <strcmp+0x60>  // b.any
   853a4:	39407fe1 	ldrb	w1, [sp, #31]
   853a8:	39407be0 	ldrb	w0, [sp, #30]
   853ac:	4b000020 	sub	w0, w1, w0
   853b0:	14000008 	b	853d0 <strcmp+0x7c>
   853b4:	39407fe1 	ldrb	w1, [sp, #31]
   853b8:	39407be0 	ldrb	w0, [sp, #30]
   853bc:	6b00003f 	cmp	w1, w0
   853c0:	54fffd80 	b.eq	85370 <strcmp+0x1c>  // b.none
   853c4:	39407fe1 	ldrb	w1, [sp, #31]
   853c8:	39407be0 	ldrb	w0, [sp, #30]
   853cc:	4b000020 	sub	w0, w1, w0
   853d0:	9100c3ff 	add	sp, sp, #0x30
   853d4:	d65f03c0 	ret

00000000000853d8 <strncmp>:
   853d8:	d100c3ff 	sub	sp, sp, #0x30
   853dc:	f9000fe0 	str	x0, [sp, #24]
   853e0:	f9000be1 	str	x1, [sp, #16]
   853e4:	f90007e2 	str	x2, [sp, #8]
   853e8:	3900bfff 	strb	wzr, [sp, #47]
   853ec:	3900bbff 	strb	wzr, [sp, #46]
   853f0:	f94007e0 	ldr	x0, [sp, #8]
   853f4:	f1000c1f 	cmp	x0, #0x3
   853f8:	54000f49 	b.ls	855e0 <strncmp+0x208>  // b.plast
   853fc:	f94007e0 	ldr	x0, [sp, #8]
   85400:	d342fc00 	lsr	x0, x0, #2
   85404:	f90013e0 	str	x0, [sp, #32]
   85408:	f9400fe0 	ldr	x0, [sp, #24]
   8540c:	91000401 	add	x1, x0, #0x1
   85410:	f9000fe1 	str	x1, [sp, #24]
   85414:	39400000 	ldrb	w0, [x0]
   85418:	3900bfe0 	strb	w0, [sp, #47]
   8541c:	f9400be0 	ldr	x0, [sp, #16]
   85420:	91000401 	add	x1, x0, #0x1
   85424:	f9000be1 	str	x1, [sp, #16]
   85428:	39400000 	ldrb	w0, [x0]
   8542c:	3900bbe0 	strb	w0, [sp, #46]
   85430:	3940bfe0 	ldrb	w0, [sp, #47]
   85434:	7100001f 	cmp	w0, #0x0
   85438:	540000a0 	b.eq	8544c <strncmp+0x74>  // b.none
   8543c:	3940bfe1 	ldrb	w1, [sp, #47]
   85440:	3940bbe0 	ldrb	w0, [sp, #46]
   85444:	6b00003f 	cmp	w1, w0
   85448:	540000a0 	b.eq	8545c <strncmp+0x84>  // b.none
   8544c:	3940bfe1 	ldrb	w1, [sp, #47]
   85450:	3940bbe0 	ldrb	w0, [sp, #46]
   85454:	4b000020 	sub	w0, w1, w0
   85458:	14000068 	b	855f8 <strncmp+0x220>
   8545c:	f9400fe0 	ldr	x0, [sp, #24]
   85460:	91000401 	add	x1, x0, #0x1
   85464:	f9000fe1 	str	x1, [sp, #24]
   85468:	39400000 	ldrb	w0, [x0]
   8546c:	3900bfe0 	strb	w0, [sp, #47]
   85470:	f9400be0 	ldr	x0, [sp, #16]
   85474:	91000401 	add	x1, x0, #0x1
   85478:	f9000be1 	str	x1, [sp, #16]
   8547c:	39400000 	ldrb	w0, [x0]
   85480:	3900bbe0 	strb	w0, [sp, #46]
   85484:	3940bfe0 	ldrb	w0, [sp, #47]
   85488:	7100001f 	cmp	w0, #0x0
   8548c:	540000a0 	b.eq	854a0 <strncmp+0xc8>  // b.none
   85490:	3940bfe1 	ldrb	w1, [sp, #47]
   85494:	3940bbe0 	ldrb	w0, [sp, #46]
   85498:	6b00003f 	cmp	w1, w0
   8549c:	540000a0 	b.eq	854b0 <strncmp+0xd8>  // b.none
   854a0:	3940bfe1 	ldrb	w1, [sp, #47]
   854a4:	3940bbe0 	ldrb	w0, [sp, #46]
   854a8:	4b000020 	sub	w0, w1, w0
   854ac:	14000053 	b	855f8 <strncmp+0x220>
   854b0:	f9400fe0 	ldr	x0, [sp, #24]
   854b4:	91000401 	add	x1, x0, #0x1
   854b8:	f9000fe1 	str	x1, [sp, #24]
   854bc:	39400000 	ldrb	w0, [x0]
   854c0:	3900bfe0 	strb	w0, [sp, #47]
   854c4:	f9400be0 	ldr	x0, [sp, #16]
   854c8:	91000401 	add	x1, x0, #0x1
   854cc:	f9000be1 	str	x1, [sp, #16]
   854d0:	39400000 	ldrb	w0, [x0]
   854d4:	3900bbe0 	strb	w0, [sp, #46]
   854d8:	3940bfe0 	ldrb	w0, [sp, #47]
   854dc:	7100001f 	cmp	w0, #0x0
   854e0:	540000a0 	b.eq	854f4 <strncmp+0x11c>  // b.none
   854e4:	3940bfe1 	ldrb	w1, [sp, #47]
   854e8:	3940bbe0 	ldrb	w0, [sp, #46]
   854ec:	6b00003f 	cmp	w1, w0
   854f0:	540000a0 	b.eq	85504 <strncmp+0x12c>  // b.none
   854f4:	3940bfe1 	ldrb	w1, [sp, #47]
   854f8:	3940bbe0 	ldrb	w0, [sp, #46]
   854fc:	4b000020 	sub	w0, w1, w0
   85500:	1400003e 	b	855f8 <strncmp+0x220>
   85504:	f9400fe0 	ldr	x0, [sp, #24]
   85508:	91000401 	add	x1, x0, #0x1
   8550c:	f9000fe1 	str	x1, [sp, #24]
   85510:	39400000 	ldrb	w0, [x0]
   85514:	3900bfe0 	strb	w0, [sp, #47]
   85518:	f9400be0 	ldr	x0, [sp, #16]
   8551c:	91000401 	add	x1, x0, #0x1
   85520:	f9000be1 	str	x1, [sp, #16]
   85524:	39400000 	ldrb	w0, [x0]
   85528:	3900bbe0 	strb	w0, [sp, #46]
   8552c:	3940bfe0 	ldrb	w0, [sp, #47]
   85530:	7100001f 	cmp	w0, #0x0
   85534:	540000a0 	b.eq	85548 <strncmp+0x170>  // b.none
   85538:	3940bfe1 	ldrb	w1, [sp, #47]
   8553c:	3940bbe0 	ldrb	w0, [sp, #46]
   85540:	6b00003f 	cmp	w1, w0
   85544:	540000a0 	b.eq	85558 <strncmp+0x180>  // b.none
   85548:	3940bfe1 	ldrb	w1, [sp, #47]
   8554c:	3940bbe0 	ldrb	w0, [sp, #46]
   85550:	4b000020 	sub	w0, w1, w0
   85554:	14000029 	b	855f8 <strncmp+0x220>
   85558:	f94013e0 	ldr	x0, [sp, #32]
   8555c:	d1000400 	sub	x0, x0, #0x1
   85560:	f90013e0 	str	x0, [sp, #32]
   85564:	f94013e0 	ldr	x0, [sp, #32]
   85568:	f100001f 	cmp	x0, #0x0
   8556c:	54fff4e1 	b.ne	85408 <strncmp+0x30>  // b.any
   85570:	f94007e0 	ldr	x0, [sp, #8]
   85574:	92400400 	and	x0, x0, #0x3
   85578:	f90007e0 	str	x0, [sp, #8]
   8557c:	14000019 	b	855e0 <strncmp+0x208>
   85580:	f9400fe0 	ldr	x0, [sp, #24]
   85584:	91000401 	add	x1, x0, #0x1
   85588:	f9000fe1 	str	x1, [sp, #24]
   8558c:	39400000 	ldrb	w0, [x0]
   85590:	3900bfe0 	strb	w0, [sp, #47]
   85594:	f9400be0 	ldr	x0, [sp, #16]
   85598:	91000401 	add	x1, x0, #0x1
   8559c:	f9000be1 	str	x1, [sp, #16]
   855a0:	39400000 	ldrb	w0, [x0]
   855a4:	3900bbe0 	strb	w0, [sp, #46]
   855a8:	3940bfe0 	ldrb	w0, [sp, #47]
   855ac:	7100001f 	cmp	w0, #0x0
   855b0:	540000a0 	b.eq	855c4 <strncmp+0x1ec>  // b.none
   855b4:	3940bfe1 	ldrb	w1, [sp, #47]
   855b8:	3940bbe0 	ldrb	w0, [sp, #46]
   855bc:	6b00003f 	cmp	w1, w0
   855c0:	540000a0 	b.eq	855d4 <strncmp+0x1fc>  // b.none
   855c4:	3940bfe1 	ldrb	w1, [sp, #47]
   855c8:	3940bbe0 	ldrb	w0, [sp, #46]
   855cc:	4b000020 	sub	w0, w1, w0
   855d0:	1400000a 	b	855f8 <strncmp+0x220>
   855d4:	f94007e0 	ldr	x0, [sp, #8]
   855d8:	d1000400 	sub	x0, x0, #0x1
   855dc:	f90007e0 	str	x0, [sp, #8]
   855e0:	f94007e0 	ldr	x0, [sp, #8]
   855e4:	f100001f 	cmp	x0, #0x0
   855e8:	54fffcc1 	b.ne	85580 <strncmp+0x1a8>  // b.any
   855ec:	3940bfe1 	ldrb	w1, [sp, #47]
   855f0:	3940bbe0 	ldrb	w0, [sp, #46]
   855f4:	4b000020 	sub	w0, w1, w0
   855f8:	9100c3ff 	add	sp, sp, #0x30
   855fc:	d65f03c0 	ret

0000000000085600 <memcpy>:
   85600:	d100c3ff 	sub	sp, sp, #0x30
   85604:	f9000fe0 	str	x0, [sp, #24]
   85608:	f9000be1 	str	x1, [sp, #16]
   8560c:	f90007e2 	str	x2, [sp, #8]
   85610:	f9400fe0 	ldr	x0, [sp, #24]
   85614:	f90017e0 	str	x0, [sp, #40]
   85618:	f9400be0 	ldr	x0, [sp, #16]
   8561c:	f90013e0 	str	x0, [sp, #32]
   85620:	14000009 	b	85644 <memcpy+0x44>
   85624:	f94013e1 	ldr	x1, [sp, #32]
   85628:	91000420 	add	x0, x1, #0x1
   8562c:	f90013e0 	str	x0, [sp, #32]
   85630:	f94017e0 	ldr	x0, [sp, #40]
   85634:	91000402 	add	x2, x0, #0x1
   85638:	f90017e2 	str	x2, [sp, #40]
   8563c:	39400021 	ldrb	w1, [x1]
   85640:	39000001 	strb	w1, [x0]
   85644:	f94007e0 	ldr	x0, [sp, #8]
   85648:	d1000401 	sub	x1, x0, #0x1
   8564c:	f90007e1 	str	x1, [sp, #8]
   85650:	f100001f 	cmp	x0, #0x0
   85654:	54fffe81 	b.ne	85624 <memcpy+0x24>  // b.any
   85658:	f9400fe0 	ldr	x0, [sp, #24]
   8565c:	9100c3ff 	add	sp, sp, #0x30
   85660:	d65f03c0 	ret

0000000000085664 <strcpy>:
   85664:	a9be7bfd 	stp	x29, x30, [sp, #-32]!
   85668:	910003fd 	mov	x29, sp
   8566c:	f9000fe0 	str	x0, [sp, #24]
   85670:	f9000be1 	str	x1, [sp, #16]
   85674:	f9400be0 	ldr	x0, [sp, #16]
   85678:	97ffff27 	bl	85314 <strlen>
   8567c:	91000400 	add	x0, x0, #0x1
   85680:	aa0003e2 	mov	x2, x0
   85684:	f9400be1 	ldr	x1, [sp, #16]
   85688:	f9400fe0 	ldr	x0, [sp, #24]
   8568c:	97ffffdd 	bl	85600 <memcpy>
   85690:	a8c27bfd 	ldp	x29, x30, [sp], #32
   85694:	d65f03c0 	ret

0000000000085698 <str_SepbySpace>:
   85698:	d10083ff 	sub	sp, sp, #0x20
   8569c:	f90007e0 	str	x0, [sp, #8]
   856a0:	f94007e0 	ldr	x0, [sp, #8]
   856a4:	39400000 	ldrb	w0, [x0]
   856a8:	7100001f 	cmp	w0, #0x0
   856ac:	54000081 	b.ne	856bc <str_SepbySpace+0x24>  // b.any
   856b0:	f94007e0 	ldr	x0, [sp, #8]
   856b4:	f9000fe0 	str	x0, [sp, #24]
   856b8:	1400000f 	b	856f4 <str_SepbySpace+0x5c>
   856bc:	f94007e0 	ldr	x0, [sp, #8]
   856c0:	39400000 	ldrb	w0, [x0]
   856c4:	7100801f 	cmp	w0, #0x20
   856c8:	540000e1 	b.ne	856e4 <str_SepbySpace+0x4c>  // b.any
   856cc:	f94007e0 	ldr	x0, [sp, #8]
   856d0:	3900001f 	strb	wzr, [x0]
   856d4:	f94007e0 	ldr	x0, [sp, #8]
   856d8:	91000400 	add	x0, x0, #0x1
   856dc:	f9000fe0 	str	x0, [sp, #24]
   856e0:	14000005 	b	856f4 <str_SepbySpace+0x5c>
   856e4:	f94007e0 	ldr	x0, [sp, #8]
   856e8:	91000400 	add	x0, x0, #0x1
   856ec:	f90007e0 	str	x0, [sp, #8]
   856f0:	17ffffec 	b	856a0 <str_SepbySpace+0x8>
   856f4:	f9400fe0 	ldr	x0, [sp, #24]
   856f8:	910083ff 	add	sp, sp, #0x20
   856fc:	d65f03c0 	ret

0000000000085700 <atoi>:
   85700:	d10083ff 	sub	sp, sp, #0x20
   85704:	f90007e0 	str	x0, [sp, #8]
   85708:	b9001fff 	str	wzr, [sp, #28]
   8570c:	b9001bff 	str	wzr, [sp, #24]
   85710:	14000019 	b	85774 <atoi+0x74>
   85714:	f94007e0 	ldr	x0, [sp, #8]
   85718:	39400000 	ldrb	w0, [x0]
   8571c:	7100bc1f 	cmp	w0, #0x2f
   85720:	540000a9 	b.ls	85734 <atoi+0x34>  // b.plast
   85724:	f94007e0 	ldr	x0, [sp, #8]
   85728:	39400000 	ldrb	w0, [x0]
   8572c:	7100e41f 	cmp	w0, #0x39
   85730:	54000069 	b.ls	8573c <atoi+0x3c>  // b.plast
   85734:	b9401fe0 	ldr	w0, [sp, #28]
   85738:	14000016 	b	85790 <atoi+0x90>
   8573c:	b9401fe1 	ldr	w1, [sp, #28]
   85740:	2a0103e0 	mov	w0, w1
   85744:	531e7400 	lsl	w0, w0, #2
   85748:	0b010000 	add	w0, w0, w1
   8574c:	531f7800 	lsl	w0, w0, #1
   85750:	2a0003e1 	mov	w1, w0
   85754:	f94007e0 	ldr	x0, [sp, #8]
   85758:	39400000 	ldrb	w0, [x0]
   8575c:	0b000020 	add	w0, w1, w0
   85760:	5100c000 	sub	w0, w0, #0x30
   85764:	b9001fe0 	str	w0, [sp, #28]
   85768:	b9401be0 	ldr	w0, [sp, #24]
   8576c:	11000400 	add	w0, w0, #0x1
   85770:	b9001be0 	str	w0, [sp, #24]
   85774:	b9801be0 	ldrsw	x0, [sp, #24]
   85778:	f94007e1 	ldr	x1, [sp, #8]
   8577c:	8b000020 	add	x0, x1, x0
   85780:	39400000 	ldrb	w0, [x0]
   85784:	7100001f 	cmp	w0, #0x0
   85788:	54fffc61 	b.ne	85714 <atoi+0x14>  // b.any
   8578c:	b9401fe0 	ldr	w0, [sp, #28]
   85790:	910083ff 	add	sp, sp, #0x20
   85794:	d65f03c0 	ret
	...

0000000000085800 <exception_vector_table>:
   85800:	140001e1 	b	85f84 <el1t_sync_invalid>
   85804:	d503201f 	nop
   85808:	d503201f 	nop
   8580c:	d503201f 	nop
   85810:	d503201f 	nop
   85814:	d503201f 	nop
   85818:	d503201f 	nop
   8581c:	d503201f 	nop
   85820:	d503201f 	nop
   85824:	d503201f 	nop
   85828:	d503201f 	nop
   8582c:	d503201f 	nop
   85830:	d503201f 	nop
   85834:	d503201f 	nop
   85838:	d503201f 	nop
   8583c:	d503201f 	nop
   85840:	d503201f 	nop
   85844:	d503201f 	nop
   85848:	d503201f 	nop
   8584c:	d503201f 	nop
   85850:	d503201f 	nop
   85854:	d503201f 	nop
   85858:	d503201f 	nop
   8585c:	d503201f 	nop
   85860:	d503201f 	nop
   85864:	d503201f 	nop
   85868:	d503201f 	nop
   8586c:	d503201f 	nop
   85870:	d503201f 	nop
   85874:	d503201f 	nop
   85878:	d503201f 	nop
   8587c:	d503201f 	nop
   85880:	140001c3 	b	85f8c <el1t_irq_invalid>
   85884:	d503201f 	nop
   85888:	d503201f 	nop
   8588c:	d503201f 	nop
   85890:	d503201f 	nop
   85894:	d503201f 	nop
   85898:	d503201f 	nop
   8589c:	d503201f 	nop
   858a0:	d503201f 	nop
   858a4:	d503201f 	nop
   858a8:	d503201f 	nop
   858ac:	d503201f 	nop
   858b0:	d503201f 	nop
   858b4:	d503201f 	nop
   858b8:	d503201f 	nop
   858bc:	d503201f 	nop
   858c0:	d503201f 	nop
   858c4:	d503201f 	nop
   858c8:	d503201f 	nop
   858cc:	d503201f 	nop
   858d0:	d503201f 	nop
   858d4:	d503201f 	nop
   858d8:	d503201f 	nop
   858dc:	d503201f 	nop
   858e0:	d503201f 	nop
   858e4:	d503201f 	nop
   858e8:	d503201f 	nop
   858ec:	d503201f 	nop
   858f0:	d503201f 	nop
   858f4:	d503201f 	nop
   858f8:	d503201f 	nop
   858fc:	d503201f 	nop
   85900:	140001d7 	b	8605c <el1t_fiq_invalid>
   85904:	d503201f 	nop
   85908:	d503201f 	nop
   8590c:	d503201f 	nop
   85910:	d503201f 	nop
   85914:	d503201f 	nop
   85918:	d503201f 	nop
   8591c:	d503201f 	nop
   85920:	d503201f 	nop
   85924:	d503201f 	nop
   85928:	d503201f 	nop
   8592c:	d503201f 	nop
   85930:	d503201f 	nop
   85934:	d503201f 	nop
   85938:	d503201f 	nop
   8593c:	d503201f 	nop
   85940:	d503201f 	nop
   85944:	d503201f 	nop
   85948:	d503201f 	nop
   8594c:	d503201f 	nop
   85950:	d503201f 	nop
   85954:	d503201f 	nop
   85958:	d503201f 	nop
   8595c:	d503201f 	nop
   85960:	d503201f 	nop
   85964:	d503201f 	nop
   85968:	d503201f 	nop
   8596c:	d503201f 	nop
   85970:	d503201f 	nop
   85974:	d503201f 	nop
   85978:	d503201f 	nop
   8597c:	d503201f 	nop
   85980:	140001b9 	b	86064 <el1t_error_invalid>
   85984:	d503201f 	nop
   85988:	d503201f 	nop
   8598c:	d503201f 	nop
   85990:	d503201f 	nop
   85994:	d503201f 	nop
   85998:	d503201f 	nop
   8599c:	d503201f 	nop
   859a0:	d503201f 	nop
   859a4:	d503201f 	nop
   859a8:	d503201f 	nop
   859ac:	d503201f 	nop
   859b0:	d503201f 	nop
   859b4:	d503201f 	nop
   859b8:	d503201f 	nop
   859bc:	d503201f 	nop
   859c0:	d503201f 	nop
   859c4:	d503201f 	nop
   859c8:	d503201f 	nop
   859cc:	d503201f 	nop
   859d0:	d503201f 	nop
   859d4:	d503201f 	nop
   859d8:	d503201f 	nop
   859dc:	d503201f 	nop
   859e0:	d503201f 	nop
   859e4:	d503201f 	nop
   859e8:	d503201f 	nop
   859ec:	d503201f 	nop
   859f0:	d503201f 	nop
   859f4:	d503201f 	nop
   859f8:	d503201f 	nop
   859fc:	d503201f 	nop
   85a00:	1400019b 	b	8606c <el1h_sync>
   85a04:	d503201f 	nop
   85a08:	d503201f 	nop
   85a0c:	d503201f 	nop
   85a10:	d503201f 	nop
   85a14:	d503201f 	nop
   85a18:	d503201f 	nop
   85a1c:	d503201f 	nop
   85a20:	d503201f 	nop
   85a24:	d503201f 	nop
   85a28:	d503201f 	nop
   85a2c:	d503201f 	nop
   85a30:	d503201f 	nop
   85a34:	d503201f 	nop
   85a38:	d503201f 	nop
   85a3c:	d503201f 	nop
   85a40:	d503201f 	nop
   85a44:	d503201f 	nop
   85a48:	d503201f 	nop
   85a4c:	d503201f 	nop
   85a50:	d503201f 	nop
   85a54:	d503201f 	nop
   85a58:	d503201f 	nop
   85a5c:	d503201f 	nop
   85a60:	d503201f 	nop
   85a64:	d503201f 	nop
   85a68:	d503201f 	nop
   85a6c:	d503201f 	nop
   85a70:	d503201f 	nop
   85a74:	d503201f 	nop
   85a78:	d503201f 	nop
   85a7c:	d503201f 	nop
   85a80:	1400017d 	b	86074 <el1h_irq>
   85a84:	d503201f 	nop
   85a88:	d503201f 	nop
   85a8c:	d503201f 	nop
   85a90:	d503201f 	nop
   85a94:	d503201f 	nop
   85a98:	d503201f 	nop
   85a9c:	d503201f 	nop
   85aa0:	d503201f 	nop
   85aa4:	d503201f 	nop
   85aa8:	d503201f 	nop
   85aac:	d503201f 	nop
   85ab0:	d503201f 	nop
   85ab4:	d503201f 	nop
   85ab8:	d503201f 	nop
   85abc:	d503201f 	nop
   85ac0:	d503201f 	nop
   85ac4:	d503201f 	nop
   85ac8:	d503201f 	nop
   85acc:	d503201f 	nop
   85ad0:	d503201f 	nop
   85ad4:	d503201f 	nop
   85ad8:	d503201f 	nop
   85adc:	d503201f 	nop
   85ae0:	d503201f 	nop
   85ae4:	d503201f 	nop
   85ae8:	d503201f 	nop
   85aec:	d503201f 	nop
   85af0:	d503201f 	nop
   85af4:	d503201f 	nop
   85af8:	d503201f 	nop
   85afc:	d503201f 	nop
   85b00:	14000191 	b	86144 <el1h_fiq_invalid>
   85b04:	d503201f 	nop
   85b08:	d503201f 	nop
   85b0c:	d503201f 	nop
   85b10:	d503201f 	nop
   85b14:	d503201f 	nop
   85b18:	d503201f 	nop
   85b1c:	d503201f 	nop
   85b20:	d503201f 	nop
   85b24:	d503201f 	nop
   85b28:	d503201f 	nop
   85b2c:	d503201f 	nop
   85b30:	d503201f 	nop
   85b34:	d503201f 	nop
   85b38:	d503201f 	nop
   85b3c:	d503201f 	nop
   85b40:	d503201f 	nop
   85b44:	d503201f 	nop
   85b48:	d503201f 	nop
   85b4c:	d503201f 	nop
   85b50:	d503201f 	nop
   85b54:	d503201f 	nop
   85b58:	d503201f 	nop
   85b5c:	d503201f 	nop
   85b60:	d503201f 	nop
   85b64:	d503201f 	nop
   85b68:	d503201f 	nop
   85b6c:	d503201f 	nop
   85b70:	d503201f 	nop
   85b74:	d503201f 	nop
   85b78:	d503201f 	nop
   85b7c:	d503201f 	nop
   85b80:	14000173 	b	8614c <el1h_error_invalid>
   85b84:	d503201f 	nop
   85b88:	d503201f 	nop
   85b8c:	d503201f 	nop
   85b90:	d503201f 	nop
   85b94:	d503201f 	nop
   85b98:	d503201f 	nop
   85b9c:	d503201f 	nop
   85ba0:	d503201f 	nop
   85ba4:	d503201f 	nop
   85ba8:	d503201f 	nop
   85bac:	d503201f 	nop
   85bb0:	d503201f 	nop
   85bb4:	d503201f 	nop
   85bb8:	d503201f 	nop
   85bbc:	d503201f 	nop
   85bc0:	d503201f 	nop
   85bc4:	d503201f 	nop
   85bc8:	d503201f 	nop
   85bcc:	d503201f 	nop
   85bd0:	d503201f 	nop
   85bd4:	d503201f 	nop
   85bd8:	d503201f 	nop
   85bdc:	d503201f 	nop
   85be0:	d503201f 	nop
   85be4:	d503201f 	nop
   85be8:	d503201f 	nop
   85bec:	d503201f 	nop
   85bf0:	d503201f 	nop
   85bf4:	d503201f 	nop
   85bf8:	d503201f 	nop
   85bfc:	d503201f 	nop
   85c00:	14000155 	b	86154 <el0_sync_64>
   85c04:	d503201f 	nop
   85c08:	d503201f 	nop
   85c0c:	d503201f 	nop
   85c10:	d503201f 	nop
   85c14:	d503201f 	nop
   85c18:	d503201f 	nop
   85c1c:	d503201f 	nop
   85c20:	d503201f 	nop
   85c24:	d503201f 	nop
   85c28:	d503201f 	nop
   85c2c:	d503201f 	nop
   85c30:	d503201f 	nop
   85c34:	d503201f 	nop
   85c38:	d503201f 	nop
   85c3c:	d503201f 	nop
   85c40:	d503201f 	nop
   85c44:	d503201f 	nop
   85c48:	d503201f 	nop
   85c4c:	d503201f 	nop
   85c50:	d503201f 	nop
   85c54:	d503201f 	nop
   85c58:	d503201f 	nop
   85c5c:	d503201f 	nop
   85c60:	d503201f 	nop
   85c64:	d503201f 	nop
   85c68:	d503201f 	nop
   85c6c:	d503201f 	nop
   85c70:	d503201f 	nop
   85c74:	d503201f 	nop
   85c78:	d503201f 	nop
   85c7c:	d503201f 	nop
   85c80:	14000169 	b	86224 <el0_irq_64>
   85c84:	d503201f 	nop
   85c88:	d503201f 	nop
   85c8c:	d503201f 	nop
   85c90:	d503201f 	nop
   85c94:	d503201f 	nop
   85c98:	d503201f 	nop
   85c9c:	d503201f 	nop
   85ca0:	d503201f 	nop
   85ca4:	d503201f 	nop
   85ca8:	d503201f 	nop
   85cac:	d503201f 	nop
   85cb0:	d503201f 	nop
   85cb4:	d503201f 	nop
   85cb8:	d503201f 	nop
   85cbc:	d503201f 	nop
   85cc0:	d503201f 	nop
   85cc4:	d503201f 	nop
   85cc8:	d503201f 	nop
   85ccc:	d503201f 	nop
   85cd0:	d503201f 	nop
   85cd4:	d503201f 	nop
   85cd8:	d503201f 	nop
   85cdc:	d503201f 	nop
   85ce0:	d503201f 	nop
   85ce4:	d503201f 	nop
   85ce8:	d503201f 	nop
   85cec:	d503201f 	nop
   85cf0:	d503201f 	nop
   85cf4:	d503201f 	nop
   85cf8:	d503201f 	nop
   85cfc:	d503201f 	nop
   85d00:	1400017d 	b	862f4 <el0_fiq_invalid_64>
   85d04:	d503201f 	nop
   85d08:	d503201f 	nop
   85d0c:	d503201f 	nop
   85d10:	d503201f 	nop
   85d14:	d503201f 	nop
   85d18:	d503201f 	nop
   85d1c:	d503201f 	nop
   85d20:	d503201f 	nop
   85d24:	d503201f 	nop
   85d28:	d503201f 	nop
   85d2c:	d503201f 	nop
   85d30:	d503201f 	nop
   85d34:	d503201f 	nop
   85d38:	d503201f 	nop
   85d3c:	d503201f 	nop
   85d40:	d503201f 	nop
   85d44:	d503201f 	nop
   85d48:	d503201f 	nop
   85d4c:	d503201f 	nop
   85d50:	d503201f 	nop
   85d54:	d503201f 	nop
   85d58:	d503201f 	nop
   85d5c:	d503201f 	nop
   85d60:	d503201f 	nop
   85d64:	d503201f 	nop
   85d68:	d503201f 	nop
   85d6c:	d503201f 	nop
   85d70:	d503201f 	nop
   85d74:	d503201f 	nop
   85d78:	d503201f 	nop
   85d7c:	d503201f 	nop
   85d80:	1400015f 	b	862fc <el0_error_invalid_64>
   85d84:	d503201f 	nop
   85d88:	d503201f 	nop
   85d8c:	d503201f 	nop
   85d90:	d503201f 	nop
   85d94:	d503201f 	nop
   85d98:	d503201f 	nop
   85d9c:	d503201f 	nop
   85da0:	d503201f 	nop
   85da4:	d503201f 	nop
   85da8:	d503201f 	nop
   85dac:	d503201f 	nop
   85db0:	d503201f 	nop
   85db4:	d503201f 	nop
   85db8:	d503201f 	nop
   85dbc:	d503201f 	nop
   85dc0:	d503201f 	nop
   85dc4:	d503201f 	nop
   85dc8:	d503201f 	nop
   85dcc:	d503201f 	nop
   85dd0:	d503201f 	nop
   85dd4:	d503201f 	nop
   85dd8:	d503201f 	nop
   85ddc:	d503201f 	nop
   85de0:	d503201f 	nop
   85de4:	d503201f 	nop
   85de8:	d503201f 	nop
   85dec:	d503201f 	nop
   85df0:	d503201f 	nop
   85df4:	d503201f 	nop
   85df8:	d503201f 	nop
   85dfc:	d503201f 	nop
   85e00:	14000141 	b	86304 <el0_sync_invalid_32>
   85e04:	d503201f 	nop
   85e08:	d503201f 	nop
   85e0c:	d503201f 	nop
   85e10:	d503201f 	nop
   85e14:	d503201f 	nop
   85e18:	d503201f 	nop
   85e1c:	d503201f 	nop
   85e20:	d503201f 	nop
   85e24:	d503201f 	nop
   85e28:	d503201f 	nop
   85e2c:	d503201f 	nop
   85e30:	d503201f 	nop
   85e34:	d503201f 	nop
   85e38:	d503201f 	nop
   85e3c:	d503201f 	nop
   85e40:	d503201f 	nop
   85e44:	d503201f 	nop
   85e48:	d503201f 	nop
   85e4c:	d503201f 	nop
   85e50:	d503201f 	nop
   85e54:	d503201f 	nop
   85e58:	d503201f 	nop
   85e5c:	d503201f 	nop
   85e60:	d503201f 	nop
   85e64:	d503201f 	nop
   85e68:	d503201f 	nop
   85e6c:	d503201f 	nop
   85e70:	d503201f 	nop
   85e74:	d503201f 	nop
   85e78:	d503201f 	nop
   85e7c:	d503201f 	nop
   85e80:	14000123 	b	8630c <el0_irq_invalid_32>
   85e84:	d503201f 	nop
   85e88:	d503201f 	nop
   85e8c:	d503201f 	nop
   85e90:	d503201f 	nop
   85e94:	d503201f 	nop
   85e98:	d503201f 	nop
   85e9c:	d503201f 	nop
   85ea0:	d503201f 	nop
   85ea4:	d503201f 	nop
   85ea8:	d503201f 	nop
   85eac:	d503201f 	nop
   85eb0:	d503201f 	nop
   85eb4:	d503201f 	nop
   85eb8:	d503201f 	nop
   85ebc:	d503201f 	nop
   85ec0:	d503201f 	nop
   85ec4:	d503201f 	nop
   85ec8:	d503201f 	nop
   85ecc:	d503201f 	nop
   85ed0:	d503201f 	nop
   85ed4:	d503201f 	nop
   85ed8:	d503201f 	nop
   85edc:	d503201f 	nop
   85ee0:	d503201f 	nop
   85ee4:	d503201f 	nop
   85ee8:	d503201f 	nop
   85eec:	d503201f 	nop
   85ef0:	d503201f 	nop
   85ef4:	d503201f 	nop
   85ef8:	d503201f 	nop
   85efc:	d503201f 	nop
   85f00:	14000105 	b	86314 <el0_fiq_invalid_32>
   85f04:	d503201f 	nop
   85f08:	d503201f 	nop
   85f0c:	d503201f 	nop
   85f10:	d503201f 	nop
   85f14:	d503201f 	nop
   85f18:	d503201f 	nop
   85f1c:	d503201f 	nop
   85f20:	d503201f 	nop
   85f24:	d503201f 	nop
   85f28:	d503201f 	nop
   85f2c:	d503201f 	nop
   85f30:	d503201f 	nop
   85f34:	d503201f 	nop
   85f38:	d503201f 	nop
   85f3c:	d503201f 	nop
   85f40:	d503201f 	nop
   85f44:	d503201f 	nop
   85f48:	d503201f 	nop
   85f4c:	d503201f 	nop
   85f50:	d503201f 	nop
   85f54:	d503201f 	nop
   85f58:	d503201f 	nop
   85f5c:	d503201f 	nop
   85f60:	d503201f 	nop
   85f64:	d503201f 	nop
   85f68:	d503201f 	nop
   85f6c:	d503201f 	nop
   85f70:	d503201f 	nop
   85f74:	d503201f 	nop
   85f78:	d503201f 	nop
   85f7c:	d503201f 	nop
   85f80:	140000e7 	b	8631c <el0_error_invalid_32>

0000000000085f84 <el1t_sync_invalid>:
   85f84:	d2800000 	mov	x0, #0x0                   	// #0
   85f88:	97ffeb90 	bl	80dc8 <invalid_exception_router>

0000000000085f8c <el1t_irq_invalid>:
   85f8c:	d10483ff 	sub	sp, sp, #0x120
   85f90:	a90007e0 	stp	x0, x1, [sp]
   85f94:	a9010fe2 	stp	x2, x3, [sp, #16]
   85f98:	a90217e4 	stp	x4, x5, [sp, #32]
   85f9c:	a9031fe6 	stp	x6, x7, [sp, #48]
   85fa0:	a90427e8 	stp	x8, x9, [sp, #64]
   85fa4:	a9052fea 	stp	x10, x11, [sp, #80]
   85fa8:	a90637ec 	stp	x12, x13, [sp, #96]
   85fac:	a9073fee 	stp	x14, x15, [sp, #112]
   85fb0:	a90847f0 	stp	x16, x17, [sp, #128]
   85fb4:	a9094ff2 	stp	x18, x19, [sp, #144]
   85fb8:	a90a57f4 	stp	x20, x21, [sp, #160]
   85fbc:	a90b5ff6 	stp	x22, x23, [sp, #176]
   85fc0:	a90c67f8 	stp	x24, x25, [sp, #192]
   85fc4:	a90d6ffa 	stp	x26, x27, [sp, #208]
   85fc8:	a90e77fc 	stp	x28, x29, [sp, #224]
   85fcc:	f9007bfe 	str	x30, [sp, #240]
   85fd0:	d5384000 	mrs	x0, spsr_el1
   85fd4:	f9007fe0 	str	x0, [sp, #248]
   85fd8:	d5384020 	mrs	x0, elr_el1
   85fdc:	f90083e0 	str	x0, [sp, #256]
   85fe0:	d5384100 	mrs	x0, sp_el0
   85fe4:	f90087e0 	str	x0, [sp, #264]
   85fe8:	a94007e0 	ldp	x0, x1, [sp]
   85fec:	d2800020 	mov	x0, #0x1                   	// #1
   85ff0:	97ffeb76 	bl	80dc8 <invalid_exception_router>
   85ff4:	a94007e0 	ldp	x0, x1, [sp]
   85ff8:	a9410fe2 	ldp	x2, x3, [sp, #16]
   85ffc:	a94217e4 	ldp	x4, x5, [sp, #32]
   86000:	a9431fe6 	ldp	x6, x7, [sp, #48]
   86004:	a94427e8 	ldp	x8, x9, [sp, #64]
   86008:	a9452fea 	ldp	x10, x11, [sp, #80]
   8600c:	a94637ec 	ldp	x12, x13, [sp, #96]
   86010:	a9473fee 	ldp	x14, x15, [sp, #112]
   86014:	a94847f0 	ldp	x16, x17, [sp, #128]
   86018:	a9494ff2 	ldp	x18, x19, [sp, #144]
   8601c:	a94a57f4 	ldp	x20, x21, [sp, #160]
   86020:	a94b5ff6 	ldp	x22, x23, [sp, #176]
   86024:	a94c67f8 	ldp	x24, x25, [sp, #192]
   86028:	a94d6ffa 	ldp	x26, x27, [sp, #208]
   8602c:	a94e77fc 	ldp	x28, x29, [sp, #224]
   86030:	f9407bfe 	ldr	x30, [sp, #240]
   86034:	f9407fe0 	ldr	x0, [sp, #248]
   86038:	d5184000 	msr	spsr_el1, x0
   8603c:	f94083e0 	ldr	x0, [sp, #256]
   86040:	d5184020 	msr	elr_el1, x0
   86044:	f94087e0 	ldr	x0, [sp, #264]
   86048:	d5184100 	msr	sp_el0, x0
   8604c:	a94007e0 	ldp	x0, x1, [sp]
   86050:	a94007e0 	ldp	x0, x1, [sp]
   86054:	910483ff 	add	sp, sp, #0x120
   86058:	d69f03e0 	eret

000000000008605c <el1t_fiq_invalid>:
   8605c:	d2800040 	mov	x0, #0x2                   	// #2
   86060:	97ffeb5a 	bl	80dc8 <invalid_exception_router>

0000000000086064 <el1t_error_invalid>:
   86064:	d2800060 	mov	x0, #0x3                   	// #3
   86068:	97ffeb58 	bl	80dc8 <invalid_exception_router>

000000000008606c <el1h_sync>:
   8606c:	d2800080 	mov	x0, #0x4                   	// #4
   86070:	97ffeb56 	bl	80dc8 <invalid_exception_router>

0000000000086074 <el1h_irq>:
   86074:	d10483ff 	sub	sp, sp, #0x120
   86078:	a90007e0 	stp	x0, x1, [sp]
   8607c:	a9010fe2 	stp	x2, x3, [sp, #16]
   86080:	a90217e4 	stp	x4, x5, [sp, #32]
   86084:	a9031fe6 	stp	x6, x7, [sp, #48]
   86088:	a90427e8 	stp	x8, x9, [sp, #64]
   8608c:	a9052fea 	stp	x10, x11, [sp, #80]
   86090:	a90637ec 	stp	x12, x13, [sp, #96]
   86094:	a9073fee 	stp	x14, x15, [sp, #112]
   86098:	a90847f0 	stp	x16, x17, [sp, #128]
   8609c:	a9094ff2 	stp	x18, x19, [sp, #144]
   860a0:	a90a57f4 	stp	x20, x21, [sp, #160]
   860a4:	a90b5ff6 	stp	x22, x23, [sp, #176]
   860a8:	a90c67f8 	stp	x24, x25, [sp, #192]
   860ac:	a90d6ffa 	stp	x26, x27, [sp, #208]
   860b0:	a90e77fc 	stp	x28, x29, [sp, #224]
   860b4:	f9007bfe 	str	x30, [sp, #240]
   860b8:	d5384000 	mrs	x0, spsr_el1
   860bc:	f9007fe0 	str	x0, [sp, #248]
   860c0:	d5384020 	mrs	x0, elr_el1
   860c4:	f90083e0 	str	x0, [sp, #256]
   860c8:	d5384100 	mrs	x0, sp_el0
   860cc:	f90087e0 	str	x0, [sp, #264]
   860d0:	a94007e0 	ldp	x0, x1, [sp]
   860d4:	910003e0 	mov	x0, sp
   860d8:	97ffeafd 	bl	80ccc <el1h_irq_router>
   860dc:	a94007e0 	ldp	x0, x1, [sp]
   860e0:	a9410fe2 	ldp	x2, x3, [sp, #16]
   860e4:	a94217e4 	ldp	x4, x5, [sp, #32]
   860e8:	a9431fe6 	ldp	x6, x7, [sp, #48]
   860ec:	a94427e8 	ldp	x8, x9, [sp, #64]
   860f0:	a9452fea 	ldp	x10, x11, [sp, #80]
   860f4:	a94637ec 	ldp	x12, x13, [sp, #96]
   860f8:	a9473fee 	ldp	x14, x15, [sp, #112]
   860fc:	a94847f0 	ldp	x16, x17, [sp, #128]
   86100:	a9494ff2 	ldp	x18, x19, [sp, #144]
   86104:	a94a57f4 	ldp	x20, x21, [sp, #160]
   86108:	a94b5ff6 	ldp	x22, x23, [sp, #176]
   8610c:	a94c67f8 	ldp	x24, x25, [sp, #192]
   86110:	a94d6ffa 	ldp	x26, x27, [sp, #208]
   86114:	a94e77fc 	ldp	x28, x29, [sp, #224]
   86118:	f9407bfe 	ldr	x30, [sp, #240]
   8611c:	f9407fe0 	ldr	x0, [sp, #248]
   86120:	d5184000 	msr	spsr_el1, x0
   86124:	f94083e0 	ldr	x0, [sp, #256]
   86128:	d5184020 	msr	elr_el1, x0
   8612c:	f94087e0 	ldr	x0, [sp, #264]
   86130:	d5184100 	msr	sp_el0, x0
   86134:	a94007e0 	ldp	x0, x1, [sp]
   86138:	a94007e0 	ldp	x0, x1, [sp]
   8613c:	910483ff 	add	sp, sp, #0x120
   86140:	d69f03e0 	eret

0000000000086144 <el1h_fiq_invalid>:
   86144:	d28000c0 	mov	x0, #0x6                   	// #6
   86148:	97ffeb20 	bl	80dc8 <invalid_exception_router>

000000000008614c <el1h_error_invalid>:
   8614c:	d28000e0 	mov	x0, #0x7                   	// #7
   86150:	97ffeb1e 	bl	80dc8 <invalid_exception_router>

0000000000086154 <el0_sync_64>:
   86154:	d10483ff 	sub	sp, sp, #0x120
   86158:	a90007e0 	stp	x0, x1, [sp]
   8615c:	a9010fe2 	stp	x2, x3, [sp, #16]
   86160:	a90217e4 	stp	x4, x5, [sp, #32]
   86164:	a9031fe6 	stp	x6, x7, [sp, #48]
   86168:	a90427e8 	stp	x8, x9, [sp, #64]
   8616c:	a9052fea 	stp	x10, x11, [sp, #80]
   86170:	a90637ec 	stp	x12, x13, [sp, #96]
   86174:	a9073fee 	stp	x14, x15, [sp, #112]
   86178:	a90847f0 	stp	x16, x17, [sp, #128]
   8617c:	a9094ff2 	stp	x18, x19, [sp, #144]
   86180:	a90a57f4 	stp	x20, x21, [sp, #160]
   86184:	a90b5ff6 	stp	x22, x23, [sp, #176]
   86188:	a90c67f8 	stp	x24, x25, [sp, #192]
   8618c:	a90d6ffa 	stp	x26, x27, [sp, #208]
   86190:	a90e77fc 	stp	x28, x29, [sp, #224]
   86194:	f9007bfe 	str	x30, [sp, #240]
   86198:	d5384000 	mrs	x0, spsr_el1
   8619c:	f9007fe0 	str	x0, [sp, #248]
   861a0:	d5384020 	mrs	x0, elr_el1
   861a4:	f90083e0 	str	x0, [sp, #256]
   861a8:	d5384100 	mrs	x0, sp_el0
