
build/kernel8.elf:     file format elf64-littleaarch64


Disassembly of section .text:

0000000000080000 <_start>:
   80000:	9400000e 	bl	80038 <from_el2_to_el1>
   80004:	1002bfe1 	adr	x1, 85800 <exception_vector_table>
   80008:	d518c001 	msr	vbar_el1, x1

000000000008000c <setup_stack>:
   8000c:	58000261 	ldr	x1, 80058 <from_el2_to_el1+0x20>
   80010:	9100003f 	mov	sp, x1

0000000000080014 <setup_bss>:
   80014:	58000261 	ldr	x1, 80060 <from_el2_to_el1+0x28>
   80018:	180001c2 	ldr	w2, 80050 <from_el2_to_el1+0x18>

000000000008001c <init_bss>:
   8001c:	34000082 	cbz	w2, 8002c <run_main>
   80020:	f800843f 	str	xzr, [x1], #8
   80024:	51000442 	sub	w2, w2, #0x1
   80028:	35ffffa2 	cbnz	w2, 8001c <init_bss>

000000000008002c <run_main>:
   8002c:	9400041a 	bl	81094 <main>

0000000000080030 <proc_hang>:
   80030:	d503205f 	wfe
   80034:	17ffffff 	b	80030 <proc_hang>

0000000000080038 <from_el2_to_el1>:
   80038:	d2b00001 	mov	x1, #0x80000000            	// #2147483648
   8003c:	d51c1101 	msr	hcr_el2, x1
   80040:	d28068a1 	mov	x1, #0x345                 	// #837
   80044:	d51c4001 	msr	spsr_el2, x1
   80048:	d51c403e 	msr	elr_el2, x30
   8004c:	d69f03e0 	eret
   80050:	0042d1e8 	.inst	0x0042d1e8 ; undefined
   80054:	00000000 	udf	#0
   80058:	029f1790 	.inst	0x029f1790 ; undefined
   8005c:	00000000 	udf	#0
   80060:	00088850 	.inst	0x00088850 ; undefined
   80064:	00000000 	udf	#0

0000000000080068 <parse_hex_str>:
   80068:	d10083ff 	sub	sp, sp, #0x20
   8006c:	f90007e0 	str	x0, [sp, #8]
   80070:	b90007e1 	str	w1, [sp, #4]
   80074:	b9001fff 	str	wzr, [sp, #28]
   80078:	b9001bff 	str	wzr, [sp, #24]
   8007c:	1400004b 	b	801a8 <parse_hex_str+0x140>
   80080:	b9401fe0 	ldr	w0, [sp, #28]
   80084:	531c6c00 	lsl	w0, w0, #4
   80088:	b9001fe0 	str	w0, [sp, #28]
   8008c:	b9401be0 	ldr	w0, [sp, #24]
   80090:	f94007e1 	ldr	x1, [sp, #8]
   80094:	8b000020 	add	x0, x1, x0
   80098:	39400000 	ldrb	w0, [x0]
   8009c:	7100bc1f 	cmp	w0, #0x2f
   800a0:	54000229 	b.ls	800e4 <parse_hex_str+0x7c>  // b.plast
   800a4:	b9401be0 	ldr	w0, [sp, #24]
   800a8:	f94007e1 	ldr	x1, [sp, #8]
   800ac:	8b000020 	add	x0, x1, x0
   800b0:	39400000 	ldrb	w0, [x0]
   800b4:	7100e41f 	cmp	w0, #0x39
   800b8:	54000168 	b.hi	800e4 <parse_hex_str+0x7c>  // b.pmore
   800bc:	b9401be0 	ldr	w0, [sp, #24]
   800c0:	f94007e1 	ldr	x1, [sp, #8]
   800c4:	8b000020 	add	x0, x1, x0
   800c8:	39400000 	ldrb	w0, [x0]
   800cc:	2a0003e1 	mov	w1, w0
   800d0:	b9401fe0 	ldr	w0, [sp, #28]
   800d4:	0b000020 	add	w0, w1, w0
   800d8:	5100c000 	sub	w0, w0, #0x30
   800dc:	b9001fe0 	str	w0, [sp, #28]
   800e0:	1400002f 	b	8019c <parse_hex_str+0x134>
   800e4:	b9401be0 	ldr	w0, [sp, #24]
   800e8:	f94007e1 	ldr	x1, [sp, #8]
   800ec:	8b000020 	add	x0, x1, x0
   800f0:	39400000 	ldrb	w0, [x0]
   800f4:	7101801f 	cmp	w0, #0x60
   800f8:	54000229 	b.ls	8013c <parse_hex_str+0xd4>  // b.plast
   800fc:	b9401be0 	ldr	w0, [sp, #24]
   80100:	f94007e1 	ldr	x1, [sp, #8]
   80104:	8b000020 	add	x0, x1, x0
   80108:	39400000 	ldrb	w0, [x0]
   8010c:	7101981f 	cmp	w0, #0x66
   80110:	54000168 	b.hi	8013c <parse_hex_str+0xd4>  // b.pmore
   80114:	b9401be0 	ldr	w0, [sp, #24]
   80118:	f94007e1 	ldr	x1, [sp, #8]
   8011c:	8b000020 	add	x0, x1, x0
   80120:	39400000 	ldrb	w0, [x0]
   80124:	2a0003e1 	mov	w1, w0
   80128:	b9401fe0 	ldr	w0, [sp, #28]
   8012c:	0b000020 	add	w0, w1, w0
   80130:	51015c00 	sub	w0, w0, #0x57
   80134:	b9001fe0 	str	w0, [sp, #28]
   80138:	14000019 	b	8019c <parse_hex_str+0x134>
   8013c:	b9401be0 	ldr	w0, [sp, #24]
   80140:	f94007e1 	ldr	x1, [sp, #8]
   80144:	8b000020 	add	x0, x1, x0
   80148:	39400000 	ldrb	w0, [x0]
   8014c:	7101001f 	cmp	w0, #0x40
   80150:	54000229 	b.ls	80194 <parse_hex_str+0x12c>  // b.plast
   80154:	b9401be0 	ldr	w0, [sp, #24]
   80158:	f94007e1 	ldr	x1, [sp, #8]
   8015c:	8b000020 	add	x0, x1, x0
   80160:	39400000 	ldrb	w0, [x0]
   80164:	7101181f 	cmp	w0, #0x46
   80168:	54000168 	b.hi	80194 <parse_hex_str+0x12c>  // b.pmore
   8016c:	b9401be0 	ldr	w0, [sp, #24]
   80170:	f94007e1 	ldr	x1, [sp, #8]
   80174:	8b000020 	add	x0, x1, x0
   80178:	39400000 	ldrb	w0, [x0]
   8017c:	2a0003e1 	mov	w1, w0
   80180:	b9401fe0 	ldr	w0, [sp, #28]
   80184:	0b000020 	add	w0, w1, w0
   80188:	5100dc00 	sub	w0, w0, #0x37
   8018c:	b9001fe0 	str	w0, [sp, #28]
   80190:	14000003 	b	8019c <parse_hex_str+0x134>
   80194:	b9401fe0 	ldr	w0, [sp, #28]
   80198:	14000009 	b	801bc <parse_hex_str+0x154>
   8019c:	b9401be0 	ldr	w0, [sp, #24]
   801a0:	11000400 	add	w0, w0, #0x1
   801a4:	b9001be0 	str	w0, [sp, #24]
   801a8:	b9401be1 	ldr	w1, [sp, #24]
   801ac:	b94007e0 	ldr	w0, [sp, #4]
   801b0:	6b00003f 	cmp	w1, w0
   801b4:	54fff663 	b.cc	80080 <parse_hex_str+0x18>  // b.lo, b.ul, b.last
   801b8:	b9401fe0 	ldr	w0, [sp, #28]
   801bc:	910083ff 	add	sp, sp, #0x20
   801c0:	d65f03c0 	ret

00000000000801c4 <cpio_newc_parse_header>:
   801c4:	a9bb7bfd 	stp	x29, x30, [sp, #-80]!
   801c8:	910003fd 	mov	x29, sp
   801cc:	f9001fe0 	str	x0, [sp, #56]
   801d0:	f9001be1 	str	x1, [sp, #48]
   801d4:	f90017e2 	str	x2, [sp, #40]
   801d8:	f90013e3 	str	x3, [sp, #32]
   801dc:	f9000fe4 	str	x4, [sp, #24]
   801e0:	f9401fe3 	ldr	x3, [sp, #56]
   801e4:	d28000c2 	mov	x2, #0x6                   	// #6
   801e8:	d0000020 	adrp	x0, 86000 <el1t_irq_invalid+0x74>
   801ec:	910f0001 	add	x1, x0, #0x3c0
   801f0:	aa0303e0 	mov	x0, x3
   801f4:	94001479 	bl	853d8 <strncmp>
   801f8:	7100001f 	cmp	w0, #0x0
   801fc:	54000060 	b.eq	80208 <cpio_newc_parse_header+0x44>  // b.none
   80200:	12800000 	mov	w0, #0xffffffff            	// #-1
   80204:	1400004a 	b	8032c <cpio_newc_parse_header+0x168>
   80208:	f9401fe0 	ldr	x0, [sp, #56]
   8020c:	9100d800 	add	x0, x0, #0x36
   80210:	52800101 	mov	w1, #0x8                   	// #8
   80214:	97ffff95 	bl	80068 <parse_hex_str>
   80218:	2a0003e1 	mov	w1, w0
   8021c:	f94017e0 	ldr	x0, [sp, #40]
   80220:	b9000001 	str	w1, [x0]
   80224:	f9401fe0 	ldr	x0, [sp, #56]
   80228:	9101b801 	add	x1, x0, #0x6e
   8022c:	f9401be0 	ldr	x0, [sp, #48]
   80230:	f9000001 	str	x1, [x0]
   80234:	f9401fe0 	ldr	x0, [sp, #56]
   80238:	91017800 	add	x0, x0, #0x5e
   8023c:	52800101 	mov	w1, #0x8                   	// #8
   80240:	97ffff8a 	bl	80068 <parse_hex_str>
   80244:	b9004fe0 	str	w0, [sp, #76]
   80248:	b9404fe0 	ldr	w0, [sp, #76]
   8024c:	1101b800 	add	w0, w0, #0x6e
   80250:	b9004be0 	str	w0, [sp, #72]
   80254:	b9404be0 	ldr	w0, [sp, #72]
   80258:	12000400 	and	w0, w0, #0x3
   8025c:	7100001f 	cmp	w0, #0x0
   80260:	540000a0 	b.eq	80274 <cpio_newc_parse_header+0xb0>  // b.none
   80264:	b9404be0 	ldr	w0, [sp, #72]
   80268:	121e7400 	and	w0, w0, #0xfffffffc
   8026c:	11001000 	add	w0, w0, #0x4
   80270:	14000002 	b	80278 <cpio_newc_parse_header+0xb4>
   80274:	b9404be0 	ldr	w0, [sp, #72]
   80278:	b9004be0 	str	w0, [sp, #72]
   8027c:	b9404be0 	ldr	w0, [sp, #72]
   80280:	f9401fe1 	ldr	x1, [sp, #56]
   80284:	8b000021 	add	x1, x1, x0
   80288:	f94013e0 	ldr	x0, [sp, #32]
   8028c:	f9000001 	str	x1, [x0]
   80290:	f94017e0 	ldr	x0, [sp, #40]
   80294:	b9400000 	ldr	w0, [x0]
   80298:	7100001f 	cmp	w0, #0x0
   8029c:	540000c1 	b.ne	802b4 <cpio_newc_parse_header+0xf0>  // b.any
   802a0:	f94013e0 	ldr	x0, [sp, #32]
   802a4:	f9400001 	ldr	x1, [x0]
   802a8:	f9400fe0 	ldr	x0, [sp, #24]
   802ac:	f9000001 	str	x1, [x0]
   802b0:	14000013 	b	802fc <cpio_newc_parse_header+0x138>
   802b4:	f94017e0 	ldr	x0, [sp, #40]
   802b8:	b9400000 	ldr	w0, [x0]
   802bc:	b9004be0 	str	w0, [sp, #72]
   802c0:	f94013e0 	ldr	x0, [sp, #32]
   802c4:	f9400001 	ldr	x1, [x0]
   802c8:	b9404be0 	ldr	w0, [sp, #72]
   802cc:	12000400 	and	w0, w0, #0x3
   802d0:	7100001f 	cmp	w0, #0x0
   802d4:	54000061 	b.ne	802e0 <cpio_newc_parse_header+0x11c>  // b.any
   802d8:	b9404be0 	ldr	w0, [sp, #72]
   802dc:	14000005 	b	802f0 <cpio_newc_parse_header+0x12c>
   802e0:	b9404be0 	ldr	w0, [sp, #72]
   802e4:	121e7400 	and	w0, w0, #0xfffffffc
   802e8:	11001000 	add	w0, w0, #0x4
   802ec:	2a0003e0 	mov	w0, w0
   802f0:	8b000021 	add	x1, x1, x0
   802f4:	f9400fe0 	ldr	x0, [sp, #24]
   802f8:	f9000001 	str	x1, [x0]
   802fc:	f9401be0 	ldr	x0, [sp, #48]
   80300:	f9400003 	ldr	x3, [x0]
   80304:	d2800162 	mov	x2, #0xb                   	// #11
   80308:	d0000020 	adrp	x0, 86000 <el1t_irq_invalid+0x74>
   8030c:	910f2001 	add	x1, x0, #0x3c8
   80310:	aa0303e0 	mov	x0, x3
   80314:	94001431 	bl	853d8 <strncmp>
   80318:	7100001f 	cmp	w0, #0x0
   8031c:	54000061 	b.ne	80328 <cpio_newc_parse_header+0x164>  // b.any
   80320:	f9400fe0 	ldr	x0, [sp, #24]
   80324:	f900001f 	str	xzr, [x0]
   80328:	52800000 	mov	w0, #0x0                   	// #0
   8032c:	a8c57bfd 	ldp	x29, x30, [sp], #80
   80330:	d65f03c0 	ret

0000000000080334 <uint32_endian_big2little>:
   80334:	d10083ff 	sub	sp, sp, #0x20
   80338:	b9000fe0 	str	w0, [sp, #12]
   8033c:	910033e0 	add	x0, sp, #0xc
   80340:	f9000fe0 	str	x0, [sp, #24]
   80344:	f9400fe0 	ldr	x0, [sp, #24]
   80348:	91000c00 	add	x0, x0, #0x3
   8034c:	39400000 	ldrb	w0, [x0]
   80350:	2a0003e1 	mov	w1, w0
   80354:	f9400fe0 	ldr	x0, [sp, #24]
   80358:	91000800 	add	x0, x0, #0x2
   8035c:	39400000 	ldrb	w0, [x0]
   80360:	53185c00 	lsl	w0, w0, #8
   80364:	2a000021 	orr	w1, w1, w0
   80368:	f9400fe0 	ldr	x0, [sp, #24]
   8036c:	91000400 	add	x0, x0, #0x1
   80370:	39400000 	ldrb	w0, [x0]
   80374:	53103c00 	lsl	w0, w0, #16
   80378:	2a000021 	orr	w1, w1, w0
   8037c:	f9400fe0 	ldr	x0, [sp, #24]
   80380:	39400000 	ldrb	w0, [x0]
   80384:	53081c00 	lsl	w0, w0, #24
   80388:	2a000020 	orr	w0, w1, w0
   8038c:	910083ff 	add	sp, sp, #0x20
   80390:	d65f03c0 	ret

0000000000080394 <uint64_endian_big2little>:
   80394:	d10083ff 	sub	sp, sp, #0x20
   80398:	f90007e0 	str	x0, [sp, #8]
   8039c:	910023e0 	add	x0, sp, #0x8
   803a0:	f9000fe0 	str	x0, [sp, #24]
   803a4:	f9400fe0 	ldr	x0, [sp, #24]
   803a8:	91001c00 	add	x0, x0, #0x7
   803ac:	39400000 	ldrb	w0, [x0]
   803b0:	92401c01 	and	x1, x0, #0xff
   803b4:	f9400fe0 	ldr	x0, [sp, #24]
   803b8:	91001800 	add	x0, x0, #0x6
   803bc:	39400000 	ldrb	w0, [x0]
   803c0:	53185c00 	lsl	w0, w0, #8
   803c4:	93407c00 	sxtw	x0, w0
   803c8:	aa000021 	orr	x1, x1, x0
   803cc:	f9400fe0 	ldr	x0, [sp, #24]
   803d0:	91001400 	add	x0, x0, #0x5
   803d4:	39400000 	ldrb	w0, [x0]
   803d8:	92401c00 	and	x0, x0, #0xff
   803dc:	d370bc00 	lsl	x0, x0, #16
   803e0:	aa000021 	orr	x1, x1, x0
   803e4:	f9400fe0 	ldr	x0, [sp, #24]
   803e8:	91001000 	add	x0, x0, #0x4
   803ec:	39400000 	ldrb	w0, [x0]
   803f0:	92401c00 	and	x0, x0, #0xff
   803f4:	d3689c00 	lsl	x0, x0, #24
   803f8:	aa000021 	orr	x1, x1, x0
   803fc:	f9400fe0 	ldr	x0, [sp, #24]
   80400:	91000c00 	add	x0, x0, #0x3
   80404:	39400000 	ldrb	w0, [x0]
   80408:	92401c00 	and	x0, x0, #0xff
   8040c:	d3607c00 	lsl	x0, x0, #32
   80410:	aa000021 	orr	x1, x1, x0
   80414:	f9400fe0 	ldr	x0, [sp, #24]
   80418:	91000800 	add	x0, x0, #0x2
   8041c:	39400000 	ldrb	w0, [x0]
   80420:	92401c00 	and	x0, x0, #0xff
   80424:	d3585c00 	lsl	x0, x0, #40
   80428:	aa000021 	orr	x1, x1, x0
   8042c:	f9400fe0 	ldr	x0, [sp, #24]
   80430:	91000400 	add	x0, x0, #0x1
   80434:	39400000 	ldrb	w0, [x0]
   80438:	92401c00 	and	x0, x0, #0xff
   8043c:	d3503c00 	lsl	x0, x0, #48
   80440:	aa000021 	orr	x1, x1, x0
   80444:	f9400fe0 	ldr	x0, [sp, #24]
   80448:	39400000 	ldrb	w0, [x0]
   8044c:	92401c00 	and	x0, x0, #0xff
   80450:	d3481c00 	lsl	x0, x0, #56
   80454:	aa000020 	orr	x0, x1, x0
   80458:	910083ff 	add	sp, sp, #0x20
   8045c:	d65f03c0 	ret

0000000000080460 <traverse_device_tree>:
   80460:	a9ba7bfd 	stp	x29, x30, [sp, #-96]!
   80464:	910003fd 	mov	x29, sp
   80468:	f9000fe0 	str	x0, [sp, #24]
   8046c:	f9000be1 	str	x1, [sp, #16]
   80470:	f9400fe0 	ldr	x0, [sp, #24]
   80474:	f9002be0 	str	x0, [sp, #80]
   80478:	f9402be0 	ldr	x0, [sp, #80]
   8047c:	b9400000 	ldr	w0, [x0]
   80480:	97ffffad 	bl	80334 <uint32_endian_big2little>
   80484:	2a0003e1 	mov	w1, w0
   80488:	529fdda0 	mov	w0, #0xfeed                	// #65261
   8048c:	72ba01a0 	movk	w0, #0xd00d, lsl #16
   80490:	6b00003f 	cmp	w1, w0
   80494:	540000a0 	b.eq	804a8 <traverse_device_tree+0x48>  // b.none
   80498:	d0000020 	adrp	x0, 86000 <el1t_irq_invalid+0x74>
   8049c:	910f6000 	add	x0, x0, #0x3d8
   804a0:	94001102 	bl	848a8 <uart_sendline>
   804a4:	14000089 	b	806c8 <traverse_device_tree+0x268>
   804a8:	f9402be0 	ldr	x0, [sp, #80]
   804ac:	b9402400 	ldr	w0, [x0, #36]
   804b0:	97ffffa1 	bl	80334 <uint32_endian_big2little>
   804b4:	b9004fe0 	str	w0, [sp, #76]
   804b8:	f9402be0 	ldr	x0, [sp, #80]
   804bc:	b9400800 	ldr	w0, [x0, #8]
   804c0:	97ffff9d 	bl	80334 <uint32_endian_big2little>
   804c4:	2a0003e0 	mov	w0, w0
   804c8:	f9402be1 	ldr	x1, [sp, #80]
   804cc:	8b000020 	add	x0, x1, x0
   804d0:	f90023e0 	str	x0, [sp, #64]
   804d4:	f9402be0 	ldr	x0, [sp, #80]
   804d8:	b9400c00 	ldr	w0, [x0, #12]
   804dc:	97ffff96 	bl	80334 <uint32_endian_big2little>
   804e0:	2a0003e0 	mov	w0, w0
   804e4:	f9402be1 	ldr	x1, [sp, #80]
   804e8:	8b000020 	add	x0, x1, x0
   804ec:	f9001fe0 	str	x0, [sp, #56]
   804f0:	b9404fe0 	ldr	w0, [sp, #76]
   804f4:	f94023e1 	ldr	x1, [sp, #64]
   804f8:	8b000020 	add	x0, x1, x0
   804fc:	f9001be0 	str	x0, [sp, #48]
   80500:	f94023e0 	ldr	x0, [sp, #64]
   80504:	f9002fe0 	str	x0, [sp, #88]
   80508:	1400006c 	b	806b8 <traverse_device_tree+0x258>
   8050c:	f9402fe0 	ldr	x0, [sp, #88]
   80510:	b9400000 	ldr	w0, [x0]
   80514:	97ffff88 	bl	80334 <uint32_endian_big2little>
   80518:	b9002fe0 	str	w0, [sp, #44]
   8051c:	f9402fe0 	ldr	x0, [sp, #88]
   80520:	91001000 	add	x0, x0, #0x4
   80524:	f9002fe0 	str	x0, [sp, #88]
   80528:	b9402fe0 	ldr	w0, [sp, #44]
   8052c:	7100041f 	cmp	w0, #0x1
   80530:	540002a1 	b.ne	80584 <traverse_device_tree+0x124>  // b.any
   80534:	f9400be4 	ldr	x4, [sp, #16]
   80538:	52800003 	mov	w3, #0x0                   	// #0
   8053c:	d2800002 	mov	x2, #0x0                   	// #0
   80540:	f9402fe1 	ldr	x1, [sp, #88]
   80544:	b9402fe0 	ldr	w0, [sp, #44]
   80548:	d63f0080 	blr	x4
   8054c:	f9402fe0 	ldr	x0, [sp, #88]
   80550:	94001371 	bl	85314 <strlen>
   80554:	aa0003e1 	mov	x1, x0
   80558:	f9402fe0 	ldr	x0, [sp, #88]
   8055c:	8b010000 	add	x0, x0, x1
   80560:	f9002fe0 	str	x0, [sp, #88]
   80564:	f9402fe0 	ldr	x0, [sp, #88]
   80568:	92400400 	and	x0, x0, #0x3
   8056c:	d2800081 	mov	x1, #0x4                   	// #4
   80570:	cb000020 	sub	x0, x1, x0
   80574:	f9402fe1 	ldr	x1, [sp, #88]
   80578:	8b000020 	add	x0, x1, x0
   8057c:	f9002fe0 	str	x0, [sp, #88]
   80580:	1400004e 	b	806b8 <traverse_device_tree+0x258>
   80584:	b9402fe0 	ldr	w0, [sp, #44]
   80588:	7100081f 	cmp	w0, #0x2
   8058c:	54000101 	b.ne	805ac <traverse_device_tree+0x14c>  // b.any
   80590:	f9400be4 	ldr	x4, [sp, #16]
   80594:	52800003 	mov	w3, #0x0                   	// #0
   80598:	d2800002 	mov	x2, #0x0                   	// #0
   8059c:	d2800001 	mov	x1, #0x0                   	// #0
   805a0:	b9402fe0 	ldr	w0, [sp, #44]
   805a4:	d63f0080 	blr	x4
   805a8:	14000044 	b	806b8 <traverse_device_tree+0x258>
   805ac:	b9402fe0 	ldr	w0, [sp, #44]
   805b0:	71000c1f 	cmp	w0, #0x3
   805b4:	54000501 	b.ne	80654 <traverse_device_tree+0x1f4>  // b.any
   805b8:	f9402fe0 	ldr	x0, [sp, #88]
   805bc:	b9400000 	ldr	w0, [x0]
   805c0:	97ffff5d 	bl	80334 <uint32_endian_big2little>
   805c4:	b9002be0 	str	w0, [sp, #40]
   805c8:	f9402fe0 	ldr	x0, [sp, #88]
   805cc:	91001000 	add	x0, x0, #0x4
   805d0:	f9002fe0 	str	x0, [sp, #88]
   805d4:	f9402fe0 	ldr	x0, [sp, #88]
   805d8:	b9400000 	ldr	w0, [x0]
   805dc:	97ffff56 	bl	80334 <uint32_endian_big2little>
   805e0:	2a0003e0 	mov	w0, w0
   805e4:	f9401fe1 	ldr	x1, [sp, #56]
   805e8:	8b000020 	add	x0, x1, x0
   805ec:	f90013e0 	str	x0, [sp, #32]
   805f0:	f9402fe0 	ldr	x0, [sp, #88]
   805f4:	91001000 	add	x0, x0, #0x4
   805f8:	f9002fe0 	str	x0, [sp, #88]
   805fc:	f9400be4 	ldr	x4, [sp, #16]
   80600:	b9402be3 	ldr	w3, [sp, #40]
   80604:	f9402fe2 	ldr	x2, [sp, #88]
   80608:	f94013e1 	ldr	x1, [sp, #32]
   8060c:	b9402fe0 	ldr	w0, [sp, #44]
   80610:	d63f0080 	blr	x4
   80614:	b9402be0 	ldr	w0, [sp, #40]
   80618:	f9402fe1 	ldr	x1, [sp, #88]
   8061c:	8b000020 	add	x0, x1, x0
   80620:	f9002fe0 	str	x0, [sp, #88]
   80624:	f9402fe0 	ldr	x0, [sp, #88]
   80628:	92400400 	and	x0, x0, #0x3
   8062c:	f100001f 	cmp	x0, #0x0
   80630:	54000440 	b.eq	806b8 <traverse_device_tree+0x258>  // b.none
   80634:	f9402fe0 	ldr	x0, [sp, #88]
   80638:	92400400 	and	x0, x0, #0x3
   8063c:	d2800081 	mov	x1, #0x4                   	// #4
   80640:	cb000020 	sub	x0, x1, x0
   80644:	f9402fe1 	ldr	x1, [sp, #88]
   80648:	8b000020 	add	x0, x1, x0
   8064c:	f9002fe0 	str	x0, [sp, #88]
   80650:	1400001a 	b	806b8 <traverse_device_tree+0x258>
   80654:	b9402fe0 	ldr	w0, [sp, #44]
   80658:	7100101f 	cmp	w0, #0x4
   8065c:	54000101 	b.ne	8067c <traverse_device_tree+0x21c>  // b.any
   80660:	f9400be4 	ldr	x4, [sp, #16]
   80664:	52800003 	mov	w3, #0x0                   	// #0
   80668:	d2800002 	mov	x2, #0x0                   	// #0
   8066c:	d2800001 	mov	x1, #0x0                   	// #0
   80670:	b9402fe0 	ldr	w0, [sp, #44]
   80674:	d63f0080 	blr	x4
   80678:	14000010 	b	806b8 <traverse_device_tree+0x258>
   8067c:	b9402fe0 	ldr	w0, [sp, #44]
   80680:	7100241f 	cmp	w0, #0x9
   80684:	54000101 	b.ne	806a4 <traverse_device_tree+0x244>  // b.any
   80688:	f9400be4 	ldr	x4, [sp, #16]
   8068c:	52800003 	mov	w3, #0x0                   	// #0
   80690:	d2800002 	mov	x2, #0x0                   	// #0
   80694:	d2800001 	mov	x1, #0x0                   	// #0
   80698:	b9402fe0 	ldr	w0, [sp, #44]
   8069c:	d63f0080 	blr	x4
   806a0:	14000006 	b	806b8 <traverse_device_tree+0x258>
   806a4:	b9402fe1 	ldr	w1, [sp, #44]
   806a8:	d0000020 	adrp	x0, 86000 <el1t_irq_invalid+0x74>
   806ac:	91106000 	add	x0, x0, #0x418
   806b0:	9400107e 	bl	848a8 <uart_sendline>
   806b4:	14000005 	b	806c8 <traverse_device_tree+0x268>
   806b8:	f9402fe1 	ldr	x1, [sp, #88]
   806bc:	f9401be0 	ldr	x0, [sp, #48]
   806c0:	eb00003f 	cmp	x1, x0
   806c4:	54fff243 	b.cc	8050c <traverse_device_tree+0xac>  // b.lo, b.ul, b.last
   806c8:	a8c67bfd 	ldp	x29, x30, [sp], #96
   806cc:	d65f03c0 	ret

00000000000806d0 <dtb_callback_show_tree>:
   806d0:	a9bc7bfd 	stp	x29, x30, [sp, #-64]!
   806d4:	910003fd 	mov	x29, sp
   806d8:	b9002fe0 	str	w0, [sp, #44]
   806dc:	f90013e1 	str	x1, [sp, #32]
   806e0:	f9000fe2 	str	x2, [sp, #24]
   806e4:	b9002be3 	str	w3, [sp, #40]
   806e8:	b9402fe0 	ldr	w0, [sp, #44]
   806ec:	7100041f 	cmp	w0, #0x1
   806f0:	54000361 	b.ne	8075c <dtb_callback_show_tree+0x8c>  // b.any
   806f4:	b9003fff 	str	wzr, [sp, #60]
   806f8:	14000007 	b	80714 <dtb_callback_show_tree+0x44>
   806fc:	d0000020 	adrp	x0, 86000 <el1t_irq_invalid+0x74>
   80700:	9110a000 	add	x0, x0, #0x428
   80704:	94001069 	bl	848a8 <uart_sendline>
   80708:	b9403fe0 	ldr	w0, [sp, #60]
   8070c:	11000400 	add	w0, w0, #0x1
   80710:	b9003fe0 	str	w0, [sp, #60]
   80714:	90000040 	adrp	x0, 88000 <cmd_list+0x758>
   80718:	91216000 	add	x0, x0, #0x858
   8071c:	b9400000 	ldr	w0, [x0]
   80720:	b9403fe1 	ldr	w1, [sp, #60]
   80724:	6b00003f 	cmp	w1, w0
   80728:	54fffeab 	b.lt	806fc <dtb_callback_show_tree+0x2c>  // b.tstop
   8072c:	f94013e1 	ldr	x1, [sp, #32]
   80730:	d0000020 	adrp	x0, 86000 <el1t_irq_invalid+0x74>
   80734:	9110c000 	add	x0, x0, #0x430
   80738:	9400105c 	bl	848a8 <uart_sendline>
   8073c:	90000040 	adrp	x0, 88000 <cmd_list+0x758>
   80740:	91216000 	add	x0, x0, #0x858
   80744:	b9400000 	ldr	w0, [x0]
   80748:	11000401 	add	w1, w0, #0x1
   8074c:	90000040 	adrp	x0, 88000 <cmd_list+0x758>
   80750:	91216000 	add	x0, x0, #0x858
   80754:	b9000001 	str	w1, [x0]
   80758:	14000032 	b	80820 <dtb_callback_show_tree+0x150>
   8075c:	b9402fe0 	ldr	w0, [sp, #44]
   80760:	7100081f 	cmp	w0, #0x2
   80764:	54000341 	b.ne	807cc <dtb_callback_show_tree+0xfc>  // b.any
   80768:	90000040 	adrp	x0, 88000 <cmd_list+0x758>
   8076c:	91216000 	add	x0, x0, #0x858
   80770:	b9400000 	ldr	w0, [x0]
   80774:	51000401 	sub	w1, w0, #0x1
   80778:	90000040 	adrp	x0, 88000 <cmd_list+0x758>
   8077c:	91216000 	add	x0, x0, #0x858
   80780:	b9000001 	str	w1, [x0]
   80784:	b9003bff 	str	wzr, [sp, #56]
   80788:	14000007 	b	807a4 <dtb_callback_show_tree+0xd4>
   8078c:	d0000020 	adrp	x0, 86000 <el1t_irq_invalid+0x74>
   80790:	9110a000 	add	x0, x0, #0x428
   80794:	94001045 	bl	848a8 <uart_sendline>
   80798:	b9403be0 	ldr	w0, [sp, #56]
   8079c:	11000400 	add	w0, w0, #0x1
   807a0:	b9003be0 	str	w0, [sp, #56]
   807a4:	90000040 	adrp	x0, 88000 <cmd_list+0x758>
   807a8:	91216000 	add	x0, x0, #0x858
   807ac:	b9400000 	ldr	w0, [x0]
   807b0:	b9403be1 	ldr	w1, [sp, #56]
   807b4:	6b00003f 	cmp	w1, w0
   807b8:	54fffeab 	b.lt	8078c <dtb_callback_show_tree+0xbc>  // b.tstop
   807bc:	d0000020 	adrp	x0, 86000 <el1t_irq_invalid+0x74>
   807c0:	9110e000 	add	x0, x0, #0x438
   807c4:	94001039 	bl	848a8 <uart_sendline>
   807c8:	14000016 	b	80820 <dtb_callback_show_tree+0x150>
   807cc:	b9402fe0 	ldr	w0, [sp, #44]
   807d0:	71000c1f 	cmp	w0, #0x3
   807d4:	54000261 	b.ne	80820 <dtb_callback_show_tree+0x150>  // b.any
   807d8:	b90037ff 	str	wzr, [sp, #52]
   807dc:	14000007 	b	807f8 <dtb_callback_show_tree+0x128>
   807e0:	d0000020 	adrp	x0, 86000 <el1t_irq_invalid+0x74>
   807e4:	9110a000 	add	x0, x0, #0x428
   807e8:	94001030 	bl	848a8 <uart_sendline>
   807ec:	b94037e0 	ldr	w0, [sp, #52]
   807f0:	11000400 	add	w0, w0, #0x1
   807f4:	b90037e0 	str	w0, [sp, #52]
   807f8:	90000040 	adrp	x0, 88000 <cmd_list+0x758>
   807fc:	91216000 	add	x0, x0, #0x858
   80800:	b9400000 	ldr	w0, [x0]
   80804:	b94037e1 	ldr	w1, [sp, #52]
   80808:	6b00003f 	cmp	w1, w0
   8080c:	54fffeab 	b.lt	807e0 <dtb_callback_show_tree+0x110>  // b.tstop
   80810:	f94013e1 	ldr	x1, [sp, #32]
   80814:	d0000020 	adrp	x0, 86000 <el1t_irq_invalid+0x74>
   80818:	91110000 	add	x0, x0, #0x440
   8081c:	94001023 	bl	848a8 <uart_sendline>
   80820:	d503201f 	nop
   80824:	a8c47bfd 	ldp	x29, x30, [sp], #64
   80828:	d65f03c0 	ret

000000000008082c <dtb_callback_initramfs>:
   8082c:	a9bd7bfd 	stp	x29, x30, [sp, #-48]!
   80830:	910003fd 	mov	x29, sp
   80834:	b9002fe0 	str	w0, [sp, #44]
   80838:	f90013e1 	str	x1, [sp, #32]
   8083c:	f9000fe2 	str	x2, [sp, #24]
   80840:	b9002be3 	str	w3, [sp, #40]
   80844:	b9402fe0 	ldr	w0, [sp, #44]
   80848:	71000c1f 	cmp	w0, #0x3
   8084c:	540001e1 	b.ne	80888 <dtb_callback_initramfs+0x5c>  // b.any
   80850:	d0000020 	adrp	x0, 86000 <el1t_irq_invalid+0x74>
   80854:	91112001 	add	x1, x0, #0x448
   80858:	f94013e0 	ldr	x0, [sp, #32]
   8085c:	940012be 	bl	85354 <strcmp>
   80860:	7100001f 	cmp	w0, #0x0
   80864:	54000121 	b.ne	80888 <dtb_callback_initramfs+0x5c>  // b.any
   80868:	f9400fe0 	ldr	x0, [sp, #24]
   8086c:	b9400000 	ldr	w0, [x0]
   80870:	97fffeb1 	bl	80334 <uint32_endian_big2little>
   80874:	2a0003e0 	mov	w0, w0
   80878:	aa0003e1 	mov	x1, x0
   8087c:	90000040 	adrp	x0, 88000 <cmd_list+0x758>
   80880:	f9441000 	ldr	x0, [x0, #2080]
   80884:	f9000001 	str	x1, [x0]
   80888:	b9402fe0 	ldr	w0, [sp, #44]
   8088c:	71000c1f 	cmp	w0, #0x3
   80890:	540001e1 	b.ne	808cc <dtb_callback_initramfs+0xa0>  // b.any
   80894:	d0000020 	adrp	x0, 86000 <el1t_irq_invalid+0x74>
   80898:	91118001 	add	x1, x0, #0x460
   8089c:	f94013e0 	ldr	x0, [sp, #32]
   808a0:	940012ad 	bl	85354 <strcmp>
   808a4:	7100001f 	cmp	w0, #0x0
   808a8:	54000121 	b.ne	808cc <dtb_callback_initramfs+0xa0>  // b.any
   808ac:	f9400fe0 	ldr	x0, [sp, #24]
   808b0:	b9400000 	ldr	w0, [x0]
   808b4:	97fffea0 	bl	80334 <uint32_endian_big2little>
   808b8:	2a0003e0 	mov	w0, w0
   808bc:	aa0003e1 	mov	x1, x0
   808c0:	90000040 	adrp	x0, 88000 <cmd_list+0x758>
   808c4:	f9440000 	ldr	x0, [x0, #2048]
   808c8:	f9000001 	str	x1, [x0]
   808cc:	d503201f 	nop
   808d0:	a8c37bfd 	ldp	x29, x30, [sp], #48
   808d4:	d65f03c0 	ret

00000000000808d8 <dtb_get_reserved_memory>:
   808d8:	a9bb7bfd 	stp	x29, x30, [sp, #-80]!
   808dc:	910003fd 	mov	x29, sp
   808e0:	a90153f3 	stp	x19, x20, [sp, #16]
   808e4:	90000040 	adrp	x0, 88000 <cmd_list+0x758>
   808e8:	91214000 	add	x0, x0, #0x850
   808ec:	f9400000 	ldr	x0, [x0]
   808f0:	f90023e0 	str	x0, [sp, #64]
   808f4:	f94023e0 	ldr	x0, [sp, #64]
   808f8:	b9400000 	ldr	w0, [x0]
   808fc:	97fffe8e 	bl	80334 <uint32_endian_big2little>
   80900:	2a0003e1 	mov	w1, w0
   80904:	529fdda0 	mov	w0, #0xfeed                	// #65261
   80908:	72ba01a0 	movk	w0, #0xd00d, lsl #16
   8090c:	6b00003f 	cmp	w1, w0
   80910:	540000a0 	b.eq	80924 <dtb_get_reserved_memory+0x4c>  // b.none
   80914:	d0000020 	adrp	x0, 86000 <el1t_irq_invalid+0x74>
   80918:	9111e000 	add	x0, x0, #0x478
   8091c:	94000fe3 	bl	848a8 <uart_sendline>
   80920:	14000033 	b	809ec <dtb_get_reserved_memory+0x114>
   80924:	f94023e0 	ldr	x0, [sp, #64]
   80928:	b9401000 	ldr	w0, [x0, #16]
   8092c:	97fffe82 	bl	80334 <uint32_endian_big2little>
   80930:	2a0003e0 	mov	w0, w0
   80934:	f94023e1 	ldr	x1, [sp, #64]
   80938:	8b000020 	add	x0, x1, x0
   8093c:	f9001fe0 	str	x0, [sp, #56]
   80940:	f9401fe0 	ldr	x0, [sp, #56]
   80944:	f90027e0 	str	x0, [sp, #72]
   80948:	14000012 	b	80990 <dtb_get_reserved_memory+0xb8>
   8094c:	f94027e0 	ldr	x0, [sp, #72]
   80950:	f9400000 	ldr	x0, [x0]
   80954:	97fffe90 	bl	80394 <uint64_endian_big2little>
   80958:	f9001be0 	str	x0, [sp, #48]
   8095c:	f94027e0 	ldr	x0, [sp, #72]
   80960:	f9400001 	ldr	x1, [x0]
   80964:	f94027e0 	ldr	x0, [sp, #72]
   80968:	f9400400 	ldr	x0, [x0, #8]
   8096c:	8b000020 	add	x0, x1, x0
   80970:	97fffe89 	bl	80394 <uint64_endian_big2little>
   80974:	f90017e0 	str	x0, [sp, #40]
   80978:	f94017e1 	ldr	x1, [sp, #40]
   8097c:	f9401be0 	ldr	x0, [sp, #48]
   80980:	94000548 	bl	81ea0 <memory_reserve>
   80984:	f94027e0 	ldr	x0, [sp, #72]
   80988:	91004000 	add	x0, x0, #0x10
   8098c:	f90027e0 	str	x0, [sp, #72]
   80990:	f94027e0 	ldr	x0, [sp, #72]
   80994:	f9400000 	ldr	x0, [x0]
   80998:	f100001f 	cmp	x0, #0x0
   8099c:	54fffd81 	b.ne	8094c <dtb_get_reserved_memory+0x74>  // b.any
   809a0:	f94027e0 	ldr	x0, [sp, #72]
   809a4:	f9400400 	ldr	x0, [x0, #8]
   809a8:	f100001f 	cmp	x0, #0x0
   809ac:	54fffd01 	b.ne	8094c <dtb_get_reserved_memory+0x74>  // b.any
   809b0:	90000040 	adrp	x0, 88000 <cmd_list+0x758>
   809b4:	91214000 	add	x0, x0, #0x850
   809b8:	f9400000 	ldr	x0, [x0]
   809bc:	aa0003f4 	mov	x20, x0
   809c0:	90000040 	adrp	x0, 88000 <cmd_list+0x758>
   809c4:	91214000 	add	x0, x0, #0x850
   809c8:	f9400013 	ldr	x19, [x0]
   809cc:	f94023e0 	ldr	x0, [sp, #64]
   809d0:	b9400400 	ldr	w0, [x0, #4]
   809d4:	97fffe58 	bl	80334 <uint32_endian_big2little>
   809d8:	2a0003e0 	mov	w0, w0
   809dc:	8b000260 	add	x0, x19, x0
   809e0:	aa0003e1 	mov	x1, x0
   809e4:	aa1403e0 	mov	x0, x20
   809e8:	9400052e 	bl	81ea0 <memory_reserve>
   809ec:	a94153f3 	ldp	x19, x20, [sp, #16]
   809f0:	a8c57bfd 	ldp	x29, x30, [sp], #80
   809f4:	d65f03c0 	ret

00000000000809f8 <lock>:
   809f8:	a9bf7bfd 	stp	x29, x30, [sp, #-16]!
   809fc:	910003fd 	mov	x29, sp
   80a00:	94000133 	bl	80ecc <el1_interrupt_disable>
   80a04:	90000040 	adrp	x0, 88000 <cmd_list+0x758>
   80a08:	9121a000 	add	x0, x0, #0x868
   80a0c:	f9400000 	ldr	x0, [x0]
   80a10:	91000401 	add	x1, x0, #0x1
   80a14:	90000040 	adrp	x0, 88000 <cmd_list+0x758>
   80a18:	9121a000 	add	x0, x0, #0x868
   80a1c:	f9000001 	str	x1, [x0]
   80a20:	d503201f 	nop
   80a24:	a8c17bfd 	ldp	x29, x30, [sp], #16
   80a28:	d65f03c0 	ret

0000000000080a2c <unlock>:
   80a2c:	a9bf7bfd 	stp	x29, x30, [sp, #-16]!
   80a30:	910003fd 	mov	x29, sp
   80a34:	90000040 	adrp	x0, 88000 <cmd_list+0x758>
   80a38:	9121a000 	add	x0, x0, #0x868
   80a3c:	f9400000 	ldr	x0, [x0]
   80a40:	d1000401 	sub	x1, x0, #0x1
   80a44:	90000040 	adrp	x0, 88000 <cmd_list+0x758>
   80a48:	9121a000 	add	x0, x0, #0x868
   80a4c:	f9000001 	str	x1, [x0]
   80a50:	90000040 	adrp	x0, 88000 <cmd_list+0x758>
   80a54:	9121a000 	add	x0, x0, #0x868
   80a58:	f9400000 	ldr	x0, [x0]
   80a5c:	f100001f 	cmp	x0, #0x0
   80a60:	54000041 	b.ne	80a68 <unlock+0x3c>  // b.any
   80a64:	94000117 	bl	80ec0 <el1_interrupt_enable>
   80a68:	d503201f 	nop
   80a6c:	a8c17bfd 	ldp	x29, x30, [sp], #16
   80a70:	d65f03c0 	ret

0000000000080a74 <el0_sync_router>:
   80a74:	a9bd7bfd 	stp	x29, x30, [sp, #-48]!
   80a78:	910003fd 	mov	x29, sp
   80a7c:	f9000fe0 	str	x0, [sp, #24]
   80a80:	94000110 	bl	80ec0 <el1_interrupt_enable>
   80a84:	f9400fe0 	ldr	x0, [sp, #24]
   80a88:	f9402000 	ldr	x0, [x0, #64]
   80a8c:	b9002fe0 	str	w0, [sp, #44]
   80a90:	b9402fe0 	ldr	w0, [sp, #44]
   80a94:	71018c1f 	cmp	w0, #0x63
   80a98:	54001060 	b.eq	80ca4 <el0_sync_router+0x230>  // b.none
   80a9c:	b9402fe0 	ldr	w0, [sp, #44]
   80aa0:	71018c1f 	cmp	w0, #0x63
   80aa4:	5400106c 	b.gt	80cb0 <el0_sync_router+0x23c>
   80aa8:	b9402fe0 	ldr	w0, [sp, #44]
   80aac:	7100241f 	cmp	w0, #0x9
   80ab0:	54000e80 	b.eq	80c80 <el0_sync_router+0x20c>  // b.none
   80ab4:	b9402fe0 	ldr	w0, [sp, #44]
   80ab8:	7100241f 	cmp	w0, #0x9
   80abc:	54000fac 	b.gt	80cb0 <el0_sync_router+0x23c>
   80ac0:	b9402fe0 	ldr	w0, [sp, #44]
   80ac4:	7100201f 	cmp	w0, #0x8
   80ac8:	54000ca0 	b.eq	80c5c <el0_sync_router+0x1e8>  // b.none
   80acc:	b9402fe0 	ldr	w0, [sp, #44]
   80ad0:	7100201f 	cmp	w0, #0x8
   80ad4:	54000eec 	b.gt	80cb0 <el0_sync_router+0x23c>
   80ad8:	b9402fe0 	ldr	w0, [sp, #44]
   80adc:	71001c1f 	cmp	w0, #0x7
   80ae0:	54000b20 	b.eq	80c44 <el0_sync_router+0x1d0>  // b.none
   80ae4:	b9402fe0 	ldr	w0, [sp, #44]
   80ae8:	71001c1f 	cmp	w0, #0x7
   80aec:	54000e2c 	b.gt	80cb0 <el0_sync_router+0x23c>
   80af0:	b9402fe0 	ldr	w0, [sp, #44]
   80af4:	7100181f 	cmp	w0, #0x6
   80af8:	54000940 	b.eq	80c20 <el0_sync_router+0x1ac>  // b.none
   80afc:	b9402fe0 	ldr	w0, [sp, #44]
   80b00:	7100181f 	cmp	w0, #0x6
   80b04:	54000d6c 	b.gt	80cb0 <el0_sync_router+0x23c>
   80b08:	b9402fe0 	ldr	w0, [sp, #44]
   80b0c:	7100141f 	cmp	w0, #0x5
   80b10:	540007c0 	b.eq	80c08 <el0_sync_router+0x194>  // b.none
   80b14:	b9402fe0 	ldr	w0, [sp, #44]
   80b18:	7100141f 	cmp	w0, #0x5
   80b1c:	54000cac 	b.gt	80cb0 <el0_sync_router+0x23c>
   80b20:	b9402fe0 	ldr	w0, [sp, #44]
   80b24:	7100101f 	cmp	w0, #0x4
   80b28:	540006a0 	b.eq	80bfc <el0_sync_router+0x188>  // b.none
   80b2c:	b9402fe0 	ldr	w0, [sp, #44]
   80b30:	7100101f 	cmp	w0, #0x4
   80b34:	54000bec 	b.gt	80cb0 <el0_sync_router+0x23c>
   80b38:	b9402fe0 	ldr	w0, [sp, #44]
   80b3c:	71000c1f 	cmp	w0, #0x3
   80b40:	540004c0 	b.eq	80bd8 <el0_sync_router+0x164>  // b.none
   80b44:	b9402fe0 	ldr	w0, [sp, #44]
   80b48:	71000c1f 	cmp	w0, #0x3
   80b4c:	54000b2c 	b.gt	80cb0 <el0_sync_router+0x23c>
   80b50:	b9402fe0 	ldr	w0, [sp, #44]
   80b54:	7100081f 	cmp	w0, #0x2
   80b58:	540002e0 	b.eq	80bb4 <el0_sync_router+0x140>  // b.none
   80b5c:	b9402fe0 	ldr	w0, [sp, #44]
   80b60:	7100081f 	cmp	w0, #0x2
   80b64:	54000a6c 	b.gt	80cb0 <el0_sync_router+0x23c>
   80b68:	b9402fe0 	ldr	w0, [sp, #44]
   80b6c:	7100001f 	cmp	w0, #0x0
   80b70:	540000a0 	b.eq	80b84 <el0_sync_router+0x110>  // b.none
   80b74:	b9402fe0 	ldr	w0, [sp, #44]
   80b78:	7100041f 	cmp	w0, #0x1
   80b7c:	540000a0 	b.eq	80b90 <el0_sync_router+0x11c>  // b.none
   80b80:	1400004c 	b	80cb0 <el0_sync_router+0x23c>
   80b84:	f9400fe0 	ldr	x0, [sp, #24]
   80b88:	94000a05 	bl	8339c <getpid>
   80b8c:	1400004d 	b	80cc0 <el0_sync_router+0x24c>
   80b90:	f9400fe0 	ldr	x0, [sp, #24]
   80b94:	f9400000 	ldr	x0, [x0]
   80b98:	aa0003e1 	mov	x1, x0
   80b9c:	f9400fe0 	ldr	x0, [sp, #24]
   80ba0:	f9400400 	ldr	x0, [x0, #8]
   80ba4:	aa0003e2 	mov	x2, x0
   80ba8:	f9400fe0 	ldr	x0, [sp, #24]
   80bac:	94000a08 	bl	833cc <uart_read>
   80bb0:	14000044 	b	80cc0 <el0_sync_router+0x24c>
   80bb4:	f9400fe0 	ldr	x0, [sp, #24]
   80bb8:	f9400000 	ldr	x0, [x0]
   80bbc:	aa0003e1 	mov	x1, x0
   80bc0:	f9400fe0 	ldr	x0, [sp, #24]
   80bc4:	f9400400 	ldr	x0, [x0, #8]
   80bc8:	aa0003e2 	mov	x2, x0
   80bcc:	f9400fe0 	ldr	x0, [sp, #24]
   80bd0:	94000a1b 	bl	8343c <uart_write>
   80bd4:	1400003b 	b	80cc0 <el0_sync_router+0x24c>
   80bd8:	f9400fe0 	ldr	x0, [sp, #24]
   80bdc:	f9400000 	ldr	x0, [x0]
   80be0:	aa0003e1 	mov	x1, x0
   80be4:	f9400fe0 	ldr	x0, [sp, #24]
   80be8:	f9400400 	ldr	x0, [x0, #8]
   80bec:	aa0003e2 	mov	x2, x0
   80bf0:	f9400fe0 	ldr	x0, [sp, #24]
   80bf4:	94000a2b 	bl	834a0 <exec>
   80bf8:	14000032 	b	80cc0 <el0_sync_router+0x24c>
   80bfc:	f9400fe0 	ldr	x0, [sp, #24]
   80c00:	94000a5e 	bl	83578 <fork>
   80c04:	1400002f 	b	80cc0 <el0_sync_router+0x24c>
   80c08:	f9400fe0 	ldr	x0, [sp, #24]
   80c0c:	f9400000 	ldr	x0, [x0]
   80c10:	2a0003e1 	mov	w1, w0
   80c14:	f9400fe0 	ldr	x0, [sp, #24]
   80c18:	94000ad6 	bl	83770 <exit>
   80c1c:	14000029 	b	80cc0 <el0_sync_router+0x24c>
   80c20:	f9400fe0 	ldr	x0, [sp, #24]
   80c24:	f9400000 	ldr	x0, [x0]
   80c28:	12001c01 	and	w1, w0, #0xff
   80c2c:	f9400fe0 	ldr	x0, [sp, #24]
   80c30:	f9400400 	ldr	x0, [x0, #8]
   80c34:	aa0003e2 	mov	x2, x0
   80c38:	f9400fe0 	ldr	x0, [sp, #24]
   80c3c:	94000ad5 	bl	83790 <mbox_call>
   80c40:	14000020 	b	80cc0 <el0_sync_router+0x24c>
   80c44:	f9400fe0 	ldr	x0, [sp, #24]
   80c48:	f9400000 	ldr	x0, [x0]
   80c4c:	2a0003e1 	mov	w1, w0
   80c50:	f9400fe0 	ldr	x0, [sp, #24]
   80c54:	94000b06 	bl	8386c <kill>
   80c58:	1400001a 	b	80cc0 <el0_sync_router+0x24c>
   80c5c:	f9400fe0 	ldr	x0, [sp, #24]
   80c60:	f9400000 	ldr	x0, [x0]
   80c64:	2a0003e2 	mov	w2, w0
   80c68:	f9400fe0 	ldr	x0, [sp, #24]
   80c6c:	f9400400 	ldr	x0, [x0, #8]
   80c70:	aa0003e1 	mov	x1, x0
   80c74:	2a0203e0 	mov	w0, w2
   80c78:	94000b28 	bl	83918 <signal_register>
   80c7c:	14000011 	b	80cc0 <el0_sync_router+0x24c>
   80c80:	f9400fe0 	ldr	x0, [sp, #24]
   80c84:	f9400000 	ldr	x0, [x0]
   80c88:	2a0003e2 	mov	w2, w0
   80c8c:	f9400fe0 	ldr	x0, [sp, #24]
   80c90:	f9400400 	ldr	x0, [x0, #8]
   80c94:	2a0003e1 	mov	w1, w0
   80c98:	2a0203e0 	mov	w0, w2
   80c9c:	94000b33 	bl	83968 <signal_kill>
   80ca0:	14000008 	b	80cc0 <el0_sync_router+0x24c>
   80ca4:	f9400fe0 	ldr	x0, [sp, #24]
   80ca8:	94000b5a 	bl	83a10 <signal_return>
   80cac:	14000005 	b	80cc0 <el0_sync_router+0x24c>
   80cb0:	d0000020 	adrp	x0, 86000 <el1t_irq_invalid+0x74>
   80cb4:	91122000 	add	x0, x0, #0x488
   80cb8:	94000efc 	bl	848a8 <uart_sendline>
   80cbc:	d503201f 	nop
   80cc0:	d503201f 	nop
   80cc4:	a8c37bfd 	ldp	x29, x30, [sp], #48
   80cc8:	d65f03c0 	ret

0000000000080ccc <el1h_irq_router>:
   80ccc:	a9be7bfd 	stp	x29, x30, [sp, #-32]!
   80cd0:	910003fd 	mov	x29, sp
   80cd4:	f9000fe0 	str	x0, [sp, #24]
   80cd8:	d2964080 	mov	x0, #0xb204                	// #45572
   80cdc:	f2a7e000 	movk	x0, #0x3f00, lsl #16
   80ce0:	b9400000 	ldr	w0, [x0]
   80ce4:	12030000 	and	w0, w0, #0x20000000
   80ce8:	7100001f 	cmp	w0, #0x0
   80cec:	540002c0 	b.eq	80d44 <el1h_irq_router+0x78>  // b.none
   80cf0:	d28a0900 	mov	x0, #0x5048                	// #20552
   80cf4:	f2a7e420 	movk	x0, #0x3f21, lsl #16
   80cf8:	b9400000 	ldr	w0, [x0]
   80cfc:	121f0400 	and	w0, w0, #0x6
   80d00:	7100081f 	cmp	w0, #0x2
   80d04:	54000080 	b.eq	80d14 <el1h_irq_router+0x48>  // b.none
   80d08:	7100101f 	cmp	w0, #0x4
   80d0c:	54000100 	b.eq	80d2c <el1h_irq_router+0x60>  // b.none
   80d10:	14000024 	b	80da0 <el1h_irq_router+0xd4>
   80d14:	94000fdc 	bl	84c84 <uart_tx_irq_disable>
   80d18:	52800021 	mov	w1, #0x1                   	// #1
   80d1c:	90000040 	adrp	x0, 88000 <cmd_list+0x758>
   80d20:	f943f000 	ldr	x0, [x0, #2016]
   80d24:	9400006d 	bl	80ed8 <add_irq_task>
   80d28:	1400001e 	b	80da0 <el1h_irq_router+0xd4>
   80d2c:	94000fc4 	bl	84c3c <uart_rx_irq_disable>
   80d30:	52800021 	mov	w1, #0x1                   	// #1
   80d34:	90000040 	adrp	x0, 88000 <cmd_list+0x758>
   80d38:	f943f400 	ldr	x0, [x0, #2024]
   80d3c:	94000067 	bl	80ed8 <add_irq_task>
   80d40:	14000018 	b	80da0 <el1h_irq_router+0xd4>
   80d44:	d2800c00 	mov	x0, #0x60                  	// #96
   80d48:	f2a80000 	movk	x0, #0x4000, lsl #16
   80d4c:	b9400000 	ldr	w0, [x0]
   80d50:	121f0000 	and	w0, w0, #0x2
   80d54:	7100001f 	cmp	w0, #0x0
   80d58:	54000240 	b.eq	80da0 <el1h_irq_router+0xd4>  // b.none
   80d5c:	94000d6f 	bl	84318 <timer_disable_interrupt>
   80d60:	52800001 	mov	w1, #0x0                   	// #0
   80d64:	90000040 	adrp	x0, 88000 <cmd_list+0x758>
   80d68:	f943ec00 	ldr	x0, [x0, #2008]
   80d6c:	9400005b 	bl	80ed8 <add_irq_task>
   80d70:	94000d66 	bl	84308 <timer_enable_interrupt>
   80d74:	90000040 	adrp	x0, 88000 <cmd_list+0x758>
   80d78:	f943dc00 	ldr	x0, [x0, #1976]
   80d7c:	f9400000 	ldr	x0, [x0]
   80d80:	f9403400 	ldr	x0, [x0, #104]
   80d84:	f9403401 	ldr	x1, [x0, #104]
   80d88:	90000040 	adrp	x0, 88000 <cmd_list+0x758>
   80d8c:	f943dc00 	ldr	x0, [x0, #1976]
   80d90:	f9400000 	ldr	x0, [x0]
   80d94:	eb00003f 	cmp	x1, x0
   80d98:	54000040 	b.eq	80da0 <el1h_irq_router+0xd4>  // b.none
   80d9c:	94000c65 	bl	83f30 <schedule>
   80da0:	f9400fe0 	ldr	x0, [sp, #24]
   80da4:	f9407c00 	ldr	x0, [x0, #248]
   80da8:	927e0400 	and	x0, x0, #0xc
   80dac:	f100001f 	cmp	x0, #0x0
   80db0:	54000061 	b.ne	80dbc <el1h_irq_router+0xf0>  // b.any
   80db4:	f9400fe0 	ldr	x0, [sp, #24]
   80db8:	94000910 	bl	831f8 <check_signal>
   80dbc:	d503201f 	nop
   80dc0:	a8c27bfd 	ldp	x29, x30, [sp], #32
   80dc4:	d65f03c0 	ret

0000000000080dc8 <invalid_exception_router>:
   80dc8:	a9bd7bfd 	stp	x29, x30, [sp, #-48]!
   80dcc:	910003fd 	mov	x29, sp
   80dd0:	b9001fe0 	str	w0, [sp, #28]
   80dd4:	b9401fe1 	ldr	w1, [sp, #28]
   80dd8:	d0000020 	adrp	x0, 86000 <el1t_irq_invalid+0x74>
   80ddc:	9112a000 	add	x0, x0, #0x4a8
   80de0:	94000eb2 	bl	848a8 <uart_sendline>
   80de4:	d5385200 	mrs	x0, esr_el1
   80de8:	f90017e0 	str	x0, [sp, #40]
   80dec:	d5384020 	mrs	x0, elr_el1
   80df0:	f90013e0 	str	x0, [sp, #32]
   80df4:	f94013e2 	ldr	x2, [sp, #32]
   80df8:	f94017e1 	ldr	x1, [sp, #40]
   80dfc:	d0000020 	adrp	x0, 86000 <el1t_irq_invalid+0x74>
   80e00:	91130000 	add	x0, x0, #0x4c0
   80e04:	94000ea9 	bl	848a8 <uart_sendline>
   80e08:	14000000 	b	80e08 <invalid_exception_router+0x40>

0000000000080e0c <irqtask_list_init>:
   80e0c:	a9bf7bfd 	stp	x29, x30, [sp, #-16]!
   80e10:	910003fd 	mov	x29, sp
   80e14:	52800400 	mov	w0, #0x20                  	// #32
   80e18:	940000f6 	bl	811f0 <simple_malloc>
   80e1c:	aa0003e1 	mov	x1, x0
   80e20:	90000040 	adrp	x0, 88000 <cmd_list+0x758>
   80e24:	91218000 	add	x0, x0, #0x860
   80e28:	f9000001 	str	x1, [x0]
   80e2c:	90000040 	adrp	x0, 88000 <cmd_list+0x758>
   80e30:	91218000 	add	x0, x0, #0x860
   80e34:	f9400000 	ldr	x0, [x0]
   80e38:	90000041 	adrp	x1, 88000 <cmd_list+0x758>
   80e3c:	91218021 	add	x1, x1, #0x860
   80e40:	f9400021 	ldr	x1, [x1]
   80e44:	f9000401 	str	x1, [x0, #8]
   80e48:	90000040 	adrp	x0, 88000 <cmd_list+0x758>
   80e4c:	91218000 	add	x0, x0, #0x860
   80e50:	f9400000 	ldr	x0, [x0]
   80e54:	90000041 	adrp	x1, 88000 <cmd_list+0x758>
   80e58:	91218021 	add	x1, x1, #0x860
   80e5c:	f9400021 	ldr	x1, [x1]
   80e60:	f9000001 	str	x1, [x0]
   80e64:	d503201f 	nop
   80e68:	a8c17bfd 	ldp	x29, x30, [sp], #16
   80e6c:	d65f03c0 	ret

0000000000080e70 <irq_list_insert_front>:
   80e70:	d10043ff 	sub	sp, sp, #0x10
   80e74:	f90007e0 	str	x0, [sp, #8]
   80e78:	f90003e1 	str	x1, [sp]
   80e7c:	f94003e0 	ldr	x0, [sp]
   80e80:	f9400001 	ldr	x1, [x0]
   80e84:	f94007e0 	ldr	x0, [sp, #8]
   80e88:	f9000001 	str	x1, [x0]
   80e8c:	f94007e0 	ldr	x0, [sp, #8]
   80e90:	f94003e1 	ldr	x1, [sp]
   80e94:	f9000401 	str	x1, [x0, #8]
   80e98:	f94003e0 	ldr	x0, [sp]
   80e9c:	f9400000 	ldr	x0, [x0]
   80ea0:	f94007e1 	ldr	x1, [sp, #8]
   80ea4:	f9000401 	str	x1, [x0, #8]
   80ea8:	f94003e0 	ldr	x0, [sp]
   80eac:	f94007e1 	ldr	x1, [sp, #8]
   80eb0:	f9000001 	str	x1, [x0]
   80eb4:	d503201f 	nop
   80eb8:	910043ff 	add	sp, sp, #0x10
   80ebc:	d65f03c0 	ret

0000000000080ec0 <el1_interrupt_enable>:
   80ec0:	d5034fff 	msr	daifclr, #0xf
   80ec4:	d503201f 	nop
   80ec8:	d65f03c0 	ret

0000000000080ecc <el1_interrupt_disable>:
   80ecc:	d5034fdf 	msr	daifset, #0xf
   80ed0:	d503201f 	nop
   80ed4:	d65f03c0 	ret

0000000000080ed8 <add_irq_task>:
   80ed8:	a9bc7bfd 	stp	x29, x30, [sp, #-64]!
   80edc:	910003fd 	mov	x29, sp
   80ee0:	f9000fe0 	str	x0, [sp, #24]
   80ee4:	b90017e1 	str	w1, [sp, #20]
   80ee8:	52800400 	mov	w0, #0x20                  	// #32
   80eec:	940000c1 	bl	811f0 <simple_malloc>
   80ef0:	f9001be0 	str	x0, [sp, #48]
   80ef4:	b94017e1 	ldr	w1, [sp, #20]
   80ef8:	f9401be0 	ldr	x0, [sp, #48]
   80efc:	f9000801 	str	x1, [x0, #16]
   80f00:	f9401be0 	ldr	x0, [sp, #48]
   80f04:	f9400fe1 	ldr	x1, [sp, #24]
   80f08:	f9000c01 	str	x1, [x0, #24]
   80f0c:	97fffff0 	bl	80ecc <el1_interrupt_disable>
   80f10:	90000040 	adrp	x0, 88000 <cmd_list+0x758>
   80f14:	91218000 	add	x0, x0, #0x860
   80f18:	f9400000 	ldr	x0, [x0]
   80f1c:	f9400400 	ldr	x0, [x0, #8]
   80f20:	f9001fe0 	str	x0, [sp, #56]
   80f24:	1400000e 	b	80f5c <add_irq_task+0x84>
   80f28:	f9401be0 	ldr	x0, [sp, #48]
   80f2c:	f9400801 	ldr	x1, [x0, #16]
   80f30:	f9401fe0 	ldr	x0, [sp, #56]
   80f34:	f9400800 	ldr	x0, [x0, #16]
   80f38:	eb00003f 	cmp	x1, x0
   80f3c:	540000a2 	b.cs	80f50 <add_irq_task+0x78>  // b.hs, b.nlast
   80f40:	f9401fe1 	ldr	x1, [sp, #56]
   80f44:	f9401be0 	ldr	x0, [sp, #48]
   80f48:	97ffffca 	bl	80e70 <irq_list_insert_front>
   80f4c:	1400000a 	b	80f74 <add_irq_task+0x9c>
   80f50:	f9401fe0 	ldr	x0, [sp, #56]
   80f54:	f9400400 	ldr	x0, [x0, #8]
   80f58:	f9001fe0 	str	x0, [sp, #56]
   80f5c:	90000040 	adrp	x0, 88000 <cmd_list+0x758>
   80f60:	91218000 	add	x0, x0, #0x860
   80f64:	f9400000 	ldr	x0, [x0]
   80f68:	f9401fe1 	ldr	x1, [sp, #56]
   80f6c:	eb00003f 	cmp	x1, x0
   80f70:	54fffdc1 	b.ne	80f28 <add_irq_task+0x50>  // b.any
   80f74:	90000040 	adrp	x0, 88000 <cmd_list+0x758>
   80f78:	91218000 	add	x0, x0, #0x860
   80f7c:	f9400000 	ldr	x0, [x0]
   80f80:	f9401fe1 	ldr	x1, [sp, #56]
   80f84:	eb00003f 	cmp	x1, x0
   80f88:	54000081 	b.ne	80f98 <add_irq_task+0xc0>  // b.any
   80f8c:	f9401fe1 	ldr	x1, [sp, #56]
   80f90:	f9401be0 	ldr	x0, [sp, #48]
   80f94:	97ffffb7 	bl	80e70 <irq_list_insert_front>
   80f98:	97ffffca 	bl	80ec0 <el1_interrupt_enable>
   80f9c:	1400001e 	b	81014 <add_irq_task+0x13c>
   80fa0:	97ffffcb 	bl	80ecc <el1_interrupt_disable>
   80fa4:	90000040 	adrp	x0, 88000 <cmd_list+0x758>
   80fa8:	91218000 	add	x0, x0, #0x860
   80fac:	f9400000 	ldr	x0, [x0]
   80fb0:	f9400400 	ldr	x0, [x0, #8]
   80fb4:	f9400c00 	ldr	x0, [x0, #24]
   80fb8:	f90017e0 	str	x0, [sp, #40]
   80fbc:	90000040 	adrp	x0, 88000 <cmd_list+0x758>
   80fc0:	91218000 	add	x0, x0, #0x860
   80fc4:	f9400000 	ldr	x0, [x0]
   80fc8:	f9400400 	ldr	x0, [x0, #8]
   80fcc:	f90013e0 	str	x0, [sp, #32]
   80fd0:	90000040 	adrp	x0, 88000 <cmd_list+0x758>
   80fd4:	91218000 	add	x0, x0, #0x860
   80fd8:	f9400000 	ldr	x0, [x0]
   80fdc:	f94013e1 	ldr	x1, [sp, #32]
   80fe0:	f9400421 	ldr	x1, [x1, #8]
   80fe4:	f9000401 	str	x1, [x0, #8]
   80fe8:	f94013e0 	ldr	x0, [sp, #32]
   80fec:	f9400400 	ldr	x0, [x0, #8]
   80ff0:	90000041 	adrp	x1, 88000 <cmd_list+0x758>
   80ff4:	91218021 	add	x1, x1, #0x860
   80ff8:	f9400021 	ldr	x1, [x1]
   80ffc:	f9000001 	str	x1, [x0]
   81000:	f94013e0 	ldr	x0, [sp, #32]
   81004:	94000095 	bl	81258 <free>
   81008:	97ffffae 	bl	80ec0 <el1_interrupt_enable>
   8100c:	f94017e0 	ldr	x0, [sp, #40]
   81010:	d63f0000 	blr	x0
   81014:	f0000020 	adrp	x0, 88000 <cmd_list+0x758>
   81018:	91218000 	add	x0, x0, #0x860
   8101c:	f9400000 	ldr	x0, [x0]
   81020:	f9400401 	ldr	x1, [x0, #8]
   81024:	f0000020 	adrp	x0, 88000 <cmd_list+0x758>
   81028:	91218000 	add	x0, x0, #0x860
   8102c:	f9400000 	ldr	x0, [x0]
   81030:	eb00003f 	cmp	x1, x0
   81034:	54fffb61 	b.ne	80fa0 <add_irq_task+0xc8>  // b.any
   81038:	d503201f 	nop
   8103c:	d503201f 	nop
   81040:	a8c47bfd 	ldp	x29, x30, [sp], #64
   81044:	d65f03c0 	ret

0000000000081048 <getCurrentEL>:
   81048:	a9be7bfd 	stp	x29, x30, [sp, #-32]!
   8104c:	910003fd 	mov	x29, sp
   81050:	d5384240 	mrs	x0, currentel
   81054:	f9000fe0 	str	x0, [sp, #24]
   81058:	b0000020 	adrp	x0, 86000 <el1t_irq_invalid+0x74>
   8105c:	91138000 	add	x0, x0, #0x4e0
   81060:	94000e12 	bl	848a8 <uart_sendline>
   81064:	f9400fe0 	ldr	x0, [sp, #24]
   81068:	d342fc00 	lsr	x0, x0, #2
   8106c:	12000400 	and	w0, w0, #0x3
   81070:	94000ded 	bl	84824 <uart_2hex>
   81074:	b0000020 	adrp	x0, 86000 <el1t_irq_invalid+0x74>
   81078:	9113c000 	add	x0, x0, #0x4f0
   8107c:	94000e0b 	bl	848a8 <uart_sendline>
   81080:	f9400fe0 	ldr	x0, [sp, #24]
   81084:	d342fc00 	lsr	x0, x0, #2
   81088:	12000400 	and	w0, w0, #0x3
   8108c:	a8c27bfd 	ldp	x29, x30, [sp], #32
   81090:	d65f03c0 	ret

0000000000081094 <main>:
   81094:	a9be7bfd 	stp	x29, x30, [sp, #-32]!
   81098:	910003fd 	mov	x29, sp
   8109c:	f9000fe0 	str	x0, [sp, #24]
   810a0:	97ffffea 	bl	81048 <getCurrentEL>
   810a4:	f0000020 	adrp	x0, 88000 <cmd_list+0x758>
   810a8:	f9440400 	ldr	x0, [x0, #2056]
   810ac:	f9400fe1 	ldr	x1, [sp, #24]
   810b0:	f9000001 	str	x1, [x0]
   810b4:	f0000020 	adrp	x0, 88000 <cmd_list+0x758>
   810b8:	f9440400 	ldr	x0, [x0, #2056]
   810bc:	f9400002 	ldr	x2, [x0]
   810c0:	f0000020 	adrp	x0, 88000 <cmd_list+0x758>
   810c4:	f9440c01 	ldr	x1, [x0, #2072]
   810c8:	aa0203e0 	mov	x0, x2
   810cc:	97fffce5 	bl	80460 <traverse_device_tree>
   810d0:	94000c7b 	bl	842bc <timer_init_interrupt>
   810d4:	94000c4d 	bl	84208 <timer_list_init>
   810d8:	97ffff4d 	bl	80e0c <irqtask_list_init>
   810dc:	94000d45 	bl	845f0 <uart_init>
   810e0:	f9400fe1 	ldr	x1, [sp, #24]
   810e4:	b0000020 	adrp	x0, 86000 <el1t_irq_invalid+0x74>
   810e8:	9113e000 	add	x0, x0, #0x4f8
   810ec:	94000def 	bl	848a8 <uart_sendline>
   810f0:	9400057e 	bl	826e8 <cli_print_banner>
   810f4:	94000073 	bl	812c0 <allocator_init>
   810f8:	94000ab3 	bl	83bc4 <init_thread>
   810fc:	52801001 	mov	w1, #0x80                  	// #128
   81100:	f0000020 	adrp	x0, 88000 <cmd_list+0x758>
   81104:	9121c000 	add	x0, x0, #0x870
   81108:	94000452 	bl	82250 <cli_cmd_clear>
   8110c:	b0000020 	adrp	x0, 86000 <el1t_irq_invalid+0x74>
   81110:	91144000 	add	x0, x0, #0x510
   81114:	94000de5 	bl	848a8 <uart_sendline>
   81118:	f0000020 	adrp	x0, 88000 <cmd_list+0x758>
   8111c:	9121c000 	add	x0, x0, #0x870
   81120:	94000460 	bl	822a0 <cli_cmd_read>
   81124:	f0000020 	adrp	x0, 88000 <cmd_list+0x758>
   81128:	9121c000 	add	x0, x0, #0x870
   8112c:	94000493 	bl	82378 <cli_cmd_exec>
   81130:	17fffff3 	b	810fc <main+0x68>

0000000000081134 <k_mbox_call>:
   81134:	a9be7bfd 	stp	x29, x30, [sp, #-32]!
   81138:	910003fd 	mov	x29, sp
   8113c:	b9001fe0 	str	w0, [sp, #28]
   81140:	b9001be1 	str	w1, [sp, #24]
   81144:	b9401be0 	ldr	w0, [sp, #24]
   81148:	121c6c00 	and	w0, w0, #0xfffffff0
   8114c:	b9001be0 	str	w0, [sp, #24]
   81150:	b9401be1 	ldr	w1, [sp, #24]
   81154:	b9401fe0 	ldr	w0, [sp, #28]
   81158:	2a000020 	orr	w0, w1, w0
   8115c:	b9001be0 	str	w0, [sp, #24]
   81160:	d503201f 	nop
   81164:	d2971300 	mov	x0, #0xb898                	// #47256
   81168:	f2a7e000 	movk	x0, #0x3f00, lsl #16
   8116c:	b9400000 	ldr	w0, [x0]
   81170:	7100001f 	cmp	w0, #0x0
   81174:	54ffff8b 	b.lt	81164 <k_mbox_call+0x30>  // b.tstop
   81178:	d2971400 	mov	x0, #0xb8a0                	// #47264
   8117c:	f2a7e000 	movk	x0, #0x3f00, lsl #16
   81180:	b9401be1 	ldr	w1, [sp, #24]
   81184:	b9000001 	str	w1, [x0]
   81188:	d503201f 	nop
   8118c:	d2971300 	mov	x0, #0xb898                	// #47256
   81190:	f2a7e000 	movk	x0, #0x3f00, lsl #16
   81194:	b9400000 	ldr	w0, [x0]
   81198:	12020000 	and	w0, w0, #0x40000000
   8119c:	7100001f 	cmp	w0, #0x0
   811a0:	54ffff61 	b.ne	8118c <k_mbox_call+0x58>  // b.any
   811a4:	d2971000 	mov	x0, #0xb880                	// #47232
   811a8:	f2a7e000 	movk	x0, #0x3f00, lsl #16
   811ac:	b9400000 	ldr	w0, [x0]
   811b0:	b9401be1 	ldr	w1, [sp, #24]
   811b4:	6b00003f 	cmp	w1, w0
   811b8:	54fffe81 	b.ne	81188 <k_mbox_call+0x54>  // b.any
   811bc:	b9401be1 	ldr	w1, [sp, #24]
   811c0:	b0000020 	adrp	x0, 86000 <el1t_irq_invalid+0x74>
   811c4:	91146000 	add	x0, x0, #0x518
   811c8:	94000db8 	bl	848a8 <uart_sendline>
   811cc:	f0000020 	adrp	x0, 88000 <cmd_list+0x758>
   811d0:	9123c000 	add	x0, x0, #0x8f0
   811d4:	b9400401 	ldr	w1, [x0, #4]
   811d8:	52b00000 	mov	w0, #0x80000000            	// #-2147483648
   811dc:	6b00003f 	cmp	w1, w0
   811e0:	1a9f17e0 	cset	w0, eq  // eq = none
   811e4:	12001c00 	and	w0, w0, #0xff
   811e8:	a8c27bfd 	ldp	x29, x30, [sp], #32
   811ec:	d65f03c0 	ret

00000000000811f0 <simple_malloc>:
   811f0:	d10083ff 	sub	sp, sp, #0x20
   811f4:	b9000fe0 	str	w0, [sp, #12]
   811f8:	f0000020 	adrp	x0, 88000 <cmd_list+0x758>
   811fc:	91212000 	add	x0, x0, #0x848
   81200:	f9400000 	ldr	x0, [x0]
   81204:	91004000 	add	x0, x0, #0x10
   81208:	f9000fe0 	str	x0, [sp, #24]
   8120c:	b9400fe0 	ldr	w0, [sp, #12]
   81210:	121c6c00 	and	w0, w0, #0xfffffff0
   81214:	11004000 	add	w0, w0, #0x10
   81218:	b9000fe0 	str	w0, [sp, #12]
   8121c:	f9400fe0 	ldr	x0, [sp, #24]
   81220:	d1002000 	sub	x0, x0, #0x8
   81224:	b9400fe1 	ldr	w1, [sp, #12]
   81228:	b9000001 	str	w1, [x0]
   8122c:	f0000020 	adrp	x0, 88000 <cmd_list+0x758>
   81230:	91212000 	add	x0, x0, #0x848
   81234:	f9400001 	ldr	x1, [x0]
   81238:	b9400fe0 	ldr	w0, [sp, #12]
   8123c:	8b000021 	add	x1, x1, x0
   81240:	f0000020 	adrp	x0, 88000 <cmd_list+0x758>
   81244:	91212000 	add	x0, x0, #0x848
   81248:	f9000001 	str	x1, [x0]
   8124c:	f9400fe0 	ldr	x0, [sp, #24]
   81250:	910083ff 	add	sp, sp, #0x20
   81254:	d65f03c0 	ret

0000000000081258 <free>:
   81258:	d10043ff 	sub	sp, sp, #0x10
   8125c:	f90007e0 	str	x0, [sp, #8]
   81260:	d503201f 	nop
   81264:	910043ff 	add	sp, sp, #0x10
   81268:	d65f03c0 	ret

000000000008126c <insert_frame_node>:
   8126c:	d10043ff 	sub	sp, sp, #0x10
   81270:	f90007e0 	str	x0, [sp, #8]
   81274:	f90003e1 	str	x1, [sp]
   81278:	f94003e0 	ldr	x0, [sp]
   8127c:	f9400001 	ldr	x1, [x0]
   81280:	f94007e0 	ldr	x0, [sp, #8]
   81284:	f9000001 	str	x1, [x0]
   81288:	f94007e0 	ldr	x0, [sp, #8]
   8128c:	f94003e1 	ldr	x1, [sp]
   81290:	f9000401 	str	x1, [x0, #8]
   81294:	f94007e0 	ldr	x0, [sp, #8]
   81298:	f9400400 	ldr	x0, [x0, #8]
   8129c:	f94007e1 	ldr	x1, [sp, #8]
   812a0:	f9000001 	str	x1, [x0]
   812a4:	f94007e0 	ldr	x0, [sp, #8]
   812a8:	f9400000 	ldr	x0, [x0]
   812ac:	f94007e1 	ldr	x1, [sp, #8]
   812b0:	f9000401 	str	x1, [x0, #8]
   812b4:	d503201f 	nop
   812b8:	910043ff 	add	sp, sp, #0x10
   812bc:	d65f03c0 	ret

00000000000812c0 <allocator_init>:
   812c0:	a9be7bfd 	stp	x29, x30, [sp, #-32]!
   812c4:	910003fd 	mov	x29, sp
   812c8:	52a00f00 	mov	w0, #0x780000              	// #7864320
   812cc:	97ffffc9 	bl	811f0 <simple_malloc>
   812d0:	aa0003e1 	mov	x1, x0
   812d4:	f0000020 	adrp	x0, 88000 <cmd_list+0x758>
   812d8:	9127c000 	add	x0, x0, #0x9f0
   812dc:	f9000001 	str	x1, [x0]
   812e0:	b9001fff 	str	wzr, [sp, #28]
   812e4:	1400003d 	b	813d8 <allocator_init+0x118>
   812e8:	f0000020 	adrp	x0, 88000 <cmd_list+0x758>
   812ec:	9127c000 	add	x0, x0, #0x9f0
   812f0:	f9400002 	ldr	x2, [x0]
   812f4:	b9801fe0 	ldrsw	x0, [sp, #28]
   812f8:	d37be801 	lsl	x1, x0, #5
   812fc:	f0000020 	adrp	x0, 88000 <cmd_list+0x758>
   81300:	9127c000 	add	x0, x0, #0x9f0
   81304:	f9400003 	ldr	x3, [x0]
   81308:	b9801fe0 	ldrsw	x0, [sp, #28]
   8130c:	d37be800 	lsl	x0, x0, #5
   81310:	8b000060 	add	x0, x3, x0
   81314:	8b010041 	add	x1, x2, x1
   81318:	f9000001 	str	x1, [x0]
   8131c:	f0000020 	adrp	x0, 88000 <cmd_list+0x758>
   81320:	9127c000 	add	x0, x0, #0x9f0
   81324:	f9400002 	ldr	x2, [x0]
   81328:	b9801fe0 	ldrsw	x0, [sp, #28]
   8132c:	d37be801 	lsl	x1, x0, #5
   81330:	f0000020 	adrp	x0, 88000 <cmd_list+0x758>
   81334:	9127c000 	add	x0, x0, #0x9f0
   81338:	f9400003 	ldr	x3, [x0]
   8133c:	b9801fe0 	ldrsw	x0, [sp, #28]
   81340:	d37be800 	lsl	x0, x0, #5
   81344:	8b000060 	add	x0, x3, x0
   81348:	8b010041 	add	x1, x2, x1
   8134c:	f9000401 	str	x1, [x0, #8]
   81350:	f0000020 	adrp	x0, 88000 <cmd_list+0x758>
   81354:	9127c000 	add	x0, x0, #0x9f0
   81358:	f9400001 	ldr	x1, [x0]
   8135c:	b9801fe0 	ldrsw	x0, [sp, #28]
   81360:	d37be800 	lsl	x0, x0, #5
   81364:	8b000020 	add	x0, x1, x0
   81368:	b900181f 	str	wzr, [x0, #24]
   8136c:	f0000020 	adrp	x0, 88000 <cmd_list+0x758>
   81370:	9127c000 	add	x0, x0, #0x9f0
   81374:	f9400001 	ldr	x1, [x0]
   81378:	b9801fe0 	ldrsw	x0, [sp, #28]
   8137c:	d37be800 	lsl	x0, x0, #5
   81380:	8b000020 	add	x0, x1, x0
   81384:	b9401fe1 	ldr	w1, [sp, #28]
   81388:	b9001001 	str	w1, [x0, #16]
   8138c:	f0000020 	adrp	x0, 88000 <cmd_list+0x758>
   81390:	9127c000 	add	x0, x0, #0x9f0
   81394:	f9400001 	ldr	x1, [x0]
   81398:	b9801fe0 	ldrsw	x0, [sp, #28]
   8139c:	d37be800 	lsl	x0, x0, #5
   813a0:	8b000020 	add	x0, x1, x0
   813a4:	12800001 	mov	w1, #0xffffffff            	// #-1
   813a8:	b9001401 	str	w1, [x0, #20]
   813ac:	f0000020 	adrp	x0, 88000 <cmd_list+0x758>
   813b0:	9127c000 	add	x0, x0, #0x9f0
   813b4:	f9400001 	ldr	x1, [x0]
   813b8:	b9801fe0 	ldrsw	x0, [sp, #28]
   813bc:	d37be800 	lsl	x0, x0, #5
   813c0:	8b000020 	add	x0, x1, x0
   813c4:	12800001 	mov	w1, #0xffffffff            	// #-1
   813c8:	b9001c01 	str	w1, [x0, #28]
   813cc:	b9401fe0 	ldr	w0, [sp, #28]
   813d0:	11000400 	add	w0, w0, #0x1
   813d4:	b9001fe0 	str	w0, [sp, #28]
   813d8:	b9401fe0 	ldr	w0, [sp, #28]
   813dc:	7140f01f 	cmp	w0, #0x3c, lsl #12
   813e0:	54fff84b 	b.lt	812e8 <allocator_init+0x28>  // b.tstop
   813e4:	52802c00 	mov	w0, #0x160                 	// #352
   813e8:	97ffff82 	bl	811f0 <simple_malloc>
   813ec:	aa0003e1 	mov	x1, x0
   813f0:	f0000020 	adrp	x0, 88000 <cmd_list+0x758>
   813f4:	9127e000 	add	x0, x0, #0x9f8
   813f8:	f9000001 	str	x1, [x0]
   813fc:	b9001bff 	str	wzr, [sp, #24]
   81400:	14000026 	b	81498 <allocator_init+0x1d8>
   81404:	f0000020 	adrp	x0, 88000 <cmd_list+0x758>
   81408:	9127e000 	add	x0, x0, #0x9f8
   8140c:	f9400001 	ldr	x1, [x0]
   81410:	b9801be0 	ldrsw	x0, [sp, #24]
   81414:	d37be800 	lsl	x0, x0, #5
   81418:	8b000020 	add	x0, x1, x0
   8141c:	12800001 	mov	w1, #0xffffffff            	// #-1
   81420:	b9001001 	str	w1, [x0, #16]
   81424:	f0000020 	adrp	x0, 88000 <cmd_list+0x758>
   81428:	9127e000 	add	x0, x0, #0x9f8
   8142c:	f9400002 	ldr	x2, [x0]
   81430:	b9801be0 	ldrsw	x0, [sp, #24]
   81434:	d37be801 	lsl	x1, x0, #5
   81438:	f0000020 	adrp	x0, 88000 <cmd_list+0x758>
   8143c:	9127e000 	add	x0, x0, #0x9f8
   81440:	f9400003 	ldr	x3, [x0]
   81444:	b9801be0 	ldrsw	x0, [sp, #24]
   81448:	d37be800 	lsl	x0, x0, #5
   8144c:	8b000060 	add	x0, x3, x0
   81450:	8b010041 	add	x1, x2, x1
   81454:	f9000001 	str	x1, [x0]
   81458:	f0000020 	adrp	x0, 88000 <cmd_list+0x758>
   8145c:	9127e000 	add	x0, x0, #0x9f8
   81460:	f9400002 	ldr	x2, [x0]
   81464:	b9801be0 	ldrsw	x0, [sp, #24]
   81468:	d37be801 	lsl	x1, x0, #5
   8146c:	f0000020 	adrp	x0, 88000 <cmd_list+0x758>
   81470:	9127e000 	add	x0, x0, #0x9f8
   81474:	f9400003 	ldr	x3, [x0]
   81478:	b9801be0 	ldrsw	x0, [sp, #24]
   8147c:	d37be800 	lsl	x0, x0, #5
   81480:	8b000060 	add	x0, x3, x0
   81484:	8b010041 	add	x1, x2, x1
   81488:	f9000401 	str	x1, [x0, #8]
   8148c:	b9401be0 	ldr	w0, [sp, #24]
   81490:	11000400 	add	w0, w0, #0x1
   81494:	b9001be0 	str	w0, [sp, #24]
   81498:	b9401be0 	ldr	w0, [sp, #24]
   8149c:	7100281f 	cmp	w0, #0xa
   814a0:	54fffb2d 	b.le	81404 <allocator_init+0x144>
   814a4:	b90017ff 	str	wzr, [sp, #20]
   814a8:	14000019 	b	8150c <allocator_init+0x24c>
   814ac:	f0000020 	adrp	x0, 88000 <cmd_list+0x758>
   814b0:	9127c000 	add	x0, x0, #0x9f0
   814b4:	f9400001 	ldr	x1, [x0]
   814b8:	b98017e0 	ldrsw	x0, [sp, #20]
   814bc:	d37be800 	lsl	x0, x0, #5
   814c0:	8b000020 	add	x0, x1, x0
   814c4:	52800141 	mov	w1, #0xa                   	// #10
   814c8:	b9001801 	str	w1, [x0, #24]
   814cc:	f0000020 	adrp	x0, 88000 <cmd_list+0x758>
   814d0:	9127c000 	add	x0, x0, #0x9f0
   814d4:	f9400001 	ldr	x1, [x0]
   814d8:	b98017e0 	ldrsw	x0, [sp, #20]
   814dc:	d37be800 	lsl	x0, x0, #5
   814e0:	8b000022 	add	x2, x1, x0
   814e4:	f0000020 	adrp	x0, 88000 <cmd_list+0x758>
   814e8:	9127e000 	add	x0, x0, #0x9f8
   814ec:	f9400000 	ldr	x0, [x0]
   814f0:	91050000 	add	x0, x0, #0x140
   814f4:	aa0003e1 	mov	x1, x0
   814f8:	aa0203e0 	mov	x0, x2
   814fc:	97ffff5c 	bl	8126c <insert_frame_node>
   81500:	b94017e0 	ldr	w0, [sp, #20]
   81504:	11100000 	add	w0, w0, #0x400
   81508:	b90017e0 	str	w0, [sp, #20]
   8150c:	b94017e0 	ldr	w0, [sp, #20]
   81510:	7140f01f 	cmp	w0, #0x3c, lsl #12
   81514:	54fffccb 	b.lt	814ac <allocator_init+0x1ec>  // b.tstop
   81518:	52801000 	mov	w0, #0x80                  	// #128
   8151c:	97ffff35 	bl	811f0 <simple_malloc>
   81520:	aa0003e1 	mov	x1, x0
   81524:	f0000020 	adrp	x0, 88000 <cmd_list+0x758>
   81528:	91280000 	add	x0, x0, #0xa00
   8152c:	f9000001 	str	x1, [x0]
   81530:	b90013ff 	str	wzr, [sp, #16]
   81534:	1400001e 	b	815ac <allocator_init+0x2ec>
   81538:	f0000020 	adrp	x0, 88000 <cmd_list+0x758>
   8153c:	91280000 	add	x0, x0, #0xa00
   81540:	f9400002 	ldr	x2, [x0]
   81544:	b98013e0 	ldrsw	x0, [sp, #16]
   81548:	d37cec01 	lsl	x1, x0, #4
   8154c:	f0000020 	adrp	x0, 88000 <cmd_list+0x758>
   81550:	91280000 	add	x0, x0, #0xa00
   81554:	f9400003 	ldr	x3, [x0]
   81558:	b98013e0 	ldrsw	x0, [sp, #16]
   8155c:	d37cec00 	lsl	x0, x0, #4
   81560:	8b000060 	add	x0, x3, x0
   81564:	8b010041 	add	x1, x2, x1
   81568:	f9000001 	str	x1, [x0]
   8156c:	f0000020 	adrp	x0, 88000 <cmd_list+0x758>
   81570:	91280000 	add	x0, x0, #0xa00
   81574:	f9400002 	ldr	x2, [x0]
   81578:	b98013e0 	ldrsw	x0, [sp, #16]
   8157c:	d37cec01 	lsl	x1, x0, #4
   81580:	f0000020 	adrp	x0, 88000 <cmd_list+0x758>
   81584:	91280000 	add	x0, x0, #0xa00
   81588:	f9400003 	ldr	x3, [x0]
   8158c:	b98013e0 	ldrsw	x0, [sp, #16]
   81590:	d37cec00 	lsl	x0, x0, #4
   81594:	8b000060 	add	x0, x3, x0
   81598:	8b010041 	add	x1, x2, x1
   8159c:	f9000401 	str	x1, [x0, #8]
   815a0:	b94013e0 	ldr	w0, [sp, #16]
   815a4:	11000400 	add	w0, w0, #0x1
   815a8:	b90013e0 	str	w0, [sp, #16]
   815ac:	b94013e0 	ldr	w0, [sp, #16]
   815b0:	71001c1f 	cmp	w0, #0x7
   815b4:	54fffc2d 	b.le	81538 <allocator_init+0x278>
   815b8:	d503201f 	nop
   815bc:	d503201f 	nop
   815c0:	a8c27bfd 	ldp	x29, x30, [sp], #32
   815c4:	d65f03c0 	ret

00000000000815c8 <page_malloc>:
   815c8:	a9bc7bfd 	stp	x29, x30, [sp, #-64]!
   815cc:	910003fd 	mov	x29, sp
   815d0:	b9001fe0 	str	w0, [sp, #28]
   815d4:	b9401fe0 	ldr	w0, [sp, #28]
   815d8:	530c7c00 	lsr	w0, w0, #12
   815dc:	b9401fe1 	ldr	w1, [sp, #28]
   815e0:	12002c21 	and	w1, w1, #0xfff
   815e4:	7100003f 	cmp	w1, #0x0
   815e8:	1a9f07e1 	cset	w1, ne  // ne = any
   815ec:	12001c21 	and	w1, w1, #0xff
   815f0:	0b010000 	add	w0, w0, w1
   815f4:	b90033e0 	str	w0, [sp, #48]
   815f8:	b94033e0 	ldr	w0, [sp, #48]
   815fc:	b9001fe0 	str	w0, [sp, #28]
   81600:	f9001fff 	str	xzr, [sp, #56]
   81604:	b90037ff 	str	wzr, [sp, #52]
   81608:	b94037e0 	ldr	w0, [sp, #52]
   8160c:	7100281f 	cmp	w0, #0xa
   81610:	540000ad 	b.le	81624 <page_malloc+0x5c>
   81614:	b0000020 	adrp	x0, 86000 <el1t_irq_invalid+0x74>
   81618:	9114a000 	add	x0, x0, #0x528
   8161c:	94000ca3 	bl	848a8 <uart_sendline>
   81620:	14000042 	b	81728 <page_malloc+0x160>
   81624:	b94037e0 	ldr	w0, [sp, #52]
   81628:	52800021 	mov	w1, #0x1                   	// #1
   8162c:	1ac02020 	lsl	w0, w1, w0
   81630:	2a0003e1 	mov	w1, w0
   81634:	b9401fe0 	ldr	w0, [sp, #28]
   81638:	6b01001f 	cmp	w0, w1
   8163c:	540006e8 	b.hi	81718 <page_malloc+0x150>  // b.pmore
   81640:	f0000020 	adrp	x0, 88000 <cmd_list+0x758>
   81644:	9127e000 	add	x0, x0, #0x9f8
   81648:	f9400001 	ldr	x1, [x0]
   8164c:	b98037e0 	ldrsw	x0, [sp, #52]
   81650:	d37be800 	lsl	x0, x0, #5
   81654:	8b000020 	add	x0, x1, x0
   81658:	f9400001 	ldr	x1, [x0]
   8165c:	f0000020 	adrp	x0, 88000 <cmd_list+0x758>
   81660:	9127e000 	add	x0, x0, #0x9f8
   81664:	f9400002 	ldr	x2, [x0]
   81668:	b98037e0 	ldrsw	x0, [sp, #52]
   8166c:	d37be800 	lsl	x0, x0, #5
   81670:	8b000040 	add	x0, x2, x0
   81674:	eb00003f 	cmp	x1, x0
   81678:	54000500 	b.eq	81718 <page_malloc+0x150>  // b.none
   8167c:	f0000020 	adrp	x0, 88000 <cmd_list+0x758>
   81680:	9127e000 	add	x0, x0, #0x9f8
   81684:	f9400001 	ldr	x1, [x0]
   81688:	b98037e0 	ldrsw	x0, [sp, #52]
   8168c:	d37be800 	lsl	x0, x0, #5
   81690:	8b000020 	add	x0, x1, x0
   81694:	f9400000 	ldr	x0, [x0]
   81698:	f90017e0 	str	x0, [sp, #40]
   8169c:	f94017e0 	ldr	x0, [sp, #40]
   816a0:	b9401000 	ldr	w0, [x0, #16]
   816a4:	2a0003e0 	mov	w0, w0
   816a8:	d374cc00 	lsl	x0, x0, #12
   816ac:	f9001fe0 	str	x0, [sp, #56]
   816b0:	f94017e0 	ldr	x0, [sp, #40]
   816b4:	b94037e1 	ldr	w1, [sp, #52]
   816b8:	b9001801 	str	w1, [x0, #24]
   816bc:	f94017e0 	ldr	x0, [sp, #40]
   816c0:	12800021 	mov	w1, #0xfffffffe            	// #-2
   816c4:	b9001401 	str	w1, [x0, #20]
   816c8:	f94017e0 	ldr	x0, [sp, #40]
   816cc:	f9400400 	ldr	x0, [x0, #8]
   816d0:	f94017e1 	ldr	x1, [sp, #40]
   816d4:	f9400021 	ldr	x1, [x1]
   816d8:	f9000001 	str	x1, [x0]
   816dc:	f94017e0 	ldr	x0, [sp, #40]
   816e0:	f9400000 	ldr	x0, [x0]
   816e4:	f94017e1 	ldr	x1, [sp, #40]
   816e8:	f9400421 	ldr	x1, [x1, #8]
   816ec:	f9000401 	str	x1, [x0, #8]
   816f0:	f94017e0 	ldr	x0, [sp, #40]
   816f4:	f94017e1 	ldr	x1, [sp, #40]
   816f8:	f9000001 	str	x1, [x0]
   816fc:	f94017e0 	ldr	x0, [sp, #40]
   81700:	f94017e1 	ldr	x1, [sp, #40]
   81704:	f9000401 	str	x1, [x0, #8]
   81708:	b9401fe1 	ldr	w1, [sp, #28]
   8170c:	f94017e0 	ldr	x0, [sp, #40]
   81710:	94000009 	bl	81734 <release_redundant>
   81714:	14000005 	b	81728 <page_malloc+0x160>
   81718:	b94037e0 	ldr	w0, [sp, #52]
   8171c:	11000400 	add	w0, w0, #0x1
   81720:	b90037e0 	str	w0, [sp, #52]
   81724:	17ffffb9 	b	81608 <page_malloc+0x40>
   81728:	f9401fe0 	ldr	x0, [sp, #56]
   8172c:	a8c47bfd 	ldp	x29, x30, [sp], #64
   81730:	d65f03c0 	ret

0000000000081734 <release_redundant>:
   81734:	a9bd7bfd 	stp	x29, x30, [sp, #-48]!
   81738:	910003fd 	mov	x29, sp
   8173c:	f9000fe0 	str	x0, [sp, #24]
   81740:	b90017e1 	str	w1, [sp, #20]
   81744:	14000023 	b	817d0 <release_redundant+0x9c>
   81748:	f9400fe0 	ldr	x0, [sp, #24]
   8174c:	b9401800 	ldr	w0, [x0, #24]
   81750:	51000401 	sub	w1, w0, #0x1
   81754:	f9400fe0 	ldr	x0, [sp, #24]
   81758:	b9001801 	str	w1, [x0, #24]
   8175c:	f0000020 	adrp	x0, 88000 <cmd_list+0x758>
   81760:	9127c000 	add	x0, x0, #0x9f0
   81764:	f9400001 	ldr	x1, [x0]
   81768:	f9400fe0 	ldr	x0, [sp, #24]
   8176c:	b9401000 	ldr	w0, [x0, #16]
   81770:	f9400fe2 	ldr	x2, [sp, #24]
   81774:	b9401842 	ldr	w2, [x2, #24]
   81778:	52800023 	mov	w3, #0x1                   	// #1
   8177c:	1ac22062 	lsl	w2, w3, w2
   81780:	4a020000 	eor	w0, w0, w2
   81784:	2a0003e0 	mov	w0, w0
   81788:	d37be800 	lsl	x0, x0, #5
   8178c:	8b000020 	add	x0, x1, x0
   81790:	f90017e0 	str	x0, [sp, #40]
   81794:	f9400fe0 	ldr	x0, [sp, #24]
   81798:	b9401801 	ldr	w1, [x0, #24]
   8179c:	f94017e0 	ldr	x0, [sp, #40]
   817a0:	b9001801 	str	w1, [x0, #24]
   817a4:	f0000020 	adrp	x0, 88000 <cmd_list+0x758>
   817a8:	9127e000 	add	x0, x0, #0x9f8
   817ac:	f9400001 	ldr	x1, [x0]
   817b0:	f9400fe0 	ldr	x0, [sp, #24]
   817b4:	b9401800 	ldr	w0, [x0, #24]
   817b8:	93407c00 	sxtw	x0, w0
   817bc:	d37be800 	lsl	x0, x0, #5
   817c0:	8b000020 	add	x0, x1, x0
   817c4:	aa0003e1 	mov	x1, x0
   817c8:	f94017e0 	ldr	x0, [sp, #40]
   817cc:	97fffea8 	bl	8126c <insert_frame_node>
   817d0:	f9400fe0 	ldr	x0, [sp, #24]
   817d4:	b9401800 	ldr	w0, [x0, #24]
   817d8:	7100001f 	cmp	w0, #0x0
   817dc:	5400014d 	b.le	81804 <release_redundant+0xd0>
   817e0:	f9400fe0 	ldr	x0, [sp, #24]
   817e4:	b9401800 	ldr	w0, [x0, #24]
   817e8:	51000400 	sub	w0, w0, #0x1
   817ec:	52800021 	mov	w1, #0x1                   	// #1
   817f0:	1ac02020 	lsl	w0, w1, w0
   817f4:	2a0003e1 	mov	w1, w0
   817f8:	b94017e0 	ldr	w0, [sp, #20]
   817fc:	6b01001f 	cmp	w0, w1
   81800:	54fffa49 	b.ls	81748 <release_redundant+0x14>  // b.plast
   81804:	d503201f 	nop
   81808:	a8c37bfd 	ldp	x29, x30, [sp], #48
   8180c:	d65f03c0 	ret

0000000000081810 <page_free>:
   81810:	a9bd7bfd 	stp	x29, x30, [sp, #-48]!
   81814:	910003fd 	mov	x29, sp
   81818:	f9000fe0 	str	x0, [sp, #24]
   8181c:	f0000020 	adrp	x0, 88000 <cmd_list+0x758>
   81820:	9127c000 	add	x0, x0, #0x9f0
   81824:	f9400001 	ldr	x1, [x0]
   81828:	f9400fe0 	ldr	x0, [sp, #24]
   8182c:	d34cfc00 	lsr	x0, x0, #12
   81830:	d37be800 	lsl	x0, x0, #5
   81834:	8b000020 	add	x0, x1, x0
   81838:	f90017e0 	str	x0, [sp, #40]
   8183c:	f94017e0 	ldr	x0, [sp, #40]
   81840:	12800001 	mov	w1, #0xffffffff            	// #-1
   81844:	b9001401 	str	w1, [x0, #20]
   81848:	d503201f 	nop
   8184c:	9100a3e0 	add	x0, sp, #0x28
   81850:	94000012 	bl	81898 <coalesce>
   81854:	7100001f 	cmp	w0, #0x0
   81858:	54ffffa0 	b.eq	8184c <page_free+0x3c>  // b.none
   8185c:	f94017e2 	ldr	x2, [sp, #40]
   81860:	f0000020 	adrp	x0, 88000 <cmd_list+0x758>
   81864:	9127e000 	add	x0, x0, #0x9f8
   81868:	f9400001 	ldr	x1, [x0]
   8186c:	f94017e0 	ldr	x0, [sp, #40]
   81870:	b9401800 	ldr	w0, [x0, #24]
   81874:	93407c00 	sxtw	x0, w0
   81878:	d37be800 	lsl	x0, x0, #5
   8187c:	8b000020 	add	x0, x1, x0
   81880:	aa0003e1 	mov	x1, x0
   81884:	aa0203e0 	mov	x0, x2
   81888:	97fffe79 	bl	8126c <insert_frame_node>
   8188c:	d503201f 	nop
   81890:	a8c37bfd 	ldp	x29, x30, [sp], #48
   81894:	d65f03c0 	ret

0000000000081898 <coalesce>:
   81898:	d10083ff 	sub	sp, sp, #0x20
   8189c:	f90007e0 	str	x0, [sp, #8]
   818a0:	f94007e0 	ldr	x0, [sp, #8]
   818a4:	f9400000 	ldr	x0, [x0]
   818a8:	f9000fe0 	str	x0, [sp, #24]
   818ac:	f0000020 	adrp	x0, 88000 <cmd_list+0x758>
   818b0:	9127c000 	add	x0, x0, #0x9f0
   818b4:	f9400001 	ldr	x1, [x0]
   818b8:	f9400fe0 	ldr	x0, [sp, #24]
   818bc:	b9401000 	ldr	w0, [x0, #16]
   818c0:	f9400fe2 	ldr	x2, [sp, #24]
   818c4:	b9401842 	ldr	w2, [x2, #24]
   818c8:	52800023 	mov	w3, #0x1                   	// #1
   818cc:	1ac22062 	lsl	w2, w3, w2
   818d0:	4a020000 	eor	w0, w0, w2
   818d4:	2a0003e0 	mov	w0, w0
   818d8:	d37be800 	lsl	x0, x0, #5
   818dc:	8b000020 	add	x0, x1, x0
   818e0:	f9000be0 	str	x0, [sp, #16]
   818e4:	f9400fe0 	ldr	x0, [sp, #24]
   818e8:	b9401801 	ldr	w1, [x0, #24]
   818ec:	f9400be0 	ldr	x0, [sp, #16]
   818f0:	b9401800 	ldr	w0, [x0, #24]
   818f4:	6b00003f 	cmp	w1, w0
   818f8:	54000060 	b.eq	81904 <coalesce+0x6c>  // b.none
   818fc:	12800000 	mov	w0, #0xffffffff            	// #-1
   81900:	14000020 	b	81980 <coalesce+0xe8>
   81904:	f9400be0 	ldr	x0, [sp, #16]
   81908:	b9401400 	ldr	w0, [x0, #20]
   8190c:	3100041f 	cmn	w0, #0x1
   81910:	54000060 	b.eq	8191c <coalesce+0x84>  // b.none
   81914:	12800000 	mov	w0, #0xffffffff            	// #-1
   81918:	1400001a 	b	81980 <coalesce+0xe8>
   8191c:	f9400be0 	ldr	x0, [sp, #16]
   81920:	f9400400 	ldr	x0, [x0, #8]
   81924:	f9400be1 	ldr	x1, [sp, #16]
   81928:	f9400021 	ldr	x1, [x1]
   8192c:	f9000001 	str	x1, [x0]
   81930:	f9400be0 	ldr	x0, [sp, #16]
   81934:	f9400000 	ldr	x0, [x0]
   81938:	f9400be1 	ldr	x1, [sp, #16]
   8193c:	f9400421 	ldr	x1, [x1, #8]
   81940:	f9000401 	str	x1, [x0, #8]
   81944:	f9400be0 	ldr	x0, [sp, #16]
   81948:	b9401001 	ldr	w1, [x0, #16]
   8194c:	f9400fe0 	ldr	x0, [sp, #24]
   81950:	b9401000 	ldr	w0, [x0, #16]
   81954:	6b00003f 	cmp	w1, w0
   81958:	54000082 	b.cs	81968 <coalesce+0xd0>  // b.hs, b.nlast
   8195c:	f94007e0 	ldr	x0, [sp, #8]
   81960:	f9400be1 	ldr	x1, [sp, #16]
   81964:	f9000001 	str	x1, [x0]
   81968:	f94007e0 	ldr	x0, [sp, #8]
   8196c:	f9400000 	ldr	x0, [x0]
   81970:	b9401801 	ldr	w1, [x0, #24]
   81974:	11000421 	add	w1, w1, #0x1
   81978:	b9001801 	str	w1, [x0, #24]
   8197c:	52800000 	mov	w0, #0x0                   	// #0
   81980:	910083ff 	add	sp, sp, #0x20
   81984:	d65f03c0 	ret

0000000000081988 <dump_free_frame_list>:
   81988:	a9bd7bfd 	stp	x29, x30, [sp, #-48]!
   8198c:	910003fd 	mov	x29, sp
   81990:	b0000020 	adrp	x0, 86000 <el1t_irq_invalid+0x74>
   81994:	91154000 	add	x0, x0, #0x550
   81998:	94000bc4 	bl	848a8 <uart_sendline>
   8199c:	b0000020 	adrp	x0, 86000 <el1t_irq_invalid+0x74>
   819a0:	91160000 	add	x0, x0, #0x580
   819a4:	94000bc1 	bl	848a8 <uart_sendline>
   819a8:	b9002fff 	str	wzr, [sp, #44]
   819ac:	14000026 	b	81a44 <dump_free_frame_list+0xbc>
   819b0:	f0000020 	adrp	x0, 88000 <cmd_list+0x758>
   819b4:	9127e000 	add	x0, x0, #0x9f8
   819b8:	f9400001 	ldr	x1, [x0]
   819bc:	b9802fe0 	ldrsw	x0, [sp, #44]
   819c0:	d37be800 	lsl	x0, x0, #5
   819c4:	8b000020 	add	x0, x1, x0
   819c8:	f9400000 	ldr	x0, [x0]
   819cc:	f90013e0 	str	x0, [sp, #32]
   819d0:	b9001fff 	str	wzr, [sp, #28]
   819d4:	14000007 	b	819f0 <dump_free_frame_list+0x68>
   819d8:	b9401fe0 	ldr	w0, [sp, #28]
   819dc:	11000400 	add	w0, w0, #0x1
   819e0:	b9001fe0 	str	w0, [sp, #28]
   819e4:	f94013e0 	ldr	x0, [sp, #32]
   819e8:	f9400000 	ldr	x0, [x0]
   819ec:	f90013e0 	str	x0, [sp, #32]
   819f0:	f0000020 	adrp	x0, 88000 <cmd_list+0x758>
   819f4:	9127e000 	add	x0, x0, #0x9f8
   819f8:	f9400001 	ldr	x1, [x0]
   819fc:	b9802fe0 	ldrsw	x0, [sp, #44]
   81a00:	d37be800 	lsl	x0, x0, #5
   81a04:	8b000020 	add	x0, x1, x0
   81a08:	f94013e1 	ldr	x1, [sp, #32]
   81a0c:	eb00003f 	cmp	x1, x0
   81a10:	54fffe41 	b.ne	819d8 <dump_free_frame_list+0x50>  // b.any
   81a14:	b9402fe0 	ldr	w0, [sp, #44]
   81a18:	11000800 	add	w0, w0, #0x2
   81a1c:	52800021 	mov	w1, #0x1                   	// #1
   81a20:	1ac02020 	lsl	w0, w1, w0
   81a24:	b9401fe2 	ldr	w2, [sp, #28]
   81a28:	2a0003e1 	mov	w1, w0
   81a2c:	b0000020 	adrp	x0, 86000 <el1t_irq_invalid+0x74>
   81a30:	91166000 	add	x0, x0, #0x598
   81a34:	94000b9d 	bl	848a8 <uart_sendline>
   81a38:	b9402fe0 	ldr	w0, [sp, #44]
   81a3c:	11000400 	add	w0, w0, #0x1
   81a40:	b9002fe0 	str	w0, [sp, #44]
   81a44:	b9402fe0 	ldr	w0, [sp, #44]
   81a48:	7100281f 	cmp	w0, #0xa
   81a4c:	54fffb2d 	b.le	819b0 <dump_free_frame_list+0x28>
   81a50:	b0000020 	adrp	x0, 86000 <el1t_irq_invalid+0x74>
   81a54:	9116e000 	add	x0, x0, #0x5b8
   81a58:	94000b94 	bl	848a8 <uart_sendline>
   81a5c:	d503201f 	nop
   81a60:	a8c37bfd 	ldp	x29, x30, [sp], #48
   81a64:	d65f03c0 	ret

0000000000081a68 <cut_page_to_slot>:
   81a68:	a9bb7bfd 	stp	x29, x30, [sp, #-80]!
   81a6c:	910003fd 	mov	x29, sp
   81a70:	b9001fe0 	str	w0, [sp, #28]
   81a74:	52820000 	mov	w0, #0x1000                	// #4096
   81a78:	97fffed4 	bl	815c8 <page_malloc>
   81a7c:	f90023e0 	str	x0, [sp, #64]
   81a80:	f0000020 	adrp	x0, 88000 <cmd_list+0x758>
   81a84:	9127c000 	add	x0, x0, #0x9f0
   81a88:	f9400001 	ldr	x1, [x0]
   81a8c:	f94023e0 	ldr	x0, [sp, #64]
   81a90:	d34cfc00 	lsr	x0, x0, #12
   81a94:	d37be800 	lsl	x0, x0, #5
   81a98:	8b000020 	add	x0, x1, x0
   81a9c:	f9001fe0 	str	x0, [sp, #56]
   81aa0:	f9401fe0 	ldr	x0, [sp, #56]
   81aa4:	b9401fe1 	ldr	w1, [sp, #28]
   81aa8:	b9001c01 	str	w1, [x0, #28]
   81aac:	b9401fe0 	ldr	w0, [sp, #28]
   81ab0:	52800401 	mov	w1, #0x20                  	// #32
   81ab4:	1ac02020 	lsl	w0, w1, w0
   81ab8:	b90037e0 	str	w0, [sp, #52]
   81abc:	b9004fff 	str	wzr, [sp, #76]
   81ac0:	14000022 	b	81b48 <cut_page_to_slot+0xe0>
   81ac4:	b9804fe0 	ldrsw	x0, [sp, #76]
   81ac8:	f94023e1 	ldr	x1, [sp, #64]
   81acc:	8b000020 	add	x0, x1, x0
   81ad0:	f90017e0 	str	x0, [sp, #40]
   81ad4:	f0000020 	adrp	x0, 88000 <cmd_list+0x758>
   81ad8:	91280000 	add	x0, x0, #0xa00
   81adc:	f9400001 	ldr	x1, [x0]
   81ae0:	b9801fe0 	ldrsw	x0, [sp, #28]
   81ae4:	d37cec00 	lsl	x0, x0, #4
   81ae8:	8b000020 	add	x0, x1, x0
   81aec:	f9400001 	ldr	x1, [x0]
   81af0:	f94017e0 	ldr	x0, [sp, #40]
   81af4:	f9000001 	str	x1, [x0]
   81af8:	f0000020 	adrp	x0, 88000 <cmd_list+0x758>
   81afc:	91280000 	add	x0, x0, #0xa00
   81b00:	f9400001 	ldr	x1, [x0]
   81b04:	b9801fe0 	ldrsw	x0, [sp, #28]
   81b08:	d37cec00 	lsl	x0, x0, #4
   81b0c:	8b000021 	add	x1, x1, x0
   81b10:	f94017e0 	ldr	x0, [sp, #40]
   81b14:	f9000401 	str	x1, [x0, #8]
   81b18:	f94017e0 	ldr	x0, [sp, #40]
   81b1c:	f9400000 	ldr	x0, [x0]
   81b20:	f94017e1 	ldr	x1, [sp, #40]
   81b24:	f9000401 	str	x1, [x0, #8]
   81b28:	f94017e0 	ldr	x0, [sp, #40]
   81b2c:	f9400400 	ldr	x0, [x0, #8]
   81b30:	f94017e1 	ldr	x1, [sp, #40]
   81b34:	f9000001 	str	x1, [x0]
   81b38:	b9404fe1 	ldr	w1, [sp, #76]
   81b3c:	b94037e0 	ldr	w0, [sp, #52]
   81b40:	0b000020 	add	w0, w1, w0
   81b44:	b9004fe0 	str	w0, [sp, #76]
   81b48:	b9404fe0 	ldr	w0, [sp, #76]
   81b4c:	713ffc1f 	cmp	w0, #0xfff
   81b50:	54fffbad 	b.le	81ac4 <cut_page_to_slot+0x5c>
   81b54:	d503201f 	nop
   81b58:	d503201f 	nop
   81b5c:	a8c57bfd 	ldp	x29, x30, [sp], #80
   81b60:	d65f03c0 	ret

0000000000081b64 <dynamic_malloc>:
   81b64:	a9bc7bfd 	stp	x29, x30, [sp, #-64]!
   81b68:	910003fd 	mov	x29, sp
   81b6c:	b9001fe0 	str	w0, [sp, #28]
   81b70:	b9401fe0 	ldr	w0, [sp, #28]
   81b74:	53057c00 	lsr	w0, w0, #5
   81b78:	b9401fe1 	ldr	w1, [sp, #28]
   81b7c:	12001021 	and	w1, w1, #0x1f
   81b80:	7100003f 	cmp	w1, #0x0
   81b84:	1a9f07e1 	cset	w1, ne  // ne = any
   81b88:	12001c21 	and	w1, w1, #0xff
   81b8c:	0b010000 	add	w0, w0, w1
   81b90:	b9003be0 	str	w0, [sp, #56]
   81b94:	b9403be0 	ldr	w0, [sp, #56]
   81b98:	b9001fe0 	str	w0, [sp, #28]
   81b9c:	b9003fff 	str	wzr, [sp, #60]
   81ba0:	14000004 	b	81bb0 <dynamic_malloc+0x4c>
   81ba4:	b9403fe0 	ldr	w0, [sp, #60]
   81ba8:	11000400 	add	w0, w0, #0x1
   81bac:	b9003fe0 	str	w0, [sp, #60]
   81bb0:	b9403fe0 	ldr	w0, [sp, #60]
   81bb4:	52800021 	mov	w1, #0x1                   	// #1
   81bb8:	1ac02020 	lsl	w0, w1, w0
   81bbc:	2a0003e1 	mov	w1, w0
   81bc0:	b9401fe0 	ldr	w0, [sp, #28]
   81bc4:	6b01001f 	cmp	w0, w1
   81bc8:	54fffee8 	b.hi	81ba4 <dynamic_malloc+0x40>  // b.pmore
   81bcc:	f0000020 	adrp	x0, 88000 <cmd_list+0x758>
   81bd0:	91280000 	add	x0, x0, #0xa00
   81bd4:	f9400001 	ldr	x1, [x0]
   81bd8:	b9803fe0 	ldrsw	x0, [sp, #60]
   81bdc:	d37cec00 	lsl	x0, x0, #4
   81be0:	8b000020 	add	x0, x1, x0
   81be4:	f9400001 	ldr	x1, [x0]
   81be8:	f0000020 	adrp	x0, 88000 <cmd_list+0x758>
   81bec:	91280000 	add	x0, x0, #0xa00
   81bf0:	f9400002 	ldr	x2, [x0]
   81bf4:	b9803fe0 	ldrsw	x0, [sp, #60]
   81bf8:	d37cec00 	lsl	x0, x0, #4
   81bfc:	8b000040 	add	x0, x2, x0
   81c00:	eb00003f 	cmp	x1, x0
   81c04:	54000061 	b.ne	81c10 <dynamic_malloc+0xac>  // b.any
   81c08:	b9403fe0 	ldr	w0, [sp, #60]
   81c0c:	97ffff97 	bl	81a68 <cut_page_to_slot>
   81c10:	f0000020 	adrp	x0, 88000 <cmd_list+0x758>
   81c14:	91280000 	add	x0, x0, #0xa00
   81c18:	f9400001 	ldr	x1, [x0]
   81c1c:	b9803fe0 	ldrsw	x0, [sp, #60]
   81c20:	d37cec00 	lsl	x0, x0, #4
   81c24:	8b000020 	add	x0, x1, x0
   81c28:	f9400000 	ldr	x0, [x0]
   81c2c:	f9001be0 	str	x0, [sp, #48]
   81c30:	f0000020 	adrp	x0, 88000 <cmd_list+0x758>
   81c34:	91280000 	add	x0, x0, #0xa00
   81c38:	f9400001 	ldr	x1, [x0]
   81c3c:	b9803fe0 	ldrsw	x0, [sp, #60]
   81c40:	d37cec00 	lsl	x0, x0, #4
   81c44:	8b000020 	add	x0, x1, x0
   81c48:	f9400000 	ldr	x0, [x0]
   81c4c:	f90017e0 	str	x0, [sp, #40]
   81c50:	f94017e0 	ldr	x0, [sp, #40]
   81c54:	f9400400 	ldr	x0, [x0, #8]
   81c58:	f94017e1 	ldr	x1, [sp, #40]
   81c5c:	f9400021 	ldr	x1, [x1]
   81c60:	f9000001 	str	x1, [x0]
   81c64:	f94017e0 	ldr	x0, [sp, #40]
   81c68:	f9400000 	ldr	x0, [x0]
   81c6c:	f94017e1 	ldr	x1, [sp, #40]
   81c70:	f9400421 	ldr	x1, [x1, #8]
   81c74:	f9000401 	str	x1, [x0, #8]
   81c78:	f9401be0 	ldr	x0, [sp, #48]
   81c7c:	a8c47bfd 	ldp	x29, x30, [sp], #64
   81c80:	d65f03c0 	ret

0000000000081c84 <dynamic_free>:
   81c84:	d10083ff 	sub	sp, sp, #0x20
   81c88:	f90007e0 	str	x0, [sp, #8]
   81c8c:	f0000020 	adrp	x0, 88000 <cmd_list+0x758>
   81c90:	9127c000 	add	x0, x0, #0x9f0
   81c94:	f9400001 	ldr	x1, [x0]
   81c98:	f94007e0 	ldr	x0, [sp, #8]
   81c9c:	d34cfc00 	lsr	x0, x0, #12
   81ca0:	d37be800 	lsl	x0, x0, #5
   81ca4:	8b000020 	add	x0, x1, x0
   81ca8:	b9401c00 	ldr	w0, [x0, #28]
   81cac:	b9001fe0 	str	w0, [sp, #28]
   81cb0:	f94007e0 	ldr	x0, [sp, #8]
   81cb4:	f9000be0 	str	x0, [sp, #16]
   81cb8:	f0000020 	adrp	x0, 88000 <cmd_list+0x758>
   81cbc:	91280000 	add	x0, x0, #0xa00
   81cc0:	f9400001 	ldr	x1, [x0]
   81cc4:	b9801fe0 	ldrsw	x0, [sp, #28]
   81cc8:	d37cec00 	lsl	x0, x0, #4
   81ccc:	8b000020 	add	x0, x1, x0
   81cd0:	f9400001 	ldr	x1, [x0]
   81cd4:	f9400be0 	ldr	x0, [sp, #16]
   81cd8:	f9000001 	str	x1, [x0]
   81cdc:	f0000020 	adrp	x0, 88000 <cmd_list+0x758>
   81ce0:	91280000 	add	x0, x0, #0xa00
   81ce4:	f9400001 	ldr	x1, [x0]
   81ce8:	b9801fe0 	ldrsw	x0, [sp, #28]
   81cec:	d37cec00 	lsl	x0, x0, #4
   81cf0:	8b000021 	add	x1, x1, x0
   81cf4:	f9400be0 	ldr	x0, [sp, #16]
   81cf8:	f9000401 	str	x1, [x0, #8]
   81cfc:	f9400be0 	ldr	x0, [sp, #16]
   81d00:	f9400000 	ldr	x0, [x0]
   81d04:	f9400be1 	ldr	x1, [sp, #16]
   81d08:	f9000401 	str	x1, [x0, #8]
   81d0c:	f9400be0 	ldr	x0, [sp, #16]
   81d10:	f9400400 	ldr	x0, [x0, #8]
   81d14:	f9400be1 	ldr	x1, [sp, #16]
   81d18:	f9000001 	str	x1, [x0]
   81d1c:	d503201f 	nop
   81d20:	910083ff 	add	sp, sp, #0x20
   81d24:	d65f03c0 	ret

0000000000081d28 <dump_free_slot_list>:
   81d28:	a9bd7bfd 	stp	x29, x30, [sp, #-48]!
   81d2c:	910003fd 	mov	x29, sp
   81d30:	b0000020 	adrp	x0, 86000 <el1t_irq_invalid+0x74>
   81d34:	91154000 	add	x0, x0, #0x550
   81d38:	94000adc 	bl	848a8 <uart_sendline>
   81d3c:	b0000020 	adrp	x0, 86000 <el1t_irq_invalid+0x74>
   81d40:	9117a000 	add	x0, x0, #0x5e8
   81d44:	94000ad9 	bl	848a8 <uart_sendline>
   81d48:	b9002fff 	str	wzr, [sp, #44]
   81d4c:	14000025 	b	81de0 <dump_free_slot_list+0xb8>
   81d50:	f0000020 	adrp	x0, 88000 <cmd_list+0x758>
   81d54:	91280000 	add	x0, x0, #0xa00
   81d58:	f9400001 	ldr	x1, [x0]
   81d5c:	b9802fe0 	ldrsw	x0, [sp, #44]
   81d60:	d37cec00 	lsl	x0, x0, #4
   81d64:	8b000020 	add	x0, x1, x0
   81d68:	f9400000 	ldr	x0, [x0]
   81d6c:	f90013e0 	str	x0, [sp, #32]
   81d70:	b9001fff 	str	wzr, [sp, #28]
   81d74:	14000007 	b	81d90 <dump_free_slot_list+0x68>
   81d78:	b9401fe0 	ldr	w0, [sp, #28]
   81d7c:	11000400 	add	w0, w0, #0x1
   81d80:	b9001fe0 	str	w0, [sp, #28]
   81d84:	f94013e0 	ldr	x0, [sp, #32]
   81d88:	f9400000 	ldr	x0, [x0]
   81d8c:	f90013e0 	str	x0, [sp, #32]
   81d90:	f0000020 	adrp	x0, 88000 <cmd_list+0x758>
   81d94:	91280000 	add	x0, x0, #0xa00
   81d98:	f9400001 	ldr	x1, [x0]
   81d9c:	b9802fe0 	ldrsw	x0, [sp, #44]
   81da0:	d37cec00 	lsl	x0, x0, #4
   81da4:	8b000020 	add	x0, x1, x0
   81da8:	f94013e1 	ldr	x1, [sp, #32]
   81dac:	eb00003f 	cmp	x1, x0
   81db0:	54fffe41 	b.ne	81d78 <dump_free_slot_list+0x50>  // b.any
   81db4:	b9402fe0 	ldr	w0, [sp, #44]
   81db8:	52800401 	mov	w1, #0x20                  	// #32
   81dbc:	1ac02020 	lsl	w0, w1, w0
   81dc0:	b9401fe2 	ldr	w2, [sp, #28]
   81dc4:	2a0003e1 	mov	w1, w0
   81dc8:	b0000020 	adrp	x0, 86000 <el1t_irq_invalid+0x74>
   81dcc:	91180000 	add	x0, x0, #0x600
   81dd0:	94000ab6 	bl	848a8 <uart_sendline>
   81dd4:	b9402fe0 	ldr	w0, [sp, #44]
   81dd8:	11000400 	add	w0, w0, #0x1
   81ddc:	b9002fe0 	str	w0, [sp, #44]
   81de0:	b9402fe0 	ldr	w0, [sp, #44]
   81de4:	71001c1f 	cmp	w0, #0x7
   81de8:	54fffb4d 	b.le	81d50 <dump_free_slot_list+0x28>
   81dec:	b0000020 	adrp	x0, 86000 <el1t_irq_invalid+0x74>
   81df0:	9116e000 	add	x0, x0, #0x5b8
   81df4:	94000aad 	bl	848a8 <uart_sendline>
   81df8:	d503201f 	nop
   81dfc:	a8c37bfd 	ldp	x29, x30, [sp], #48
   81e00:	d65f03c0 	ret

0000000000081e04 <kmalloc>:
   81e04:	a9bd7bfd 	stp	x29, x30, [sp, #-48]!
   81e08:	910003fd 	mov	x29, sp
   81e0c:	b9001fe0 	str	w0, [sp, #28]
   81e10:	b9401fe0 	ldr	w0, [sp, #28]
   81e14:	7120001f 	cmp	w0, #0x800
   81e18:	540000a9 	b.ls	81e2c <kmalloc+0x28>  // b.plast
   81e1c:	b9401fe0 	ldr	w0, [sp, #28]
   81e20:	97fffdea 	bl	815c8 <page_malloc>
   81e24:	f90017e0 	str	x0, [sp, #40]
   81e28:	14000004 	b	81e38 <kmalloc+0x34>
   81e2c:	b9401fe0 	ldr	w0, [sp, #28]
   81e30:	97ffff4d 	bl	81b64 <dynamic_malloc>
   81e34:	f90017e0 	str	x0, [sp, #40]
   81e38:	f94017e0 	ldr	x0, [sp, #40]
   81e3c:	a8c37bfd 	ldp	x29, x30, [sp], #48
   81e40:	d65f03c0 	ret

0000000000081e44 <kfree>:
   81e44:	a9bd7bfd 	stp	x29, x30, [sp, #-48]!
   81e48:	910003fd 	mov	x29, sp
   81e4c:	f9000fe0 	str	x0, [sp, #24]
   81e50:	f0000020 	adrp	x0, 88000 <cmd_list+0x758>
   81e54:	9127c000 	add	x0, x0, #0x9f0
   81e58:	f9400001 	ldr	x1, [x0]
   81e5c:	f9400fe0 	ldr	x0, [sp, #24]
   81e60:	d34cfc00 	lsr	x0, x0, #12
   81e64:	d37be800 	lsl	x0, x0, #5
   81e68:	8b000020 	add	x0, x1, x0
   81e6c:	f90017e0 	str	x0, [sp, #40]
   81e70:	f94017e0 	ldr	x0, [sp, #40]
   81e74:	b9401c00 	ldr	w0, [x0, #28]
   81e78:	3100041f 	cmn	w0, #0x1
   81e7c:	54000081 	b.ne	81e8c <kfree+0x48>  // b.any
   81e80:	f9400fe0 	ldr	x0, [sp, #24]
   81e84:	97fffe63 	bl	81810 <page_free>
   81e88:	14000003 	b	81e94 <kfree+0x50>
   81e8c:	f9400fe0 	ldr	x0, [sp, #24]
   81e90:	97ffff7d 	bl	81c84 <dynamic_free>
   81e94:	d503201f 	nop
   81e98:	a8c37bfd 	ldp	x29, x30, [sp], #48
   81e9c:	d65f03c0 	ret

0000000000081ea0 <memory_reserve>:
   81ea0:	a9bb7bfd 	stp	x29, x30, [sp, #-80]!
   81ea4:	910003fd 	mov	x29, sp
   81ea8:	f9000fe0 	str	x0, [sp, #24]
   81eac:	f9000be1 	str	x1, [sp, #16]
   81eb0:	f9400fe0 	ldr	x0, [sp, #24]
   81eb4:	d34cfc00 	lsr	x0, x0, #12
   81eb8:	f9000fe0 	str	x0, [sp, #24]
   81ebc:	f9400be0 	ldr	x0, [sp, #16]
   81ec0:	92402c00 	and	x0, x0, #0xfff
   81ec4:	f100001f 	cmp	x0, #0x0
   81ec8:	54000081 	b.ne	81ed8 <memory_reserve+0x38>  // b.any
   81ecc:	f9400be0 	ldr	x0, [sp, #16]
   81ed0:	d34cfc00 	lsr	x0, x0, #12
   81ed4:	14000004 	b	81ee4 <memory_reserve+0x44>
   81ed8:	f9400be0 	ldr	x0, [sp, #16]
   81edc:	d34cfc00 	lsr	x0, x0, #12
   81ee0:	91000400 	add	x0, x0, #0x1
   81ee4:	f9000be0 	str	x0, [sp, #16]
   81ee8:	52800140 	mov	w0, #0xa                   	// #10
   81eec:	b9004fe0 	str	w0, [sp, #76]
   81ef0:	14000080 	b	820f0 <memory_reserve+0x250>
   81ef4:	f0000020 	adrp	x0, 88000 <cmd_list+0x758>
   81ef8:	9127e000 	add	x0, x0, #0x9f8
   81efc:	f9400001 	ldr	x1, [x0]
   81f00:	b9804fe0 	ldrsw	x0, [sp, #76]
   81f04:	d37be800 	lsl	x0, x0, #5
   81f08:	8b000020 	add	x0, x1, x0
   81f0c:	f9400000 	ldr	x0, [x0]
   81f10:	f90023e0 	str	x0, [sp, #64]
   81f14:	1400006b 	b	820c0 <memory_reserve+0x220>
   81f18:	f94023e0 	ldr	x0, [sp, #64]
   81f1c:	b9401000 	ldr	w0, [x0, #16]
   81f20:	b9003fe0 	str	w0, [sp, #60]
   81f24:	f94023e0 	ldr	x0, [sp, #64]
   81f28:	b9401000 	ldr	w0, [x0, #16]
   81f2c:	f94023e1 	ldr	x1, [sp, #64]
   81f30:	b9401821 	ldr	w1, [x1, #24]
   81f34:	52800022 	mov	w2, #0x1                   	// #1
   81f38:	1ac12041 	lsl	w1, w2, w1
   81f3c:	0b010000 	add	w0, w0, w1
   81f40:	b9003be0 	str	w0, [sp, #56]
   81f44:	b9803fe0 	ldrsw	x0, [sp, #60]
   81f48:	f9400fe1 	ldr	x1, [sp, #24]
   81f4c:	eb00003f 	cmp	x1, x0
   81f50:	540002c8 	b.hi	81fa8 <memory_reserve+0x108>  // b.pmore
   81f54:	b9803be0 	ldrsw	x0, [sp, #56]
   81f58:	f9400be1 	ldr	x1, [sp, #16]
   81f5c:	eb00003f 	cmp	x1, x0
   81f60:	54000243 	b.cc	81fa8 <memory_reserve+0x108>  // b.lo, b.ul, b.last
   81f64:	f94023e0 	ldr	x0, [sp, #64]
   81f68:	12800021 	mov	w1, #0xfffffffe            	// #-2
   81f6c:	b9001401 	str	w1, [x0, #20]
   81f70:	f94023e0 	ldr	x0, [sp, #64]
   81f74:	f9400400 	ldr	x0, [x0, #8]
   81f78:	f94023e1 	ldr	x1, [sp, #64]
   81f7c:	f9400021 	ldr	x1, [x1]
   81f80:	f9000001 	str	x1, [x0]
   81f84:	f94023e0 	ldr	x0, [sp, #64]
   81f88:	f9400000 	ldr	x0, [x0]
   81f8c:	f94023e1 	ldr	x1, [sp, #64]
   81f90:	f9400421 	ldr	x1, [x1, #8]
   81f94:	f9000401 	str	x1, [x0, #8]
   81f98:	f94023e0 	ldr	x0, [sp, #64]
   81f9c:	f9400000 	ldr	x0, [x0]
   81fa0:	f90023e0 	str	x0, [sp, #64]
   81fa4:	14000047 	b	820c0 <memory_reserve+0x220>
   81fa8:	b9803fe0 	ldrsw	x0, [sp, #60]
   81fac:	f9400be1 	ldr	x1, [sp, #16]
   81fb0:	eb00003f 	cmp	x1, x0
   81fb4:	540000a9 	b.ls	81fc8 <memory_reserve+0x128>  // b.plast
   81fb8:	b9803be0 	ldrsw	x0, [sp, #56]
   81fbc:	f9400fe1 	ldr	x1, [sp, #24]
   81fc0:	eb00003f 	cmp	x1, x0
   81fc4:	540000a3 	b.cc	81fd8 <memory_reserve+0x138>  // b.lo, b.ul, b.last
   81fc8:	f94023e0 	ldr	x0, [sp, #64]
   81fcc:	f9400000 	ldr	x0, [x0]
   81fd0:	f90023e0 	str	x0, [sp, #64]
   81fd4:	1400003b 	b	820c0 <memory_reserve+0x220>
   81fd8:	f94023e0 	ldr	x0, [sp, #64]
   81fdc:	f9400400 	ldr	x0, [x0, #8]
   81fe0:	f94023e1 	ldr	x1, [sp, #64]
   81fe4:	f9400021 	ldr	x1, [x1]
   81fe8:	f9000001 	str	x1, [x0]
   81fec:	f94023e0 	ldr	x0, [sp, #64]
   81ff0:	f9400000 	ldr	x0, [x0]
   81ff4:	f94023e1 	ldr	x1, [sp, #64]
   81ff8:	f9400421 	ldr	x1, [x1, #8]
   81ffc:	f9000401 	str	x1, [x0, #8]
   82000:	d0000020 	adrp	x0, 88000 <cmd_list+0x758>
   82004:	9127c000 	add	x0, x0, #0x9f0
   82008:	f9400001 	ldr	x1, [x0]
   8200c:	f94023e0 	ldr	x0, [sp, #64]
   82010:	b9401000 	ldr	w0, [x0, #16]
   82014:	b9404fe2 	ldr	w2, [sp, #76]
   82018:	51000442 	sub	w2, w2, #0x1
   8201c:	52800023 	mov	w3, #0x1                   	// #1
   82020:	1ac22062 	lsl	w2, w3, w2
   82024:	4a020000 	eor	w0, w0, w2
   82028:	2a0003e0 	mov	w0, w0
   8202c:	d37be800 	lsl	x0, x0, #5
   82030:	8b000020 	add	x0, x1, x0
   82034:	f9001be0 	str	x0, [sp, #48]
   82038:	f94023e0 	ldr	x0, [sp, #64]
   8203c:	b9401800 	ldr	w0, [x0, #24]
   82040:	51000401 	sub	w1, w0, #0x1
   82044:	f94023e0 	ldr	x0, [sp, #64]
   82048:	b9001801 	str	w1, [x0, #24]
   8204c:	f94023e0 	ldr	x0, [sp, #64]
   82050:	b9401801 	ldr	w1, [x0, #24]
   82054:	f9401be0 	ldr	x0, [sp, #48]
   82058:	b9001801 	str	w1, [x0, #24]
   8205c:	f94023e0 	ldr	x0, [sp, #64]
   82060:	f9400000 	ldr	x0, [x0]
   82064:	f90017e0 	str	x0, [sp, #40]
   82068:	d0000020 	adrp	x0, 88000 <cmd_list+0x758>
   8206c:	9127e000 	add	x0, x0, #0x9f8
   82070:	f9400001 	ldr	x1, [x0]
   82074:	b9804fe0 	ldrsw	x0, [sp, #76]
   82078:	d37be800 	lsl	x0, x0, #5
   8207c:	d1008000 	sub	x0, x0, #0x20
   82080:	8b000020 	add	x0, x1, x0
   82084:	aa0003e1 	mov	x1, x0
   82088:	f9401be0 	ldr	x0, [sp, #48]
   8208c:	97fffc78 	bl	8126c <insert_frame_node>
   82090:	d0000020 	adrp	x0, 88000 <cmd_list+0x758>
   82094:	9127e000 	add	x0, x0, #0x9f8
   82098:	f9400001 	ldr	x1, [x0]
   8209c:	b9804fe0 	ldrsw	x0, [sp, #76]
   820a0:	d37be800 	lsl	x0, x0, #5
   820a4:	d1008000 	sub	x0, x0, #0x20
   820a8:	8b000020 	add	x0, x1, x0
   820ac:	aa0003e1 	mov	x1, x0
   820b0:	f94023e0 	ldr	x0, [sp, #64]
   820b4:	97fffc6e 	bl	8126c <insert_frame_node>
   820b8:	f94017e0 	ldr	x0, [sp, #40]
   820bc:	f90023e0 	str	x0, [sp, #64]
   820c0:	d0000020 	adrp	x0, 88000 <cmd_list+0x758>
   820c4:	9127e000 	add	x0, x0, #0x9f8
   820c8:	f9400001 	ldr	x1, [x0]
   820cc:	b9804fe0 	ldrsw	x0, [sp, #76]
   820d0:	d37be800 	lsl	x0, x0, #5
   820d4:	8b000020 	add	x0, x1, x0
   820d8:	f94023e1 	ldr	x1, [sp, #64]
   820dc:	eb00003f 	cmp	x1, x0
   820e0:	54fff1c1 	b.ne	81f18 <memory_reserve+0x78>  // b.any
   820e4:	b9404fe0 	ldr	w0, [sp, #76]
   820e8:	51000400 	sub	w0, w0, #0x1
   820ec:	b9004fe0 	str	w0, [sp, #76]
   820f0:	b9404fe0 	ldr	w0, [sp, #76]
   820f4:	7100001f 	cmp	w0, #0x0
   820f8:	54ffefea 	b.ge	81ef4 <memory_reserve+0x54>  // b.tcont
   820fc:	d503201f 	nop
   82100:	d503201f 	nop
   82104:	a8c57bfd 	ldp	x29, x30, [sp], #80
   82108:	d65f03c0 	ret

000000000008210c <do_cmd_exec>:
   8210c:	a9bb7bfd 	stp	x29, x30, [sp, #-80]!
   82110:	910003fd 	mov	x29, sp
   82114:	f9000fe0 	str	x0, [sp, #24]
   82118:	d0000020 	adrp	x0, 88000 <cmd_list+0x758>
   8211c:	91282000 	add	x0, x0, #0xa08
   82120:	f9400000 	ldr	x0, [x0]
   82124:	f90017e0 	str	x0, [sp, #40]
   82128:	14000022 	b	821b0 <do_cmd_exec+0xa4>
   8212c:	f94017e0 	ldr	x0, [sp, #40]
   82130:	9100a3e4 	add	x4, sp, #0x28
   82134:	9100e3e3 	add	x3, sp, #0x38
   82138:	9100d3e2 	add	x2, sp, #0x34
   8213c:	910103e1 	add	x1, sp, #0x40
   82140:	97fff821 	bl	801c4 <cpio_newc_parse_header>
   82144:	b9004fe0 	str	w0, [sp, #76]
   82148:	b9404fe0 	ldr	w0, [sp, #76]
   8214c:	7100001f 	cmp	w0, #0x0
   82150:	540000a0 	b.eq	82164 <do_cmd_exec+0x58>  // b.none
   82154:	90000020 	adrp	x0, 86000 <el1t_irq_invalid+0x74>
   82158:	91188000 	add	x0, x0, #0x620
   8215c:	940009d3 	bl	848a8 <uart_sendline>
   82160:	14000018 	b	821c0 <do_cmd_exec+0xb4>
   82164:	f94023e0 	ldr	x0, [sp, #64]
   82168:	f9400fe1 	ldr	x1, [sp, #24]
   8216c:	94000c7a 	bl	85354 <strcmp>
   82170:	7100001f 	cmp	w0, #0x0
   82174:	54000101 	b.ne	82194 <do_cmd_exec+0x88>  // b.any
   82178:	d0000020 	adrp	x0, 88000 <cmd_list+0x758>
   8217c:	f943fc00 	ldr	x0, [x0, #2040]
   82180:	b900001f 	str	wzr, [x0]
   82184:	f9401fe0 	ldr	x0, [sp, #56]
   82188:	b94037e1 	ldr	w1, [sp, #52]
   8218c:	940007bd 	bl	84080 <thread_exec>
   82190:	1400000c 	b	821c0 <do_cmd_exec+0xb4>
   82194:	f94017e0 	ldr	x0, [sp, #40]
   82198:	f100001f 	cmp	x0, #0x0
   8219c:	540000a1 	b.ne	821b0 <do_cmd_exec+0xa4>  // b.any
   821a0:	f9400fe1 	ldr	x1, [sp, #24]
   821a4:	90000020 	adrp	x0, 86000 <el1t_irq_invalid+0x74>
   821a8:	9118e000 	add	x0, x0, #0x638
   821ac:	940009bf 	bl	848a8 <uart_sendline>
   821b0:	f94017e0 	ldr	x0, [sp, #40]
   821b4:	f100001f 	cmp	x0, #0x0
   821b8:	54fffba1 	b.ne	8212c <do_cmd_exec+0x20>  // b.any
   821bc:	d503201f 	nop
   821c0:	d503201f 	nop
   821c4:	a8c57bfd 	ldp	x29, x30, [sp], #80
   821c8:	d65f03c0 	ret

00000000000821cc <cli_cmd_strcmp>:
   821cc:	d100c3ff 	sub	sp, sp, #0x30
   821d0:	f90007e0 	str	x0, [sp, #8]
   821d4:	f90003e1 	str	x1, [sp]
   821d8:	f94007e0 	ldr	x0, [sp, #8]
   821dc:	f90017e0 	str	x0, [sp, #40]
   821e0:	f94003e0 	ldr	x0, [sp]
   821e4:	f90013e0 	str	x0, [sp, #32]
   821e8:	f94017e0 	ldr	x0, [sp, #40]
   821ec:	91000401 	add	x1, x0, #0x1
   821f0:	f90017e1 	str	x1, [sp, #40]
   821f4:	39400000 	ldrb	w0, [x0]
   821f8:	39007fe0 	strb	w0, [sp, #31]
   821fc:	f94013e0 	ldr	x0, [sp, #32]
   82200:	91000401 	add	x1, x0, #0x1
   82204:	f90013e1 	str	x1, [sp, #32]
   82208:	39400000 	ldrb	w0, [x0]
   8220c:	39007be0 	strb	w0, [sp, #30]
   82210:	39407fe0 	ldrb	w0, [sp, #31]
   82214:	7100001f 	cmp	w0, #0x0
   82218:	540000a1 	b.ne	8222c <cli_cmd_strcmp+0x60>  // b.any
   8221c:	39407fe1 	ldrb	w1, [sp, #31]
   82220:	39407be0 	ldrb	w0, [sp, #30]
   82224:	4b000020 	sub	w0, w1, w0
   82228:	14000008 	b	82248 <cli_cmd_strcmp+0x7c>
   8222c:	39407fe1 	ldrb	w1, [sp, #31]
   82230:	39407be0 	ldrb	w0, [sp, #30]
   82234:	6b00003f 	cmp	w1, w0
   82238:	54fffd80 	b.eq	821e8 <cli_cmd_strcmp+0x1c>  // b.none
   8223c:	39407fe1 	ldrb	w1, [sp, #31]
   82240:	39407be0 	ldrb	w0, [sp, #30]
   82244:	4b000020 	sub	w0, w1, w0
   82248:	9100c3ff 	add	sp, sp, #0x30
   8224c:	d65f03c0 	ret

0000000000082250 <cli_cmd_clear>:
   82250:	d10083ff 	sub	sp, sp, #0x20
   82254:	f90007e0 	str	x0, [sp, #8]
   82258:	b90007e1 	str	w1, [sp, #4]
   8225c:	b9001fff 	str	wzr, [sp, #28]
   82260:	14000008 	b	82280 <cli_cmd_clear+0x30>
   82264:	b9801fe0 	ldrsw	x0, [sp, #28]
   82268:	f94007e1 	ldr	x1, [sp, #8]
   8226c:	8b000020 	add	x0, x1, x0
   82270:	3900001f 	strb	wzr, [x0]
   82274:	b9401fe0 	ldr	w0, [sp, #28]
   82278:	11000400 	add	w0, w0, #0x1
   8227c:	b9001fe0 	str	w0, [sp, #28]
   82280:	b9401fe1 	ldr	w1, [sp, #28]
   82284:	b94007e0 	ldr	w0, [sp, #4]
   82288:	6b00003f 	cmp	w1, w0
   8228c:	54fffecb 	b.lt	82264 <cli_cmd_clear+0x14>  // b.tstop
   82290:	d503201f 	nop
   82294:	d503201f 	nop
   82298:	910083ff 	add	sp, sp, #0x20
   8229c:	d65f03c0 	ret

00000000000822a0 <cli_cmd_read>:
   822a0:	a9bd7bfd 	stp	x29, x30, [sp, #-48]!
   822a4:	910003fd 	mov	x29, sp
   822a8:	f9000fe0 	str	x0, [sp, #24]
   822ac:	b9002fff 	str	wzr, [sp, #44]
   822b0:	94000a37 	bl	84b8c <uart_async_getc>
   822b4:	3900afe0 	strb	w0, [sp, #43]
   822b8:	3940afe0 	ldrb	w0, [sp, #43]
   822bc:	7100281f 	cmp	w0, #0xa
   822c0:	540000c1 	b.ne	822d8 <cli_cmd_read+0x38>  // b.any
   822c4:	b9802fe0 	ldrsw	x0, [sp, #44]
   822c8:	f9400fe1 	ldr	x1, [sp, #24]
   822cc:	8b000020 	add	x0, x1, x0
   822d0:	3900001f 	strb	wzr, [x0]
   822d4:	14000026 	b	8236c <cli_cmd_read+0xcc>
   822d8:	3940afe0 	ldrb	w0, [sp, #43]
   822dc:	71007c1f 	cmp	w0, #0x1f
   822e0:	540001a9 	b.ls	82314 <cli_cmd_read+0x74>  // b.plast
   822e4:	3940afe0 	ldrb	w0, [sp, #43]
   822e8:	7101f81f 	cmp	w0, #0x7e
   822ec:	54000148 	b.hi	82314 <cli_cmd_read+0x74>  // b.pmore
   822f0:	b9402fe0 	ldr	w0, [sp, #44]
   822f4:	11000401 	add	w1, w0, #0x1
   822f8:	b9002fe1 	str	w1, [sp, #44]
   822fc:	93407c00 	sxtw	x0, w0
   82300:	f9400fe1 	ldr	x1, [sp, #24]
   82304:	8b000020 	add	x0, x1, x0
   82308:	3940afe1 	ldrb	w1, [sp, #43]
   8230c:	39000001 	strb	w1, [x0]
   82310:	14000016 	b	82368 <cli_cmd_read+0xc8>
   82314:	3940afe0 	ldrb	w0, [sp, #43]
   82318:	7101fc1f 	cmp	w0, #0x7f
   8231c:	54000241 	b.ne	82364 <cli_cmd_read+0xc4>  // b.any
   82320:	b9402fe0 	ldr	w0, [sp, #44]
   82324:	7100001f 	cmp	w0, #0x0
   82328:	54fffc4d 	b.le	822b0 <cli_cmd_read+0x10>
   8232c:	b9402fe0 	ldr	w0, [sp, #44]
   82330:	51000401 	sub	w1, w0, #0x1
   82334:	b9002fe1 	str	w1, [sp, #44]
   82338:	93407c00 	sxtw	x0, w0
   8233c:	f9400fe1 	ldr	x1, [sp, #24]
   82340:	8b000020 	add	x0, x1, x0
   82344:	3900001f 	strb	wzr, [x0]
   82348:	52800100 	mov	w0, #0x8                   	// #8
   8234c:	94000926 	bl	847e4 <uart_send>
   82350:	52800400 	mov	w0, #0x20                  	// #32
   82354:	94000924 	bl	847e4 <uart_send>
   82358:	52800100 	mov	w0, #0x8                   	// #8
   8235c:	94000922 	bl	847e4 <uart_send>
   82360:	17ffffd4 	b	822b0 <cli_cmd_read+0x10>
   82364:	d503201f 	nop
   82368:	17ffffd2 	b	822b0 <cli_cmd_read+0x10>
   8236c:	d503201f 	nop
   82370:	a8c37bfd 	ldp	x29, x30, [sp], #48
   82374:	d65f03c0 	ret

0000000000082378 <cli_cmd_exec>:
   82378:	a9bc7bfd 	stp	x29, x30, [sp, #-64]!
   8237c:	910003fd 	mov	x29, sp
   82380:	f9000fe0 	str	x0, [sp, #24]
   82384:	f9400fe0 	ldr	x0, [sp, #24]
   82388:	f100001f 	cmp	x0, #0x0
   8238c:	54001420 	b.eq	82610 <cli_cmd_exec+0x298>  // b.none
   82390:	f9400fe0 	ldr	x0, [sp, #24]
   82394:	f9001be0 	str	x0, [sp, #48]
   82398:	f9400fe0 	ldr	x0, [sp, #24]
   8239c:	39400000 	ldrb	w0, [x0]
   823a0:	7100001f 	cmp	w0, #0x0
   823a4:	54000081 	b.ne	823b4 <cli_cmd_exec+0x3c>  // b.any
   823a8:	f9400fe0 	ldr	x0, [sp, #24]
   823ac:	f9001fe0 	str	x0, [sp, #56]
   823b0:	1400000f 	b	823ec <cli_cmd_exec+0x74>
   823b4:	f9400fe0 	ldr	x0, [sp, #24]
   823b8:	39400000 	ldrb	w0, [x0]
   823bc:	7100801f 	cmp	w0, #0x20
   823c0:	540000e1 	b.ne	823dc <cli_cmd_exec+0x64>  // b.any
   823c4:	f9400fe0 	ldr	x0, [sp, #24]
   823c8:	3900001f 	strb	wzr, [x0]
   823cc:	f9400fe0 	ldr	x0, [sp, #24]
   823d0:	91000400 	add	x0, x0, #0x1
   823d4:	f9001fe0 	str	x0, [sp, #56]
   823d8:	14000005 	b	823ec <cli_cmd_exec+0x74>
   823dc:	f9400fe0 	ldr	x0, [sp, #24]
   823e0:	91000400 	add	x0, x0, #0x1
   823e4:	f9000fe0 	str	x0, [sp, #24]
   823e8:	17ffffec 	b	82398 <cli_cmd_exec+0x20>
   823ec:	90000020 	adrp	x0, 86000 <el1t_irq_invalid+0x74>
   823f0:	91198001 	add	x1, x0, #0x660
   823f4:	f9401be0 	ldr	x0, [sp, #48]
   823f8:	94000bd7 	bl	85354 <strcmp>
   823fc:	7100001f 	cmp	w0, #0x0
   82400:	54000081 	b.ne	82410 <cli_cmd_exec+0x98>  // b.any
   82404:	f9401fe0 	ldr	x0, [sp, #56]
   82408:	940000c6 	bl	82720 <do_cmd_cat>
   8240c:	14000082 	b	82614 <cli_cmd_exec+0x29c>
   82410:	90000020 	adrp	x0, 86000 <el1t_irq_invalid+0x74>
   82414:	9119a001 	add	x1, x0, #0x668
   82418:	f9401be0 	ldr	x0, [sp, #48]
   8241c:	94000bce 	bl	85354 <strcmp>
   82420:	7100001f 	cmp	w0, #0x0
   82424:	54000061 	b.ne	82430 <cli_cmd_exec+0xb8>  // b.any
   82428:	940000ef 	bl	827e4 <do_cmd_dtb>
   8242c:	1400007a 	b	82614 <cli_cmd_exec+0x29c>
   82430:	90000020 	adrp	x0, 86000 <el1t_irq_invalid+0x74>
   82434:	9119c001 	add	x1, x0, #0x670
   82438:	f9401be0 	ldr	x0, [sp, #48]
   8243c:	94000bc6 	bl	85354 <strcmp>
   82440:	7100001f 	cmp	w0, #0x0
   82444:	54000061 	b.ne	82450 <cli_cmd_exec+0xd8>  // b.any
   82448:	94000114 	bl	82898 <do_cmd_hello>
   8244c:	14000072 	b	82614 <cli_cmd_exec+0x29c>
   82450:	90000020 	adrp	x0, 86000 <el1t_irq_invalid+0x74>
   82454:	9119e001 	add	x1, x0, #0x678
   82458:	f9401be0 	ldr	x0, [sp, #48]
   8245c:	94000bbe 	bl	85354 <strcmp>
   82460:	7100001f 	cmp	w0, #0x0
   82464:	54000061 	b.ne	82470 <cli_cmd_exec+0xf8>  // b.any
   82468:	940000eb 	bl	82814 <do_cmd_help>
   8246c:	1400006a 	b	82614 <cli_cmd_exec+0x29c>
   82470:	90000020 	adrp	x0, 86000 <el1t_irq_invalid+0x74>
   82474:	911a0001 	add	x1, x0, #0x680
   82478:	f9401be0 	ldr	x0, [sp, #48]
   8247c:	94000bb6 	bl	85354 <strcmp>
   82480:	7100001f 	cmp	w0, #0x0
   82484:	54000061 	b.ne	82490 <cli_cmd_exec+0x118>  // b.any
   82488:	9400010c 	bl	828b8 <do_cmd_info>
   8248c:	14000062 	b	82614 <cli_cmd_exec+0x29c>
   82490:	90000020 	adrp	x0, 86000 <el1t_irq_invalid+0x74>
   82494:	911a2001 	add	x1, x0, #0x688
   82498:	f9401be0 	ldr	x0, [sp, #48]
   8249c:	94000bae 	bl	85354 <strcmp>
   824a0:	7100001f 	cmp	w0, #0x0
   824a4:	54000061 	b.ne	824b0 <cli_cmd_exec+0x138>  // b.any
   824a8:	94000171 	bl	82a6c <do_cmd_simple_malloc>
   824ac:	1400005a 	b	82614 <cli_cmd_exec+0x29c>
   824b0:	90000020 	adrp	x0, 86000 <el1t_irq_invalid+0x74>
   824b4:	911a6001 	add	x1, x0, #0x698
   824b8:	f9401be0 	ldr	x0, [sp, #48]
   824bc:	94000ba6 	bl	85354 <strcmp>
   824c0:	7100001f 	cmp	w0, #0x0
   824c4:	54000081 	b.ne	824d4 <cli_cmd_exec+0x15c>  // b.any
   824c8:	f9401fe0 	ldr	x0, [sp, #56]
   824cc:	94000191 	bl	82b10 <do_cmd_ls>
   824d0:	14000051 	b	82614 <cli_cmd_exec+0x29c>
   824d4:	90000020 	adrp	x0, 86000 <el1t_irq_invalid+0x74>
   824d8:	911a8001 	add	x1, x0, #0x6a0
   824dc:	f9401be0 	ldr	x0, [sp, #48]
   824e0:	94000b9d 	bl	85354 <strcmp>
   824e4:	7100001f 	cmp	w0, #0x0
   824e8:	54000081 	b.ne	824f8 <cli_cmd_exec+0x180>  // b.any
   824ec:	f9401fe0 	ldr	x0, [sp, #56]
   824f0:	97ffff07 	bl	8210c <do_cmd_exec>
   824f4:	14000048 	b	82614 <cli_cmd_exec+0x29c>
   824f8:	90000020 	adrp	x0, 86000 <el1t_irq_invalid+0x74>
   824fc:	911aa001 	add	x1, x0, #0x6a8
   82500:	f9401be0 	ldr	x0, [sp, #48]
   82504:	94000b94 	bl	85354 <strcmp>
   82508:	7100001f 	cmp	w0, #0x0
   8250c:	54000061 	b.ne	82518 <cli_cmd_exec+0x1a0>  // b.any
   82510:	940001a5 	bl	82ba4 <do_cmd_reboot>
   82514:	14000040 	b	82614 <cli_cmd_exec+0x29c>
   82518:	90000020 	adrp	x0, 86000 <el1t_irq_invalid+0x74>
   8251c:	911ac001 	add	x1, x0, #0x6b0
   82520:	f9401be0 	ldr	x0, [sp, #48]
   82524:	94000b8c 	bl	85354 <strcmp>
   82528:	7100001f 	cmp	w0, #0x0
   8252c:	540000a1 	b.ne	82540 <cli_cmd_exec+0x1c8>  // b.any
   82530:	90000020 	adrp	x0, 86000 <el1t_irq_invalid+0x74>
   82534:	911b0000 	add	x0, x0, #0x6c0
   82538:	940001b1 	bl	82bfc <do_cmd_set2sTimer>
   8253c:	14000036 	b	82614 <cli_cmd_exec+0x29c>
   82540:	90000020 	adrp	x0, 86000 <el1t_irq_invalid+0x74>
   82544:	911b4001 	add	x1, x0, #0x6d0
   82548:	f9401be0 	ldr	x0, [sp, #48]
   8254c:	94000b82 	bl	85354 <strcmp>
   82550:	7100001f 	cmp	w0, #0x0
   82554:	54000141 	b.ne	8257c <cli_cmd_exec+0x204>  // b.any
   82558:	f9401fe0 	ldr	x0, [sp, #56]
   8255c:	94000c4f 	bl	85698 <str_SepbySpace>
   82560:	f90017e0 	str	x0, [sp, #40]
   82564:	f94017e0 	ldr	x0, [sp, #40]
   82568:	94000c66 	bl	85700 <atoi>
   8256c:	2a0003e1 	mov	w1, w0
   82570:	f9401fe0 	ldr	x0, [sp, #56]
   82574:	940001bb 	bl	82c60 <do_cmd_setTimer>
   82578:	14000027 	b	82614 <cli_cmd_exec+0x29c>
   8257c:	90000020 	adrp	x0, 86000 <el1t_irq_invalid+0x74>
   82580:	911b8001 	add	x1, x0, #0x6e0
   82584:	f9401be0 	ldr	x0, [sp, #48]
   82588:	94000b73 	bl	85354 <strcmp>
   8258c:	7100001f 	cmp	w0, #0x0
   82590:	54000061 	b.ne	8259c <cli_cmd_exec+0x224>  // b.any
   82594:	94000022 	bl	8261c <do_cmd_testAsyncUart>
   82598:	1400001f 	b	82614 <cli_cmd_exec+0x29c>
   8259c:	90000020 	adrp	x0, 86000 <el1t_irq_invalid+0x74>
   825a0:	911bc001 	add	x1, x0, #0x6f0
   825a4:	f9401be0 	ldr	x0, [sp, #48]
   825a8:	94000b6b 	bl	85354 <strcmp>
   825ac:	7100001f 	cmp	w0, #0x0
   825b0:	54000061 	b.ne	825bc <cli_cmd_exec+0x244>  // b.any
   825b4:	940001bc 	bl	82ca4 <do_cmd_mem_test>
   825b8:	14000017 	b	82614 <cli_cmd_exec+0x29c>
   825bc:	90000020 	adrp	x0, 86000 <el1t_irq_invalid+0x74>
   825c0:	911c0001 	add	x1, x0, #0x700
   825c4:	f9401be0 	ldr	x0, [sp, #48]
   825c8:	94000b63 	bl	85354 <strcmp>
   825cc:	7100001f 	cmp	w0, #0x0
   825d0:	54000061 	b.ne	825dc <cli_cmd_exec+0x264>  // b.any
   825d4:	9400022d 	bl	82e88 <do_cmd_thread_test>
   825d8:	1400000f 	b	82614 <cli_cmd_exec+0x29c>
   825dc:	90000020 	adrp	x0, 86000 <el1t_irq_invalid+0x74>
   825e0:	911c4001 	add	x1, x0, #0x710
   825e4:	f9401be0 	ldr	x0, [sp, #48]
   825e8:	94000b5b 	bl	85354 <strcmp>
   825ec:	7100001f 	cmp	w0, #0x0
   825f0:	54000061 	b.ne	825fc <cli_cmd_exec+0x284>  // b.any
   825f4:	9400023b 	bl	82ee0 <do_cmd_syscall_test>
   825f8:	14000007 	b	82614 <cli_cmd_exec+0x29c>
   825fc:	f9401be1 	ldr	x1, [sp, #48]
   82600:	90000020 	adrp	x0, 86000 <el1t_irq_invalid+0x74>
   82604:	911c8000 	add	x0, x0, #0x720
   82608:	940008a8 	bl	848a8 <uart_sendline>
   8260c:	14000002 	b	82614 <cli_cmd_exec+0x29c>
   82610:	d503201f 	nop
   82614:	a8c47bfd 	ldp	x29, x30, [sp], #64
   82618:	d65f03c0 	ret

000000000008261c <do_cmd_testAsyncUart>:
   8261c:	a9b67bfd 	stp	x29, x30, [sp, #-160]!
   82620:	910003fd 	mov	x29, sp
   82624:	90000020 	adrp	x0, 86000 <el1t_irq_invalid+0x74>
   82628:	911ce000 	add	x0, x0, #0x738
   8262c:	9400089f 	bl	848a8 <uart_sendline>
   82630:	b9009fff 	str	wzr, [sp, #156]
   82634:	1400000d 	b	82668 <do_cmd_testAsyncUart+0x4c>
   82638:	94000955 	bl	84b8c <uart_async_getc>
   8263c:	39025fe0 	strb	w0, [sp, #151]
   82640:	b9409fe0 	ldr	w0, [sp, #156]
   82644:	11000401 	add	w1, w0, #0x1
   82648:	b9009fe1 	str	w1, [sp, #156]
   8264c:	93407c00 	sxtw	x0, w0
   82650:	910043e1 	add	x1, sp, #0x10
   82654:	39425fe2 	ldrb	w2, [sp, #151]
   82658:	38206822 	strb	w2, [x1, x0]
   8265c:	39425fe0 	ldrb	w0, [sp, #151]
   82660:	7100281f 	cmp	w0, #0xa
   82664:	540000a0 	b.eq	82678 <do_cmd_testAsyncUart+0x5c>  // b.none
   82668:	b9409fe0 	ldr	w0, [sp, #156]
   8266c:	7101fc1f 	cmp	w0, #0x7f
   82670:	54fffe4d 	b.le	82638 <do_cmd_testAsyncUart+0x1c>
   82674:	14000002 	b	8267c <do_cmd_testAsyncUart+0x60>
   82678:	d503201f 	nop
   8267c:	394043e0 	ldrb	w0, [sp, #16]
   82680:	7101c41f 	cmp	w0, #0x71
   82684:	54000081 	b.ne	82694 <do_cmd_testAsyncUart+0x78>  // b.any
   82688:	394047e0 	ldrb	w0, [sp, #17]
   8268c:	7100281f 	cmp	w0, #0xa
   82690:	54000260 	b.eq	826dc <do_cmd_testAsyncUart+0xc0>  // b.none
   82694:	b9009bff 	str	wzr, [sp, #152]
   82698:	14000008 	b	826b8 <do_cmd_testAsyncUart+0x9c>
   8269c:	b9809be0 	ldrsw	x0, [sp, #152]
   826a0:	910043e1 	add	x1, sp, #0x10
   826a4:	38606820 	ldrb	w0, [x1, x0]
   826a8:	94000913 	bl	84af4 <uart_async_putc>
   826ac:	b9409be0 	ldr	w0, [sp, #152]
   826b0:	11000400 	add	w0, w0, #0x1
   826b4:	b9009be0 	str	w0, [sp, #152]
   826b8:	b9409be1 	ldr	w1, [sp, #152]
   826bc:	b9409fe0 	ldr	w0, [sp, #156]
   826c0:	6b00003f 	cmp	w1, w0
   826c4:	54fffecb 	b.lt	8269c <do_cmd_testAsyncUart+0x80>  // b.tstop
   826c8:	528001a0 	mov	w0, #0xd                   	// #13
   826cc:	9400090a 	bl	84af4 <uart_async_putc>
   826d0:	52800140 	mov	w0, #0xa                   	// #10
   826d4:	94000908 	bl	84af4 <uart_async_putc>
   826d8:	17ffffd3 	b	82624 <do_cmd_testAsyncUart+0x8>
   826dc:	d503201f 	nop
   826e0:	a8ca7bfd 	ldp	x29, x30, [sp], #160
   826e4:	d65f03c0 	ret

00000000000826e8 <cli_print_banner>:
   826e8:	a9bf7bfd 	stp	x29, x30, [sp, #-16]!
   826ec:	910003fd 	mov	x29, sp
   826f0:	90000020 	adrp	x0, 86000 <el1t_irq_invalid+0x74>
   826f4:	911d4000 	add	x0, x0, #0x750
   826f8:	9400086c 	bl	848a8 <uart_sendline>
   826fc:	90000020 	adrp	x0, 86000 <el1t_irq_invalid+0x74>
   82700:	911e0000 	add	x0, x0, #0x780
   82704:	94000869 	bl	848a8 <uart_sendline>
   82708:	90000020 	adrp	x0, 86000 <el1t_irq_invalid+0x74>
   8270c:	911d4000 	add	x0, x0, #0x750
   82710:	94000866 	bl	848a8 <uart_sendline>
   82714:	d503201f 	nop
   82718:	a8c17bfd 	ldp	x29, x30, [sp], #16
   8271c:	d65f03c0 	ret

0000000000082720 <do_cmd_cat>:
   82720:	a9bb7bfd 	stp	x29, x30, [sp, #-80]!
   82724:	910003fd 	mov	x29, sp
   82728:	f9000fe0 	str	x0, [sp, #24]
   8272c:	d0000020 	adrp	x0, 88000 <cmd_list+0x758>
   82730:	91282000 	add	x0, x0, #0xa08
   82734:	f9400000 	ldr	x0, [x0]
   82738:	f90017e0 	str	x0, [sp, #40]
   8273c:	14000021 	b	827c0 <do_cmd_cat+0xa0>
   82740:	f94017e0 	ldr	x0, [sp, #40]
   82744:	9100a3e4 	add	x4, sp, #0x28
   82748:	9100e3e3 	add	x3, sp, #0x38
   8274c:	9100d3e2 	add	x2, sp, #0x34
   82750:	910103e1 	add	x1, sp, #0x40
   82754:	97fff69c 	bl	801c4 <cpio_newc_parse_header>
   82758:	b9004fe0 	str	w0, [sp, #76]
   8275c:	b9404fe0 	ldr	w0, [sp, #76]
   82760:	7100001f 	cmp	w0, #0x0
   82764:	540000a0 	b.eq	82778 <do_cmd_cat+0x58>  // b.none
   82768:	90000020 	adrp	x0, 86000 <el1t_irq_invalid+0x74>
   8276c:	91188000 	add	x0, x0, #0x620
   82770:	9400084e 	bl	848a8 <uart_sendline>
   82774:	14000016 	b	827cc <do_cmd_cat+0xac>
   82778:	f94023e0 	ldr	x0, [sp, #64]
   8277c:	f9400fe1 	ldr	x1, [sp, #24]
   82780:	94000af5 	bl	85354 <strcmp>
   82784:	7100001f 	cmp	w0, #0x0
   82788:	540000e1 	b.ne	827a4 <do_cmd_cat+0x84>  // b.any
   8278c:	f9401fe0 	ldr	x0, [sp, #56]
   82790:	aa0003e1 	mov	x1, x0
   82794:	90000020 	adrp	x0, 86000 <el1t_irq_invalid+0x74>
   82798:	911ec000 	add	x0, x0, #0x7b0
   8279c:	94000843 	bl	848a8 <uart_sendline>
   827a0:	1400000b 	b	827cc <do_cmd_cat+0xac>
   827a4:	f94017e0 	ldr	x0, [sp, #40]
   827a8:	f100001f 	cmp	x0, #0x0
   827ac:	540000a1 	b.ne	827c0 <do_cmd_cat+0xa0>  // b.any
   827b0:	f9400fe1 	ldr	x1, [sp, #24]
   827b4:	90000020 	adrp	x0, 86000 <el1t_irq_invalid+0x74>
   827b8:	911ee000 	add	x0, x0, #0x7b8
   827bc:	9400083b 	bl	848a8 <uart_sendline>
   827c0:	f94017e0 	ldr	x0, [sp, #40]
   827c4:	f100001f 	cmp	x0, #0x0
   827c8:	54fffbc1 	b.ne	82740 <do_cmd_cat+0x20>  // b.any
   827cc:	90000020 	adrp	x0, 86000 <el1t_irq_invalid+0x74>
   827d0:	911f8000 	add	x0, x0, #0x7e0
   827d4:	94000835 	bl	848a8 <uart_sendline>
   827d8:	d503201f 	nop
   827dc:	a8c57bfd 	ldp	x29, x30, [sp], #80
   827e0:	d65f03c0 	ret

00000000000827e4 <do_cmd_dtb>:
   827e4:	a9bf7bfd 	stp	x29, x30, [sp, #-16]!
   827e8:	910003fd 	mov	x29, sp
   827ec:	d0000020 	adrp	x0, 88000 <cmd_list+0x758>
   827f0:	f9440400 	ldr	x0, [x0, #2056]
   827f4:	f9400002 	ldr	x2, [x0]
   827f8:	d0000020 	adrp	x0, 88000 <cmd_list+0x758>
   827fc:	f9441401 	ldr	x1, [x0, #2088]
   82800:	aa0203e0 	mov	x0, x2
   82804:	97fff717 	bl	80460 <traverse_device_tree>
   82808:	d503201f 	nop
   8280c:	a8c17bfd 	ldp	x29, x30, [sp], #16
   82810:	d65f03c0 	ret

0000000000082814 <do_cmd_help>:
   82814:	a9be7bfd 	stp	x29, x30, [sp, #-32]!
   82818:	910003fd 	mov	x29, sp
   8281c:	b9001fff 	str	wzr, [sp, #28]
   82820:	14000017 	b	8287c <do_cmd_help+0x68>
   82824:	b9801fe0 	ldrsw	x0, [sp, #28]
   82828:	d378dc01 	lsl	x1, x0, #8
   8282c:	b0000020 	adrp	x0, 87000 <load_context+0xc68>
   82830:	9122a000 	add	x0, x0, #0x8a8
   82834:	8b000020 	add	x0, x1, x0
   82838:	9400081c 	bl	848a8 <uart_sendline>
   8283c:	90000020 	adrp	x0, 86000 <el1t_irq_invalid+0x74>
   82840:	911fa000 	add	x0, x0, #0x7e8
   82844:	94000819 	bl	848a8 <uart_sendline>
   82848:	b9801fe0 	ldrsw	x0, [sp, #28]
   8284c:	d378dc00 	lsl	x0, x0, #8
   82850:	91020001 	add	x1, x0, #0x80
   82854:	b0000020 	adrp	x0, 87000 <load_context+0xc68>
   82858:	9122a000 	add	x0, x0, #0x8a8
   8285c:	8b000020 	add	x0, x1, x0
   82860:	94000812 	bl	848a8 <uart_sendline>
   82864:	90000020 	adrp	x0, 86000 <el1t_irq_invalid+0x74>
   82868:	911fc000 	add	x0, x0, #0x7f0
   8286c:	9400080f 	bl	848a8 <uart_sendline>
   82870:	b9401fe0 	ldr	w0, [sp, #28]
   82874:	11000400 	add	w0, w0, #0x1
   82878:	b9001fe0 	str	w0, [sp, #28]
   8287c:	b9401fe0 	ldr	w0, [sp, #28]
   82880:	7100381f 	cmp	w0, #0xe
   82884:	54fffd0d 	b.le	82824 <do_cmd_help+0x10>
   82888:	d503201f 	nop
   8288c:	d503201f 	nop
   82890:	a8c27bfd 	ldp	x29, x30, [sp], #32
   82894:	d65f03c0 	ret

0000000000082898 <do_cmd_hello>:
   82898:	a9bf7bfd 	stp	x29, x30, [sp, #-16]!
   8289c:	910003fd 	mov	x29, sp
   828a0:	90000020 	adrp	x0, 86000 <el1t_irq_invalid+0x74>
   828a4:	911fe000 	add	x0, x0, #0x7f8
   828a8:	94000800 	bl	848a8 <uart_sendline>
   828ac:	d503201f 	nop
   828b0:	a8c17bfd 	ldp	x29, x30, [sp], #16
   828b4:	d65f03c0 	ret

00000000000828b8 <do_cmd_info>:
   828b8:	a9bf7bfd 	stp	x29, x30, [sp, #-16]!
   828bc:	910003fd 	mov	x29, sp
   828c0:	d0000020 	adrp	x0, 88000 <cmd_list+0x758>
   828c4:	f943e000 	ldr	x0, [x0, #1984]
   828c8:	52800401 	mov	w1, #0x20                  	// #32
   828cc:	b9000001 	str	w1, [x0]
   828d0:	d0000020 	adrp	x0, 88000 <cmd_list+0x758>
   828d4:	f943e000 	ldr	x0, [x0, #1984]
   828d8:	b900041f 	str	wzr, [x0, #4]
   828dc:	d0000020 	adrp	x0, 88000 <cmd_list+0x758>
   828e0:	f943e000 	ldr	x0, [x0, #1984]
   828e4:	52800041 	mov	w1, #0x2                   	// #2
   828e8:	72a00021 	movk	w1, #0x1, lsl #16
   828ec:	b9000801 	str	w1, [x0, #8]
   828f0:	d0000020 	adrp	x0, 88000 <cmd_list+0x758>
   828f4:	f943e000 	ldr	x0, [x0, #1984]
   828f8:	52800081 	mov	w1, #0x4                   	// #4
   828fc:	b9000c01 	str	w1, [x0, #12]
   82900:	d0000020 	adrp	x0, 88000 <cmd_list+0x758>
   82904:	f943e000 	ldr	x0, [x0, #1984]
   82908:	b900101f 	str	wzr, [x0, #16]
   8290c:	d0000020 	adrp	x0, 88000 <cmd_list+0x758>
   82910:	f943e000 	ldr	x0, [x0, #1984]
   82914:	b900141f 	str	wzr, [x0, #20]
   82918:	d0000020 	adrp	x0, 88000 <cmd_list+0x758>
   8291c:	f943e000 	ldr	x0, [x0, #1984]
   82920:	b900181f 	str	wzr, [x0, #24]
   82924:	d0000020 	adrp	x0, 88000 <cmd_list+0x758>
   82928:	f943e000 	ldr	x0, [x0, #1984]
   8292c:	b9001c1f 	str	wzr, [x0, #28]
   82930:	d0000020 	adrp	x0, 88000 <cmd_list+0x758>
   82934:	f943e000 	ldr	x0, [x0, #1984]
   82938:	2a0003e1 	mov	w1, w0
   8293c:	52800100 	mov	w0, #0x8                   	// #8
   82940:	97fff9fd 	bl	81134 <k_mbox_call>
   82944:	7100001f 	cmp	w0, #0x0
   82948:	540001e0 	b.eq	82984 <do_cmd_info+0xcc>  // b.none
   8294c:	90000020 	adrp	x0, 86000 <el1t_irq_invalid+0x74>
   82950:	91202000 	add	x0, x0, #0x808
   82954:	940007d5 	bl	848a8 <uart_sendline>
   82958:	d0000020 	adrp	x0, 88000 <cmd_list+0x758>
   8295c:	f943e000 	ldr	x0, [x0, #1984]
   82960:	b9401800 	ldr	w0, [x0, #24]
   82964:	940007b0 	bl	84824 <uart_2hex>
   82968:	d0000020 	adrp	x0, 88000 <cmd_list+0x758>
   8296c:	f943e000 	ldr	x0, [x0, #1984]
   82970:	b9401400 	ldr	w0, [x0, #20]
   82974:	940007ac 	bl	84824 <uart_2hex>
   82978:	90000020 	adrp	x0, 86000 <el1t_irq_invalid+0x74>
   8297c:	911fc000 	add	x0, x0, #0x7f0
   82980:	940007ca 	bl	848a8 <uart_sendline>
   82984:	d0000020 	adrp	x0, 88000 <cmd_list+0x758>
   82988:	f943e000 	ldr	x0, [x0, #1984]
   8298c:	52800401 	mov	w1, #0x20                  	// #32
   82990:	b9000001 	str	w1, [x0]
   82994:	d0000020 	adrp	x0, 88000 <cmd_list+0x758>
   82998:	f943e000 	ldr	x0, [x0, #1984]
   8299c:	b900041f 	str	wzr, [x0, #4]
   829a0:	d0000020 	adrp	x0, 88000 <cmd_list+0x758>
   829a4:	f943e000 	ldr	x0, [x0, #1984]
   829a8:	528000a1 	mov	w1, #0x5                   	// #5
   829ac:	72a00021 	movk	w1, #0x1, lsl #16
   829b0:	b9000801 	str	w1, [x0, #8]
   829b4:	d0000020 	adrp	x0, 88000 <cmd_list+0x758>
   829b8:	f943e000 	ldr	x0, [x0, #1984]
   829bc:	52800101 	mov	w1, #0x8                   	// #8
   829c0:	b9000c01 	str	w1, [x0, #12]
   829c4:	d0000020 	adrp	x0, 88000 <cmd_list+0x758>
   829c8:	f943e000 	ldr	x0, [x0, #1984]
   829cc:	b900101f 	str	wzr, [x0, #16]
   829d0:	d0000020 	adrp	x0, 88000 <cmd_list+0x758>
   829d4:	f943e000 	ldr	x0, [x0, #1984]
   829d8:	b900141f 	str	wzr, [x0, #20]
   829dc:	d0000020 	adrp	x0, 88000 <cmd_list+0x758>
   829e0:	f943e000 	ldr	x0, [x0, #1984]
   829e4:	b900181f 	str	wzr, [x0, #24]
   829e8:	d0000020 	adrp	x0, 88000 <cmd_list+0x758>
   829ec:	f943e000 	ldr	x0, [x0, #1984]
   829f0:	b9001c1f 	str	wzr, [x0, #28]
   829f4:	d0000020 	adrp	x0, 88000 <cmd_list+0x758>
   829f8:	f943e000 	ldr	x0, [x0, #1984]
   829fc:	2a0003e1 	mov	w1, w0
   82a00:	52800100 	mov	w0, #0x8                   	// #8
   82a04:	97fff9cc 	bl	81134 <k_mbox_call>
   82a08:	7100001f 	cmp	w0, #0x0
   82a0c:	540002a0 	b.eq	82a60 <do_cmd_info+0x1a8>  // b.none
   82a10:	90000020 	adrp	x0, 86000 <el1t_irq_invalid+0x74>
   82a14:	91208000 	add	x0, x0, #0x820
   82a18:	940007a4 	bl	848a8 <uart_sendline>
   82a1c:	d0000020 	adrp	x0, 88000 <cmd_list+0x758>
   82a20:	f943e000 	ldr	x0, [x0, #1984]
   82a24:	b9401400 	ldr	w0, [x0, #20]
   82a28:	9400077f 	bl	84824 <uart_2hex>
   82a2c:	90000020 	adrp	x0, 86000 <el1t_irq_invalid+0x74>
   82a30:	911fc000 	add	x0, x0, #0x7f0
   82a34:	9400079d 	bl	848a8 <uart_sendline>
   82a38:	90000020 	adrp	x0, 86000 <el1t_irq_invalid+0x74>
   82a3c:	91210000 	add	x0, x0, #0x840
   82a40:	9400079a 	bl	848a8 <uart_sendline>
   82a44:	d0000020 	adrp	x0, 88000 <cmd_list+0x758>
   82a48:	f943e000 	ldr	x0, [x0, #1984]
   82a4c:	b9401800 	ldr	w0, [x0, #24]
   82a50:	94000775 	bl	84824 <uart_2hex>
   82a54:	90000020 	adrp	x0, 86000 <el1t_irq_invalid+0x74>
   82a58:	911fc000 	add	x0, x0, #0x7f0
   82a5c:	94000793 	bl	848a8 <uart_sendline>
   82a60:	d503201f 	nop
   82a64:	a8c17bfd 	ldp	x29, x30, [sp], #16
   82a68:	d65f03c0 	ret

0000000000082a6c <do_cmd_simple_malloc>:
   82a6c:	a9bd7bfd 	stp	x29, x30, [sp, #-48]!
   82a70:	910003fd 	mov	x29, sp
   82a74:	52800300 	mov	w0, #0x18                  	// #24
   82a78:	97fff9de 	bl	811f0 <simple_malloc>
   82a7c:	f90017e0 	str	x0, [sp, #40]
   82a80:	d28001a2 	mov	x2, #0xd                   	// #13
   82a84:	90000020 	adrp	x0, 86000 <el1t_irq_invalid+0x74>
   82a88:	91216001 	add	x1, x0, #0x858
   82a8c:	f94017e0 	ldr	x0, [sp, #40]
   82a90:	94000adc 	bl	85600 <memcpy>
   82a94:	f94017e1 	ldr	x1, [sp, #40]
   82a98:	90000020 	adrp	x0, 86000 <el1t_irq_invalid+0x74>
   82a9c:	9121a000 	add	x0, x0, #0x868
   82aa0:	94000782 	bl	848a8 <uart_sendline>
   82aa4:	52800400 	mov	w0, #0x20                  	// #32
   82aa8:	97fff9d2 	bl	811f0 <simple_malloc>
   82aac:	f90013e0 	str	x0, [sp, #32]
   82ab0:	d28001a2 	mov	x2, #0xd                   	// #13
   82ab4:	90000020 	adrp	x0, 86000 <el1t_irq_invalid+0x74>
   82ab8:	9121c001 	add	x1, x0, #0x870
   82abc:	f94013e0 	ldr	x0, [sp, #32]
   82ac0:	94000ad0 	bl	85600 <memcpy>
   82ac4:	f94013e1 	ldr	x1, [sp, #32]
   82ac8:	90000020 	adrp	x0, 86000 <el1t_irq_invalid+0x74>
   82acc:	9121a000 	add	x0, x0, #0x868
   82ad0:	94000776 	bl	848a8 <uart_sendline>
   82ad4:	52800500 	mov	w0, #0x28                  	// #40
   82ad8:	97fff9c6 	bl	811f0 <simple_malloc>
   82adc:	f9000fe0 	str	x0, [sp, #24]
   82ae0:	d28001a2 	mov	x2, #0xd                   	// #13
   82ae4:	90000020 	adrp	x0, 86000 <el1t_irq_invalid+0x74>
   82ae8:	91220001 	add	x1, x0, #0x880
   82aec:	f9400fe0 	ldr	x0, [sp, #24]
   82af0:	94000ac4 	bl	85600 <memcpy>
   82af4:	f9400fe1 	ldr	x1, [sp, #24]
   82af8:	90000020 	adrp	x0, 86000 <el1t_irq_invalid+0x74>
   82afc:	9121a000 	add	x0, x0, #0x868
   82b00:	9400076a 	bl	848a8 <uart_sendline>
   82b04:	d503201f 	nop
   82b08:	a8c37bfd 	ldp	x29, x30, [sp], #48
   82b0c:	d65f03c0 	ret

0000000000082b10 <do_cmd_ls>:
   82b10:	a9bb7bfd 	stp	x29, x30, [sp, #-80]!
   82b14:	910003fd 	mov	x29, sp
   82b18:	f9000fe0 	str	x0, [sp, #24]
   82b1c:	d0000020 	adrp	x0, 88000 <cmd_list+0x758>
   82b20:	91282000 	add	x0, x0, #0xa08
   82b24:	f9400000 	ldr	x0, [x0]
   82b28:	f90017e0 	str	x0, [sp, #40]
   82b2c:	14000017 	b	82b88 <do_cmd_ls+0x78>
   82b30:	f94017e0 	ldr	x0, [sp, #40]
   82b34:	9100a3e4 	add	x4, sp, #0x28
   82b38:	9100e3e3 	add	x3, sp, #0x38
   82b3c:	9100d3e2 	add	x2, sp, #0x34
   82b40:	910103e1 	add	x1, sp, #0x40
   82b44:	97fff5a0 	bl	801c4 <cpio_newc_parse_header>
   82b48:	b9004fe0 	str	w0, [sp, #76]
   82b4c:	b9404fe0 	ldr	w0, [sp, #76]
   82b50:	7100001f 	cmp	w0, #0x0
   82b54:	540000a0 	b.eq	82b68 <do_cmd_ls+0x58>  // b.none
   82b58:	90000020 	adrp	x0, 86000 <el1t_irq_invalid+0x74>
   82b5c:	91188000 	add	x0, x0, #0x620
   82b60:	94000752 	bl	848a8 <uart_sendline>
   82b64:	1400000d 	b	82b98 <do_cmd_ls+0x88>
   82b68:	f94017e0 	ldr	x0, [sp, #40]
   82b6c:	f100001f 	cmp	x0, #0x0
   82b70:	540000c0 	b.eq	82b88 <do_cmd_ls+0x78>  // b.none
   82b74:	f94023e0 	ldr	x0, [sp, #64]
   82b78:	aa0003e1 	mov	x1, x0
   82b7c:	90000020 	adrp	x0, 86000 <el1t_irq_invalid+0x74>
   82b80:	9121a000 	add	x0, x0, #0x868
   82b84:	94000749 	bl	848a8 <uart_sendline>
   82b88:	f94017e0 	ldr	x0, [sp, #40]
   82b8c:	f100001f 	cmp	x0, #0x0
   82b90:	54fffd01 	b.ne	82b30 <do_cmd_ls+0x20>  // b.any
   82b94:	d503201f 	nop
   82b98:	d503201f 	nop
   82b9c:	a8c57bfd 	ldp	x29, x30, [sp], #80
   82ba0:	d65f03c0 	ret

0000000000082ba4 <do_cmd_reboot>:
   82ba4:	a9be7bfd 	stp	x29, x30, [sp, #-32]!
   82ba8:	910003fd 	mov	x29, sp
   82bac:	90000020 	adrp	x0, 86000 <el1t_irq_invalid+0x74>
   82bb0:	91224000 	add	x0, x0, #0x890
   82bb4:	9400073d 	bl	848a8 <uart_sendline>
   82bb8:	d2800380 	mov	x0, #0x1c                  	// #28
   82bbc:	f2a7e200 	movk	x0, #0x3f10, lsl #16
   82bc0:	f9000fe0 	str	x0, [sp, #24]
   82bc4:	f9400fe0 	ldr	x0, [sp, #24]
   82bc8:	52800401 	mov	w1, #0x20                  	// #32
   82bcc:	72ab4001 	movk	w1, #0x5a00, lsl #16
   82bd0:	b9000001 	str	w1, [x0]
   82bd4:	d2800480 	mov	x0, #0x24                  	// #36
   82bd8:	f2a7e200 	movk	x0, #0x3f10, lsl #16
   82bdc:	f9000be0 	str	x0, [sp, #16]
   82be0:	f9400be0 	ldr	x0, [sp, #16]
   82be4:	528000a1 	mov	w1, #0x5                   	// #5
   82be8:	72ab4001 	movk	w1, #0x5a00, lsl #16
   82bec:	b9000001 	str	w1, [x0]
   82bf0:	d503201f 	nop
   82bf4:	a8c27bfd 	ldp	x29, x30, [sp], #32
   82bf8:	d65f03c0 	ret

0000000000082bfc <do_cmd_set2sTimer>:
   82bfc:	a9bd7bfd 	stp	x29, x30, [sp, #-48]!
   82c00:	910003fd 	mov	x29, sp
   82c04:	f9000fe0 	str	x0, [sp, #24]
   82c08:	d53be020 	mrs	x0, cntpct_el0
   82c0c:	f90017e0 	str	x0, [sp, #40]
   82c10:	d53be000 	mrs	x0, cntfrq_el0
   82c14:	f90013e0 	str	x0, [sp, #32]
   82c18:	f94017e1 	ldr	x1, [sp, #40]
   82c1c:	f94013e0 	ldr	x0, [sp, #32]
   82c20:	9ac00c20 	sdiv	x0, x1, x0
   82c24:	aa0003e2 	mov	x2, x0
   82c28:	f9400fe1 	ldr	x1, [sp, #24]
   82c2c:	90000020 	adrp	x0, 86000 <el1t_irq_invalid+0x74>
   82c30:	9122c000 	add	x0, x0, #0x8b0
   82c34:	9400071d 	bl	848a8 <uart_sendline>
   82c38:	94000666 	bl	845d0 <getTimerFreq>
   82c3c:	d37ff800 	lsl	x0, x0, #1
   82c40:	aa0003e2 	mov	x2, x0
   82c44:	f9400fe1 	ldr	x1, [sp, #24]
   82c48:	90000000 	adrp	x0, 82000 <memory_reserve+0x160>
   82c4c:	912ff000 	add	x0, x0, #0xbfc
   82c50:	940005f1 	bl	84414 <add_timer>
   82c54:	d503201f 	nop
   82c58:	a8c37bfd 	ldp	x29, x30, [sp], #48
   82c5c:	d65f03c0 	ret

0000000000082c60 <do_cmd_setTimer>:
   82c60:	a9bd7bfd 	stp	x29, x30, [sp, #-48]!
   82c64:	910003fd 	mov	x29, sp
   82c68:	f9000bf3 	str	x19, [sp, #16]
   82c6c:	f90017e0 	str	x0, [sp, #40]
   82c70:	b90027e1 	str	w1, [sp, #36]
   82c74:	b98027f3 	ldrsw	x19, [sp, #36]
   82c78:	94000656 	bl	845d0 <getTimerFreq>
   82c7c:	9b007e60 	mul	x0, x19, x0
   82c80:	aa0003e2 	mov	x2, x0
   82c84:	f94017e1 	ldr	x1, [sp, #40]
   82c88:	d0000020 	adrp	x0, 88000 <cmd_list+0x758>
   82c8c:	f943e400 	ldr	x0, [x0, #1992]
   82c90:	940005e1 	bl	84414 <add_timer>
   82c94:	d503201f 	nop
   82c98:	f9400bf3 	ldr	x19, [sp, #16]
   82c9c:	a8c37bfd 	ldp	x29, x30, [sp], #48
   82ca0:	d65f03c0 	ret

0000000000082ca4 <do_cmd_mem_test>:
   82ca4:	a9b57bfd 	stp	x29, x30, [sp, #-176]!
   82ca8:	910003fd 	mov	x29, sp
   82cac:	52840000 	mov	w0, #0x2000                	// #8192
   82cb0:	72a00100 	movk	w0, #0x8, lsl #16
   82cb4:	97fffc54 	bl	81e04 <kmalloc>
   82cb8:	f90057e0 	str	x0, [sp, #168]
   82cbc:	52a00120 	mov	w0, #0x90000               	// #589824
   82cc0:	97fffc51 	bl	81e04 <kmalloc>
   82cc4:	f90053e0 	str	x0, [sp, #160]
   82cc8:	52a00400 	mov	w0, #0x200000              	// #2097152
   82ccc:	97fffc4e 	bl	81e04 <kmalloc>
   82cd0:	f9004fe0 	str	x0, [sp, #152]
   82cd4:	52a00720 	mov	w0, #0x390000              	// #3735552
   82cd8:	97fffc4b 	bl	81e04 <kmalloc>
   82cdc:	f9004be0 	str	x0, [sp, #144]
   82ce0:	f9404fe0 	ldr	x0, [sp, #152]
   82ce4:	97fffc58 	bl	81e44 <kfree>
   82ce8:	f9404be0 	ldr	x0, [sp, #144]
   82cec:	97fffc56 	bl	81e44 <kfree>
   82cf0:	f94057e0 	ldr	x0, [sp, #168]
   82cf4:	97fffc54 	bl	81e44 <kfree>
   82cf8:	f94053e0 	ldr	x0, [sp, #160]
   82cfc:	97fffc52 	bl	81e44 <kfree>
   82d00:	52820000 	mov	w0, #0x1000                	// #4096
   82d04:	97fffc40 	bl	81e04 <kmalloc>
   82d08:	f90047e0 	str	x0, [sp, #136]
   82d0c:	52a00020 	mov	w0, #0x10000               	// #65536
   82d10:	97fffc3d 	bl	81e04 <kmalloc>
   82d14:	f90043e0 	str	x0, [sp, #128]
   82d18:	52a00200 	mov	w0, #0x100000              	// #1048576
   82d1c:	97fffc3a 	bl	81e04 <kmalloc>
   82d20:	f9003fe0 	str	x0, [sp, #120]
   82d24:	f94047e0 	ldr	x0, [sp, #136]
   82d28:	97fffc47 	bl	81e44 <kfree>
   82d2c:	f94043e0 	ldr	x0, [sp, #128]
   82d30:	97fffc45 	bl	81e44 <kfree>
   82d34:	f9403fe0 	ldr	x0, [sp, #120]
   82d38:	97fffc43 	bl	81e44 <kfree>
   82d3c:	52800400 	mov	w0, #0x20                  	// #32
   82d40:	97fffc31 	bl	81e04 <kmalloc>
   82d44:	f90047e0 	str	x0, [sp, #136]
   82d48:	52800640 	mov	w0, #0x32                  	// #50
   82d4c:	97fffc2e 	bl	81e04 <kmalloc>
   82d50:	f9003be0 	str	x0, [sp, #112]
   82d54:	52800800 	mov	w0, #0x40                  	// #64
   82d58:	97fffc2b 	bl	81e04 <kmalloc>
   82d5c:	f90043e0 	str	x0, [sp, #128]
   82d60:	52800800 	mov	w0, #0x40                  	// #64
   82d64:	97fffc28 	bl	81e04 <kmalloc>
   82d68:	f90037e0 	str	x0, [sp, #104]
   82d6c:	52801000 	mov	w0, #0x80                  	// #128
   82d70:	97fffc25 	bl	81e04 <kmalloc>
   82d74:	f9003fe0 	str	x0, [sp, #120]
   82d78:	52801020 	mov	w0, #0x81                  	// #129
   82d7c:	97fffc22 	bl	81e04 <kmalloc>
   82d80:	f90033e0 	str	x0, [sp, #96]
   82d84:	52802000 	mov	w0, #0x100                 	// #256
   82d88:	97fffc1f 	bl	81e04 <kmalloc>
   82d8c:	f9002fe0 	str	x0, [sp, #88]
   82d90:	52802000 	mov	w0, #0x100                 	// #256
   82d94:	97fffc1c 	bl	81e04 <kmalloc>
   82d98:	f9002be0 	str	x0, [sp, #80]
   82d9c:	52804000 	mov	w0, #0x200                 	// #512
   82da0:	97fffc19 	bl	81e04 <kmalloc>
   82da4:	f90027e0 	str	x0, [sp, #72]
   82da8:	52807ce0 	mov	w0, #0x3e7                 	// #999
   82dac:	97fffc16 	bl	81e04 <kmalloc>
   82db0:	f90023e0 	str	x0, [sp, #64]
   82db4:	52840000 	mov	w0, #0x2000                	// #8192
   82db8:	97fffc13 	bl	81e04 <kmalloc>
   82dbc:	f9001fe0 	str	x0, [sp, #56]
   82dc0:	52840000 	mov	w0, #0x2000                	// #8192
   82dc4:	97fffc10 	bl	81e04 <kmalloc>
   82dc8:	f9001be0 	str	x0, [sp, #48]
   82dcc:	52840000 	mov	w0, #0x2000                	// #8192
   82dd0:	97fffc0d 	bl	81e04 <kmalloc>
   82dd4:	f90017e0 	str	x0, [sp, #40]
   82dd8:	52840000 	mov	w0, #0x2000                	// #8192
   82ddc:	97fffc0a 	bl	81e04 <kmalloc>
   82de0:	f90013e0 	str	x0, [sp, #32]
   82de4:	52840000 	mov	w0, #0x2000                	// #8192
   82de8:	97fffc07 	bl	81e04 <kmalloc>
   82dec:	f9000fe0 	str	x0, [sp, #24]
   82df0:	52840000 	mov	w0, #0x2000                	// #8192
   82df4:	97fffc04 	bl	81e04 <kmalloc>
   82df8:	f9000be0 	str	x0, [sp, #16]
   82dfc:	f94047e0 	ldr	x0, [sp, #136]
   82e00:	97fffc11 	bl	81e44 <kfree>
   82e04:	f9403be0 	ldr	x0, [sp, #112]
   82e08:	97fffc0f 	bl	81e44 <kfree>
   82e0c:	f94043e0 	ldr	x0, [sp, #128]
   82e10:	97fffc0d 	bl	81e44 <kfree>
   82e14:	f94037e0 	ldr	x0, [sp, #104]
   82e18:	97fffc0b 	bl	81e44 <kfree>
   82e1c:	f9403fe0 	ldr	x0, [sp, #120]
   82e20:	97fffc09 	bl	81e44 <kfree>
   82e24:	f94033e0 	ldr	x0, [sp, #96]
   82e28:	97fffc07 	bl	81e44 <kfree>
   82e2c:	f9402be0 	ldr	x0, [sp, #80]
   82e30:	97fffc05 	bl	81e44 <kfree>
   82e34:	f9402fe0 	ldr	x0, [sp, #88]
   82e38:	97fffc03 	bl	81e44 <kfree>
   82e3c:	f94027e0 	ldr	x0, [sp, #72]
   82e40:	97fffc01 	bl	81e44 <kfree>
   82e44:	f94023e0 	ldr	x0, [sp, #64]
   82e48:	97fffbff 	bl	81e44 <kfree>
   82e4c:	f9401fe0 	ldr	x0, [sp, #56]
   82e50:	97fffbfd 	bl	81e44 <kfree>
   82e54:	f9401be0 	ldr	x0, [sp, #48]
   82e58:	97fffbfb 	bl	81e44 <kfree>
   82e5c:	f94017e0 	ldr	x0, [sp, #40]
   82e60:	97fffbf9 	bl	81e44 <kfree>
   82e64:	f94013e0 	ldr	x0, [sp, #32]
   82e68:	97fffbf7 	bl	81e44 <kfree>
   82e6c:	f9400fe0 	ldr	x0, [sp, #24]
   82e70:	97fffbf5 	bl	81e44 <kfree>
   82e74:	f9400be0 	ldr	x0, [sp, #16]
   82e78:	97fffbf3 	bl	81e44 <kfree>
   82e7c:	d503201f 	nop
   82e80:	a8cb7bfd 	ldp	x29, x30, [sp], #176
   82e84:	d65f03c0 	ret

0000000000082e88 <do_cmd_thread_test>:
   82e88:	a9be7bfd 	stp	x29, x30, [sp, #-32]!
   82e8c:	910003fd 	mov	x29, sp
   82e90:	b9001fff 	str	wzr, [sp, #28]
   82e94:	1400000c 	b	82ec4 <do_cmd_thread_test+0x3c>
   82e98:	d0000020 	adrp	x0, 88000 <cmd_list+0x758>
   82e9c:	f9440800 	ldr	x0, [x0, #2064]
   82ea0:	9400039a 	bl	83d08 <thread_create>
   82ea4:	b9407800 	ldr	w0, [x0, #120]
   82ea8:	2a0003e1 	mov	w1, w0
   82eac:	90000020 	adrp	x0, 86000 <el1t_irq_invalid+0x74>
   82eb0:	9123a000 	add	x0, x0, #0x8e8
   82eb4:	9400067d 	bl	848a8 <uart_sendline>
   82eb8:	b9401fe0 	ldr	w0, [sp, #28]
   82ebc:	11000400 	add	w0, w0, #0x1
   82ec0:	b9001fe0 	str	w0, [sp, #28]
   82ec4:	b9401fe0 	ldr	w0, [sp, #28]
   82ec8:	7100101f 	cmp	w0, #0x4
   82ecc:	54fffe6d 	b.le	82e98 <do_cmd_thread_test+0x10>
   82ed0:	9400042d 	bl	83f84 <idle>
   82ed4:	d503201f 	nop
   82ed8:	a8c27bfd 	ldp	x29, x30, [sp], #32
   82edc:	d65f03c0 	ret

0000000000082ee0 <do_cmd_syscall_test>:
   82ee0:	a9bf7bfd 	stp	x29, x30, [sp, #-16]!
   82ee4:	910003fd 	mov	x29, sp
   82ee8:	b0000000 	adrp	x0, 83000 <test_mbox_call+0x2c>
   82eec:	9100d000 	add	x0, x0, #0x34
   82ef0:	94000386 	bl	83d08 <thread_create>
   82ef4:	94000424 	bl	83f84 <idle>
   82ef8:	d503201f 	nop
   82efc:	a8c17bfd 	ldp	x29, x30, [sp], #16
   82f00:	d65f03c0 	ret

0000000000082f04 <test_getpid>:
   82f04:	d10043ff 	sub	sp, sp, #0x10
   82f08:	b9000fff 	str	wzr, [sp, #12]
   82f0c:	d2800008 	mov	x8, #0x0                   	// #0
   82f10:	d4000001 	svc	#0x0
   82f14:	aa0003e0 	mov	x0, x0
   82f18:	b9000fe0 	str	w0, [sp, #12]
   82f1c:	b9400fe0 	ldr	w0, [sp, #12]
   82f20:	910043ff 	add	sp, sp, #0x10
   82f24:	d65f03c0 	ret

0000000000082f28 <test_uart_read>:
   82f28:	d10083ff 	sub	sp, sp, #0x20
   82f2c:	f90007e0 	str	x0, [sp, #8]
   82f30:	f90003e1 	str	x1, [sp]
   82f34:	b9001fff 	str	wzr, [sp, #28]
   82f38:	f94003e0 	ldr	x0, [sp]
   82f3c:	aa0003e1 	mov	x1, x0
   82f40:	f94007e0 	ldr	x0, [sp, #8]
   82f44:	aa0003e0 	mov	x0, x0
   82f48:	d2800028 	mov	x8, #0x1                   	// #1
   82f4c:	d4000001 	svc	#0x0
   82f50:	aa0003e0 	mov	x0, x0
   82f54:	b9001fe0 	str	w0, [sp, #28]
   82f58:	b9801fe0 	ldrsw	x0, [sp, #28]
   82f5c:	910083ff 	add	sp, sp, #0x20
   82f60:	d65f03c0 	ret

0000000000082f64 <test_uart_write>:
   82f64:	d10083ff 	sub	sp, sp, #0x20
   82f68:	f90007e0 	str	x0, [sp, #8]
   82f6c:	f90003e1 	str	x1, [sp]
   82f70:	b9001fff 	str	wzr, [sp, #28]
   82f74:	f94003e0 	ldr	x0, [sp]
   82f78:	aa0003e1 	mov	x1, x0
   82f7c:	f94007e0 	ldr	x0, [sp, #8]
   82f80:	aa0003e0 	mov	x0, x0
   82f84:	d2800048 	mov	x8, #0x2                   	// #2
   82f88:	d4000001 	svc	#0x0
   82f8c:	aa0003e0 	mov	x0, x0
   82f90:	b9001fe0 	str	w0, [sp, #28]
   82f94:	b9801fe0 	ldrsw	x0, [sp, #28]
   82f98:	910083ff 	add	sp, sp, #0x20
   82f9c:	d65f03c0 	ret

0000000000082fa0 <test_fork>:
   82fa0:	d10043ff 	sub	sp, sp, #0x10
   82fa4:	b9000fff 	str	wzr, [sp, #12]
   82fa8:	d2800088 	mov	x8, #0x4                   	// #4
   82fac:	d4000001 	svc	#0x0
   82fb0:	aa0003e0 	mov	x0, x0
   82fb4:	b9000fe0 	str	w0, [sp, #12]
   82fb8:	b9400fe0 	ldr	w0, [sp, #12]
   82fbc:	910043ff 	add	sp, sp, #0x10
   82fc0:	d65f03c0 	ret

0000000000082fc4 <test_exit>:
   82fc4:	d28000a8 	mov	x8, #0x5                   	// #5
   82fc8:	d4000001 	svc	#0x0
   82fcc:	d503201f 	nop
   82fd0:	d65f03c0 	ret

0000000000082fd4 <test_mbox_call>:
   82fd4:	d10083ff 	sub	sp, sp, #0x20
   82fd8:	39003fe0 	strb	w0, [sp, #15]
   82fdc:	f90003e1 	str	x1, [sp]
   82fe0:	b9001fff 	str	wzr, [sp, #28]
   82fe4:	f94003e0 	ldr	x0, [sp]
   82fe8:	aa0003e1 	mov	x1, x0
   82fec:	39403fe0 	ldrb	w0, [sp, #15]
   82ff0:	aa0003e0 	mov	x0, x0
   82ff4:	d28000c8 	mov	x8, #0x6                   	// #6
   82ff8:	d4000001 	svc	#0x0
   82ffc:	aa0003e0 	mov	x0, x0
   83000:	b9001fe0 	str	w0, [sp, #28]
   83004:	b9401fe0 	ldr	w0, [sp, #28]
   83008:	910083ff 	add	sp, sp, #0x20
   8300c:	d65f03c0 	ret

0000000000083010 <test_kill>:
   83010:	d10043ff 	sub	sp, sp, #0x10
   83014:	b9000fe0 	str	w0, [sp, #12]
   83018:	b9400fe0 	ldr	w0, [sp, #12]
   8301c:	aa0003e0 	mov	x0, x0
   83020:	d28000e8 	mov	x8, #0x7                   	// #7
   83024:	d4000001 	svc	#0x0
   83028:	d503201f 	nop
   8302c:	910043ff 	add	sp, sp, #0x10
   83030:	d65f03c0 	ret

0000000000083034 <fork_test>:
   83034:	a9b57bfd 	stp	x29, x30, [sp, #-176]!
   83038:	910003fd 	mov	x29, sp
   8303c:	94000ccc 	bl	8636c <get_current>
   83040:	940003aa 	bl	83ee8 <from_el1_to_el0>
   83044:	f0000000 	adrp	x0, 86000 <el1t_irq_invalid+0x74>
   83048:	9123e000 	add	x0, x0, #0x8f8
   8304c:	94000617 	bl	848a8 <uart_sendline>
   83050:	910083e0 	add	x0, sp, #0x20
   83054:	d28000a1 	mov	x1, #0x5                   	// #5
   83058:	97ffffb4 	bl	82f28 <test_uart_read>
   8305c:	910083e0 	add	x0, sp, #0x20
   83060:	d2801001 	mov	x1, #0x80                  	// #128
   83064:	97ffffc0 	bl	82f64 <test_uart_write>
   83068:	97ffffa7 	bl	82f04 <test_getpid>
   8306c:	2a0003e1 	mov	w1, w0
   83070:	f0000000 	adrp	x0, 86000 <el1t_irq_invalid+0x74>
   83074:	91242000 	add	x0, x0, #0x908
   83078:	9400060c 	bl	848a8 <uart_sendline>
   8307c:	52800020 	mov	w0, #0x1                   	// #1
   83080:	b9001fe0 	str	w0, [sp, #28]
   83084:	52807ce0 	mov	w0, #0x3e7                 	// #999
   83088:	b900abe0 	str	w0, [sp, #168]
   8308c:	97ffffc5 	bl	82fa0 <test_fork>
   83090:	b900abe0 	str	w0, [sp, #168]
   83094:	b940abe0 	ldr	w0, [sp, #168]
   83098:	7100001f 	cmp	w0, #0x0
   8309c:	54000861 	b.ne	831a8 <fork_test+0x174>  // b.any
   830a0:	910003e0 	mov	x0, sp
   830a4:	f90053e0 	str	x0, [sp, #160]
   830a8:	97ffff97 	bl	82f04 <test_getpid>
   830ac:	2a0003e5 	mov	w5, w0
   830b0:	b9401fe0 	ldr	w0, [sp, #28]
   830b4:	910073e1 	add	x1, sp, #0x1c
   830b8:	f94053e4 	ldr	x4, [sp, #160]
   830bc:	aa0103e3 	mov	x3, x1
   830c0:	2a0003e2 	mov	w2, w0
   830c4:	2a0503e1 	mov	w1, w5
   830c8:	f0000000 	adrp	x0, 86000 <el1t_irq_invalid+0x74>
   830cc:	91248000 	add	x0, x0, #0x920
   830d0:	940005f6 	bl	848a8 <uart_sendline>
   830d4:	b9401fe0 	ldr	w0, [sp, #28]
   830d8:	11000400 	add	w0, w0, #0x1
   830dc:	b9001fe0 	str	w0, [sp, #28]
   830e0:	97ffffb0 	bl	82fa0 <test_fork>
   830e4:	b900abe0 	str	w0, [sp, #168]
   830e8:	b940abe0 	ldr	w0, [sp, #168]
   830ec:	7100001f 	cmp	w0, #0x0
   830f0:	54000540 	b.eq	83198 <fork_test+0x164>  // b.none
   830f4:	910003e0 	mov	x0, sp
   830f8:	f90053e0 	str	x0, [sp, #160]
   830fc:	97ffff82 	bl	82f04 <test_getpid>
   83100:	2a0003e5 	mov	w5, w0
   83104:	b9401fe0 	ldr	w0, [sp, #28]
   83108:	910073e1 	add	x1, sp, #0x1c
   8310c:	f94053e4 	ldr	x4, [sp, #160]
   83110:	aa0103e3 	mov	x3, x1
   83114:	2a0003e2 	mov	w2, w0
   83118:	2a0503e1 	mov	w1, w5
   8311c:	f0000000 	adrp	x0, 86000 <el1t_irq_invalid+0x74>
   83120:	91248000 	add	x0, x0, #0x920
   83124:	940005e1 	bl	848a8 <uart_sendline>
   83128:	14000026 	b	831c0 <fork_test+0x18c>
   8312c:	910003e0 	mov	x0, sp
   83130:	f90053e0 	str	x0, [sp, #160]
   83134:	97ffff74 	bl	82f04 <test_getpid>
   83138:	2a0003e5 	mov	w5, w0
   8313c:	b9401fe0 	ldr	w0, [sp, #28]
   83140:	910073e1 	add	x1, sp, #0x1c
   83144:	f94053e4 	ldr	x4, [sp, #160]
   83148:	aa0103e3 	mov	x3, x1
   8314c:	2a0003e2 	mov	w2, w0
   83150:	2a0503e1 	mov	w1, w5
   83154:	f0000000 	adrp	x0, 86000 <el1t_irq_invalid+0x74>
   83158:	91254000 	add	x0, x0, #0x950
   8315c:	940005d3 	bl	848a8 <uart_sendline>
   83160:	b900afff 	str	wzr, [sp, #172]
   83164:	14000005 	b	83178 <fork_test+0x144>
   83168:	d503201f 	nop
   8316c:	b940afe0 	ldr	w0, [sp, #172]
   83170:	11000400 	add	w0, w0, #0x1
   83174:	b900afe0 	str	w0, [sp, #172]
   83178:	b940afe1 	ldr	w1, [sp, #172]
   8317c:	528847e0 	mov	w0, #0x423f                	// #16959
   83180:	72a001e0 	movk	w0, #0xf, lsl #16
   83184:	6b00003f 	cmp	w1, w0
   83188:	54ffff0d 	b.le	83168 <fork_test+0x134>
   8318c:	b9401fe0 	ldr	w0, [sp, #28]
   83190:	11000400 	add	w0, w0, #0x1
   83194:	b9001fe0 	str	w0, [sp, #28]
   83198:	b9401fe0 	ldr	w0, [sp, #28]
   8319c:	7100101f 	cmp	w0, #0x4
   831a0:	54fffc6d 	b.le	8312c <fork_test+0xf8>
   831a4:	14000007 	b	831c0 <fork_test+0x18c>
   831a8:	97ffff57 	bl	82f04 <test_getpid>
   831ac:	b940abe2 	ldr	w2, [sp, #168]
   831b0:	2a0003e1 	mov	w1, w0
   831b4:	f0000000 	adrp	x0, 86000 <el1t_irq_invalid+0x74>
   831b8:	91262000 	add	x0, x0, #0x988
   831bc:	940005bb 	bl	848a8 <uart_sendline>
   831c0:	97ffff81 	bl	82fc4 <test_exit>
   831c4:	d503201f 	nop
   831c8:	a8cb7bfd 	ldp	x29, x30, [sp], #176
   831cc:	d65f03c0 	ret

00000000000831d0 <signal_default_handler>:
   831d0:	a9bf7bfd 	stp	x29, x30, [sp, #-16]!
   831d4:	910003fd 	mov	x29, sp
   831d8:	94000c65 	bl	8636c <get_current>
   831dc:	b9407800 	ldr	w0, [x0, #120]
   831e0:	2a0003e1 	mov	w1, w0
   831e4:	d2800000 	mov	x0, #0x0                   	// #0
   831e8:	940001a1 	bl	8386c <kill>
   831ec:	d503201f 	nop
   831f0:	a8c17bfd 	ldp	x29, x30, [sp], #16
   831f4:	d65f03c0 	ret

00000000000831f8 <check_signal>:
   831f8:	a9bd7bfd 	stp	x29, x30, [sp, #-48]!
   831fc:	910003fd 	mov	x29, sp
   83200:	f9000fe0 	str	x0, [sp, #24]
   83204:	94000c5a 	bl	8636c <get_current>
   83208:	b943c000 	ldr	w0, [x0, #960]
   8320c:	7100001f 	cmp	w0, #0x0
   83210:	54000621 	b.ne	832d4 <check_signal+0xdc>  // b.any
   83214:	97fff5f9 	bl	809f8 <lock>
   83218:	94000c55 	bl	8636c <get_current>
   8321c:	aa0003e1 	mov	x1, x0
   83220:	52800020 	mov	w0, #0x1                   	// #1
   83224:	b903c020 	str	w0, [x1, #960]
   83228:	97fff601 	bl	80a2c <unlock>
   8322c:	b9002fff 	str	wzr, [sp, #44]
   83230:	14000021 	b	832b4 <check_signal+0xbc>
   83234:	94000c4e 	bl	8636c <get_current>
   83238:	910f2000 	add	x0, x0, #0x3c8
   8323c:	94000c4e 	bl	86374 <store_context>
   83240:	94000c4b 	bl	8636c <get_current>
   83244:	aa0003e1 	mov	x1, x0
   83248:	b9802fe0 	ldrsw	x0, [sp, #44]
   8324c:	9100a000 	add	x0, x0, #0x28
   83250:	d37ef400 	lsl	x0, x0, #2
   83254:	8b000020 	add	x0, x1, x0
   83258:	b9400800 	ldr	w0, [x0, #8]
   8325c:	7100001f 	cmp	w0, #0x0
   83260:	5400024d 	b.le	832a8 <check_signal+0xb0>
   83264:	97fff5e5 	bl	809f8 <lock>
   83268:	94000c41 	bl	8636c <get_current>
   8326c:	b9802fe1 	ldrsw	x1, [sp, #44]
   83270:	9100a021 	add	x1, x1, #0x28
   83274:	d37ef421 	lsl	x1, x1, #2
   83278:	8b010001 	add	x1, x0, x1
   8327c:	b9400821 	ldr	w1, [x1, #8]
   83280:	51000421 	sub	w1, w1, #0x1
   83284:	b9802fe2 	ldrsw	x2, [sp, #44]
   83288:	9100a042 	add	x2, x2, #0x28
   8328c:	d37ef442 	lsl	x2, x2, #2
   83290:	8b020000 	add	x0, x0, x2
   83294:	b9000801 	str	w1, [x0, #8]
   83298:	97fff5e5 	bl	80a2c <unlock>
   8329c:	b9402fe1 	ldr	w1, [sp, #44]
   832a0:	f9400fe0 	ldr	x0, [sp, #24]
   832a4:	9400000f 	bl	832e0 <run_signal>
   832a8:	b9402fe0 	ldr	w0, [sp, #44]
   832ac:	11000400 	add	w0, w0, #0x1
   832b0:	b9002fe0 	str	w0, [sp, #44]
   832b4:	b9402fe0 	ldr	w0, [sp, #44]
   832b8:	7101001f 	cmp	w0, #0x40
   832bc:	54fffbcd 	b.le	83234 <check_signal+0x3c>
   832c0:	97fff5ce 	bl	809f8 <lock>
   832c4:	94000c2a 	bl	8636c <get_current>
   832c8:	b903c01f 	str	wzr, [x0, #960]
   832cc:	97fff5d8 	bl	80a2c <unlock>
   832d0:	14000002 	b	832d8 <check_signal+0xe0>
   832d4:	d503201f 	nop
   832d8:	a8c37bfd 	ldp	x29, x30, [sp], #48
   832dc:	d65f03c0 	ret

00000000000832e0 <run_signal>:
   832e0:	a9bc7bfd 	stp	x29, x30, [sp, #-64]!
   832e4:	910003fd 	mov	x29, sp
   832e8:	f9000bf3 	str	x19, [sp, #16]
   832ec:	f90017e0 	str	x0, [sp, #40]
   832f0:	b90027e1 	str	w1, [sp, #36]
   832f4:	94000c1e 	bl	8636c <get_current>
   832f8:	aa0003f3 	mov	x19, x0
   832fc:	94000c1c 	bl	8636c <get_current>
   83300:	aa0003e1 	mov	x1, x0
   83304:	b98027e0 	ldrsw	x0, [sp, #36]
   83308:	9100d800 	add	x0, x0, #0x36
   8330c:	f8607a60 	ldr	x0, [x19, x0, lsl #3]
   83310:	f901dc20 	str	x0, [x1, #952]
   83314:	94000c16 	bl	8636c <get_current>
   83318:	f941dc01 	ldr	x1, [x0, #952]
   8331c:	90000000 	adrp	x0, 83000 <test_mbox_call+0x2c>
   83320:	91074000 	add	x0, x0, #0x1d0
   83324:	eb00003f 	cmp	x1, x0
   83328:	54000061 	b.ne	83334 <run_signal+0x54>  // b.any
   8332c:	97ffffa9 	bl	831d0 <signal_default_handler>
   83330:	1400000e 	b	83368 <run_signal+0x88>
   83334:	52820000 	mov	w0, #0x1000                	// #4096
   83338:	97fffab3 	bl	81e04 <kmalloc>
   8333c:	f9001fe0 	str	x0, [sp, #56]
   83340:	90000000 	adrp	x0, 83000 <test_mbox_call+0x2c>
   83344:	910dd000 	add	x0, x0, #0x374
   83348:	d5184020 	msr	elr_el1, x0
   8334c:	f9401fe0 	ldr	x0, [sp, #56]
   83350:	91400400 	add	x0, x0, #0x1, lsl #12
   83354:	d5184100 	msr	sp_el0, x0
   83358:	f94017e0 	ldr	x0, [sp, #40]
   8335c:	f9407c00 	ldr	x0, [x0, #248]
   83360:	d5184000 	msr	spsr_el1, x0
   83364:	d69f03e0 	eret
   83368:	f9400bf3 	ldr	x19, [sp, #16]
   8336c:	a8c47bfd 	ldp	x29, x30, [sp], #64
   83370:	d65f03c0 	ret

0000000000083374 <signal_handler_wrapper>:
   83374:	a9bf7bfd 	stp	x29, x30, [sp, #-16]!
   83378:	910003fd 	mov	x29, sp
   8337c:	94000bfc 	bl	8636c <get_current>
   83380:	f941dc00 	ldr	x0, [x0, #952]
   83384:	d63f0000 	blr	x0
   83388:	d2800c68 	mov	x8, #0x63                  	// #99
   8338c:	d4000001 	svc	#0x0
   83390:	d503201f 	nop
   83394:	a8c17bfd 	ldp	x29, x30, [sp], #16
   83398:	d65f03c0 	ret

000000000008339c <getpid>:
   8339c:	a9be7bfd 	stp	x29, x30, [sp, #-32]!
   833a0:	910003fd 	mov	x29, sp
   833a4:	f9000fe0 	str	x0, [sp, #24]
   833a8:	94000bf1 	bl	8636c <get_current>
   833ac:	b9407800 	ldr	w0, [x0, #120]
   833b0:	93407c01 	sxtw	x1, w0
   833b4:	f9400fe0 	ldr	x0, [sp, #24]
   833b8:	f9000001 	str	x1, [x0]
   833bc:	94000bec 	bl	8636c <get_current>
   833c0:	b9407800 	ldr	w0, [x0, #120]
   833c4:	a8c27bfd 	ldp	x29, x30, [sp], #32
   833c8:	d65f03c0 	ret

00000000000833cc <uart_read>:
   833cc:	a9bb7bfd 	stp	x29, x30, [sp, #-80]!
   833d0:	910003fd 	mov	x29, sp
   833d4:	f9000bf3 	str	x19, [sp, #16]
   833d8:	f9001fe0 	str	x0, [sp, #56]
   833dc:	f9001be1 	str	x1, [sp, #48]
   833e0:	f90017e2 	str	x2, [sp, #40]
   833e4:	b9004fff 	str	wzr, [sp, #76]
   833e8:	1400000a 	b	83410 <uart_read+0x44>
   833ec:	b9404fe0 	ldr	w0, [sp, #76]
   833f0:	11000401 	add	w1, w0, #0x1
   833f4:	b9004fe1 	str	w1, [sp, #76]
   833f8:	93407c00 	sxtw	x0, w0
   833fc:	f9401be1 	ldr	x1, [sp, #48]
   83400:	8b000033 	add	x19, x1, x0
   83404:	940005e2 	bl	84b8c <uart_async_getc>
   83408:	12001c00 	and	w0, w0, #0xff
   8340c:	39000260 	strb	w0, [x19]
   83410:	b9804fe0 	ldrsw	x0, [sp, #76]
   83414:	f94017e1 	ldr	x1, [sp, #40]
   83418:	eb00003f 	cmp	x1, x0
   8341c:	54fffe88 	b.hi	833ec <uart_read+0x20>  // b.pmore
   83420:	b9804fe1 	ldrsw	x1, [sp, #76]
   83424:	f9401fe0 	ldr	x0, [sp, #56]
   83428:	f9000001 	str	x1, [x0]
   8342c:	b9804fe0 	ldrsw	x0, [sp, #76]
   83430:	f9400bf3 	ldr	x19, [sp, #16]
   83434:	a8c57bfd 	ldp	x29, x30, [sp], #80
   83438:	d65f03c0 	ret

000000000008343c <uart_write>:
   8343c:	a9bc7bfd 	stp	x29, x30, [sp, #-64]!
   83440:	910003fd 	mov	x29, sp
   83444:	f90017e0 	str	x0, [sp, #40]
   83448:	f90013e1 	str	x1, [sp, #32]
   8344c:	f9000fe2 	str	x2, [sp, #24]
   83450:	b9003fff 	str	wzr, [sp, #60]
   83454:	14000009 	b	83478 <uart_write+0x3c>
   83458:	b9403fe0 	ldr	w0, [sp, #60]
   8345c:	11000401 	add	w1, w0, #0x1
   83460:	b9003fe1 	str	w1, [sp, #60]
   83464:	93407c00 	sxtw	x0, w0
   83468:	f94013e1 	ldr	x1, [sp, #32]
   8346c:	8b000020 	add	x0, x1, x0
   83470:	39400000 	ldrb	w0, [x0]
   83474:	940005a0 	bl	84af4 <uart_async_putc>
   83478:	b9803fe0 	ldrsw	x0, [sp, #60]
   8347c:	f9400fe1 	ldr	x1, [sp, #24]
   83480:	eb00003f 	cmp	x1, x0
   83484:	54fffea8 	b.hi	83458 <uart_write+0x1c>  // b.pmore
   83488:	b9803fe1 	ldrsw	x1, [sp, #60]
   8348c:	f94017e0 	ldr	x0, [sp, #40]
   83490:	f9000001 	str	x1, [x0]
   83494:	b9803fe0 	ldrsw	x0, [sp, #60]
   83498:	a8c47bfd 	ldp	x29, x30, [sp], #64
   8349c:	d65f03c0 	ret

00000000000834a0 <exec>:
   834a0:	a9bb7bfd 	stp	x29, x30, [sp, #-80]!
   834a4:	910003fd 	mov	x29, sp
   834a8:	f9000bf3 	str	x19, [sp, #16]
   834ac:	f9001fe0 	str	x0, [sp, #56]
   834b0:	f9001be1 	str	x1, [sp, #48]
   834b4:	f90017e2 	str	x2, [sp, #40]
   834b8:	94000bad 	bl	8636c <get_current>
   834bc:	f90023e0 	str	x0, [sp, #64]
   834c0:	f9401be0 	ldr	x0, [sp, #48]
   834c4:	9400016b 	bl	83a70 <get_file_size>
   834c8:	2a0003e1 	mov	w1, w0
   834cc:	f94023e0 	ldr	x0, [sp, #64]
   834d0:	b9008801 	str	w1, [x0, #136]
   834d4:	f94023e0 	ldr	x0, [sp, #64]
   834d8:	f9404013 	ldr	x19, [x0, #128]
   834dc:	f9401be0 	ldr	x0, [sp, #48]
   834e0:	9400018f 	bl	83b1c <get_file_start>
   834e4:	aa0003e1 	mov	x1, x0
   834e8:	f94023e0 	ldr	x0, [sp, #64]
   834ec:	b9408800 	ldr	w0, [x0, #136]
   834f0:	2a0003e0 	mov	w0, w0
   834f4:	aa0003e2 	mov	x2, x0
   834f8:	aa1303e0 	mov	x0, x19
   834fc:	94000841 	bl	85600 <memcpy>
   83500:	b9004fff 	str	wzr, [sp, #76]
   83504:	1400000a 	b	8352c <exec+0x8c>
   83508:	f94023e0 	ldr	x0, [sp, #64]
   8350c:	b9804fe1 	ldrsw	x1, [sp, #76]
   83510:	9100d821 	add	x1, x1, #0x36
   83514:	b0000022 	adrp	x2, 88000 <cmd_list+0x758>
   83518:	f943e842 	ldr	x2, [x2, #2000]
   8351c:	f8217802 	str	x2, [x0, x1, lsl #3]
   83520:	b9404fe0 	ldr	w0, [sp, #76]
   83524:	11000400 	add	w0, w0, #0x1
   83528:	b9004fe0 	str	w0, [sp, #76]
   8352c:	b9404fe0 	ldr	w0, [sp, #76]
   83530:	7101001f 	cmp	w0, #0x40
   83534:	54fffead 	b.le	83508 <exec+0x68>
   83538:	f94023e0 	ldr	x0, [sp, #64]
   8353c:	f9404000 	ldr	x0, [x0, #128]
   83540:	aa0003e1 	mov	x1, x0
   83544:	f9401fe0 	ldr	x0, [sp, #56]
   83548:	f9008001 	str	x1, [x0, #256]
   8354c:	f94023e0 	ldr	x0, [sp, #64]
   83550:	f9404c00 	ldr	x0, [x0, #152]
   83554:	91400401 	add	x1, x0, #0x1, lsl #12
   83558:	f9401fe0 	ldr	x0, [sp, #56]
   8355c:	f9008401 	str	x1, [x0, #264]
   83560:	f9401fe0 	ldr	x0, [sp, #56]
   83564:	f900001f 	str	xzr, [x0]
   83568:	52800000 	mov	w0, #0x0                   	// #0
   8356c:	f9400bf3 	ldr	x19, [sp, #16]
   83570:	a8c57bfd 	ldp	x29, x30, [sp], #80
   83574:	d65f03c0 	ret

0000000000083578 <fork>:
   83578:	a9bb7bfd 	stp	x29, x30, [sp, #-80]!
   8357c:	910003fd 	mov	x29, sp
   83580:	f9000fe0 	str	x0, [sp, #24]
   83584:	97fff51d 	bl	809f8 <lock>
   83588:	94000b79 	bl	8636c <get_current>
   8358c:	f9404000 	ldr	x0, [x0, #128]
   83590:	940001de 	bl	83d08 <thread_create>
   83594:	f90023e0 	str	x0, [sp, #64]
   83598:	94000b75 	bl	8636c <get_current>
   8359c:	f9001fe0 	str	x0, [sp, #56]
   835a0:	f9401fe0 	ldr	x0, [sp, #56]
   835a4:	b9407800 	ldr	w0, [x0, #120]
   835a8:	b90037e0 	str	w0, [sp, #52]
   835ac:	f9401fe0 	ldr	x0, [sp, #56]
   835b0:	b9408801 	ldr	w1, [x0, #136]
   835b4:	f94023e0 	ldr	x0, [sp, #64]
   835b8:	b9008801 	str	w1, [x0, #136]
   835bc:	f94023e0 	ldr	x0, [sp, #64]
   835c0:	f9404c03 	ldr	x3, [x0, #152]
   835c4:	f9401fe0 	ldr	x0, [sp, #56]
   835c8:	f9404c00 	ldr	x0, [x0, #152]
   835cc:	d2820002 	mov	x2, #0x1000                	// #4096
   835d0:	aa0003e1 	mov	x1, x0
   835d4:	aa0303e0 	mov	x0, x3
   835d8:	9400080a 	bl	85600 <memcpy>
   835dc:	f94023e0 	ldr	x0, [sp, #64]
   835e0:	f9405003 	ldr	x3, [x0, #160]
   835e4:	f9401fe0 	ldr	x0, [sp, #56]
   835e8:	f9405000 	ldr	x0, [x0, #160]
   835ec:	d2820002 	mov	x2, #0x1000                	// #4096
   835f0:	aa0003e1 	mov	x1, x0
   835f4:	aa0303e0 	mov	x0, x3
   835f8:	94000802 	bl	85600 <memcpy>
   835fc:	b9004fff 	str	wzr, [sp, #76]
   83600:	1400000c 	b	83630 <fork+0xb8>
   83604:	f9401fe0 	ldr	x0, [sp, #56]
   83608:	b9804fe1 	ldrsw	x1, [sp, #76]
   8360c:	9100d821 	add	x1, x1, #0x36
   83610:	f8617802 	ldr	x2, [x0, x1, lsl #3]
   83614:	f94023e0 	ldr	x0, [sp, #64]
   83618:	b9804fe1 	ldrsw	x1, [sp, #76]
   8361c:	9100d821 	add	x1, x1, #0x36
   83620:	f8217802 	str	x2, [x0, x1, lsl #3]
   83624:	b9404fe0 	ldr	w0, [sp, #76]
   83628:	11000400 	add	w0, w0, #0x1
   8362c:	b9004fe0 	str	w0, [sp, #76]
   83630:	b9404fe0 	ldr	w0, [sp, #76]
   83634:	7101001f 	cmp	w0, #0x40
   83638:	54fffe6d 	b.le	83604 <fork+0x8c>
   8363c:	94000b4c 	bl	8636c <get_current>
   83640:	94000b4d 	bl	86374 <store_context>
   83644:	94000b4a 	bl	8636c <get_current>
   83648:	b9407800 	ldr	w0, [x0, #120]
   8364c:	b94037e1 	ldr	w1, [sp, #52]
   83650:	6b00003f 	cmp	w1, w0
   83654:	54000320 	b.eq	836b8 <fork+0x140>  // b.none
   83658:	f94023e0 	ldr	x0, [sp, #64]
   8365c:	f9405001 	ldr	x1, [x0, #160]
   83660:	f9401fe0 	ldr	x0, [sp, #56]
   83664:	f9405000 	ldr	x0, [x0, #160]
   83668:	cb000020 	sub	x0, x1, x0
   8366c:	aa0003e1 	mov	x1, x0
   83670:	f9400fe0 	ldr	x0, [sp, #24]
   83674:	8b010000 	add	x0, x0, x1
   83678:	f9000fe0 	str	x0, [sp, #24]
   8367c:	f9400fe0 	ldr	x0, [sp, #24]
   83680:	f9408400 	ldr	x0, [x0, #264]
   83684:	f94023e1 	ldr	x1, [sp, #64]
   83688:	f9404c22 	ldr	x2, [x1, #152]
   8368c:	f9401fe1 	ldr	x1, [sp, #56]
   83690:	f9404c21 	ldr	x1, [x1, #152]
   83694:	cb010041 	sub	x1, x2, x1
   83698:	8b010001 	add	x1, x0, x1
   8369c:	f9400fe0 	ldr	x0, [sp, #24]
   836a0:	f9008401 	str	x1, [x0, #264]
   836a4:	f9400fe0 	ldr	x0, [sp, #24]
   836a8:	f900001f 	str	xzr, [x0]
   836ac:	97fff4e0 	bl	80a2c <unlock>
   836b0:	52800000 	mov	w0, #0x0                   	// #0
   836b4:	1400002d 	b	83768 <fork+0x1f0>
   836b8:	94000b2d 	bl	8636c <get_current>
   836bc:	aa0003e1 	mov	x1, x0
   836c0:	f94023e0 	ldr	x0, [sp, #64]
   836c4:	a9400c22 	ldp	x2, x3, [x1]
   836c8:	a9000c02 	stp	x2, x3, [x0]
   836cc:	a9410c22 	ldp	x2, x3, [x1, #16]
   836d0:	a9010c02 	stp	x2, x3, [x0, #16]
   836d4:	a9420c22 	ldp	x2, x3, [x1, #32]
   836d8:	a9020c02 	stp	x2, x3, [x0, #32]
   836dc:	a9430c22 	ldp	x2, x3, [x1, #48]
   836e0:	a9030c02 	stp	x2, x3, [x0, #48]
   836e4:	a9440c22 	ldp	x2, x3, [x1, #64]
   836e8:	a9040c02 	stp	x2, x3, [x0, #64]
   836ec:	a9450c22 	ldp	x2, x3, [x1, #80]
   836f0:	a9050c02 	stp	x2, x3, [x0, #80]
   836f4:	f9403021 	ldr	x1, [x1, #96]
   836f8:	f9003001 	str	x1, [x0, #96]
   836fc:	f94023e0 	ldr	x0, [sp, #64]
   83700:	f9405000 	ldr	x0, [x0, #160]
   83704:	aa0003e1 	mov	x1, x0
   83708:	f9401fe0 	ldr	x0, [sp, #56]
   8370c:	f9405000 	ldr	x0, [x0, #160]
   83710:	cb000020 	sub	x0, x1, x0
   83714:	f90017e0 	str	x0, [sp, #40]
   83718:	f94023e0 	ldr	x0, [sp, #64]
   8371c:	f9402801 	ldr	x1, [x0, #80]
   83720:	f94017e0 	ldr	x0, [sp, #40]
   83724:	8b000021 	add	x1, x1, x0
   83728:	f94023e0 	ldr	x0, [sp, #64]
   8372c:	f9002801 	str	x1, [x0, #80]
   83730:	f94023e0 	ldr	x0, [sp, #64]
   83734:	f9403001 	ldr	x1, [x0, #96]
   83738:	f94017e0 	ldr	x0, [sp, #40]
   8373c:	8b000021 	add	x1, x1, x0
   83740:	f94023e0 	ldr	x0, [sp, #64]
   83744:	f9003001 	str	x1, [x0, #96]
   83748:	f94023e0 	ldr	x0, [sp, #64]
   8374c:	b9407800 	ldr	w0, [x0, #120]
   83750:	93407c01 	sxtw	x1, w0
   83754:	f9400fe0 	ldr	x0, [sp, #24]
   83758:	f9000001 	str	x1, [x0]
   8375c:	97fff4b4 	bl	80a2c <unlock>
   83760:	f94023e0 	ldr	x0, [sp, #64]
   83764:	b9407800 	ldr	w0, [x0, #120]
   83768:	a8c57bfd 	ldp	x29, x30, [sp], #80
   8376c:	d65f03c0 	ret

0000000000083770 <exit>:
   83770:	a9be7bfd 	stp	x29, x30, [sp, #-32]!
   83774:	910003fd 	mov	x29, sp
   83778:	f9000fe0 	str	x0, [sp, #24]
   8377c:	b90017e1 	str	w1, [sp, #20]
   83780:	94000206 	bl	83f98 <thread_exit>
   83784:	d503201f 	nop
   83788:	a8c27bfd 	ldp	x29, x30, [sp], #32
   8378c:	d65f03c0 	ret

0000000000083790 <mbox_call>:
   83790:	a9bc7bfd 	stp	x29, x30, [sp, #-64]!
   83794:	910003fd 	mov	x29, sp
   83798:	f90017e0 	str	x0, [sp, #40]
   8379c:	39009fe1 	strb	w1, [sp, #39]
   837a0:	f9000fe2 	str	x2, [sp, #24]
   837a4:	97fff495 	bl	809f8 <lock>
   837a8:	f9400fe0 	ldr	x0, [sp, #24]
   837ac:	121c6c01 	and	w1, w0, #0xfffffff0
   837b0:	39409fe0 	ldrb	w0, [sp, #39]
   837b4:	12000c00 	and	w0, w0, #0xf
   837b8:	2a000020 	orr	w0, w1, w0
   837bc:	b9003fe0 	str	w0, [sp, #60]
   837c0:	d503201f 	nop
   837c4:	d2971300 	mov	x0, #0xb898                	// #47256
   837c8:	f2a7e000 	movk	x0, #0x3f00, lsl #16
   837cc:	b9400000 	ldr	w0, [x0]
   837d0:	7100001f 	cmp	w0, #0x0
   837d4:	54ffff8b 	b.lt	837c4 <mbox_call+0x34>  // b.tstop
   837d8:	d2971400 	mov	x0, #0xb8a0                	// #47264
   837dc:	f2a7e000 	movk	x0, #0x3f00, lsl #16
   837e0:	b9403fe1 	ldr	w1, [sp, #60]
   837e4:	b9000001 	str	w1, [x0]
   837e8:	d503201f 	nop
   837ec:	d2971300 	mov	x0, #0xb898                	// #47256
   837f0:	f2a7e000 	movk	x0, #0x3f00, lsl #16
   837f4:	b9400000 	ldr	w0, [x0]
   837f8:	12020000 	and	w0, w0, #0x40000000
   837fc:	7100001f 	cmp	w0, #0x0
   83800:	54ffff61 	b.ne	837ec <mbox_call+0x5c>  // b.any
   83804:	d2971000 	mov	x0, #0xb880                	// #47232
   83808:	f2a7e000 	movk	x0, #0x3f00, lsl #16
   8380c:	b9400000 	ldr	w0, [x0]
   83810:	b9403fe1 	ldr	w1, [sp, #60]
   83814:	6b00003f 	cmp	w1, w0
   83818:	54fffe81 	b.ne	837e8 <mbox_call+0x58>  // b.any
   8381c:	f9400fe0 	ldr	x0, [sp, #24]
   83820:	91001000 	add	x0, x0, #0x4
   83824:	b9400001 	ldr	w1, [x0]
   83828:	52b00000 	mov	w0, #0x80000000            	// #-2147483648
   8382c:	6b00003f 	cmp	w1, w0
   83830:	1a9f17e0 	cset	w0, eq  // eq = none
   83834:	12001c00 	and	w0, w0, #0xff
   83838:	92401c01 	and	x1, x0, #0xff
   8383c:	f94017e0 	ldr	x0, [sp, #40]
   83840:	f9000001 	str	x1, [x0]
   83844:	97fff47a 	bl	80a2c <unlock>
   83848:	f9400fe0 	ldr	x0, [sp, #24]
   8384c:	91001000 	add	x0, x0, #0x4
   83850:	b9400001 	ldr	w1, [x0]
   83854:	52b00000 	mov	w0, #0x80000000            	// #-2147483648
   83858:	6b00003f 	cmp	w1, w0
   8385c:	1a9f17e0 	cset	w0, eq  // eq = none
   83860:	12001c00 	and	w0, w0, #0xff
   83864:	a8c47bfd 	ldp	x29, x30, [sp], #64
   83868:	d65f03c0 	ret

000000000008386c <kill>:
   8386c:	a9be7bfd 	stp	x29, x30, [sp, #-32]!
   83870:	910003fd 	mov	x29, sp
   83874:	f9000fe0 	str	x0, [sp, #24]
   83878:	b90017e1 	str	w1, [sp, #20]
   8387c:	b94017e0 	ldr	w0, [sp, #20]
   83880:	7100001f 	cmp	w0, #0x0
   83884:	5400044b 	b.lt	8390c <kill+0xa0>  // b.tstop
   83888:	b94017e1 	ldr	w1, [sp, #20]
   8388c:	528ff4c0 	mov	w0, #0x7fa6                	// #32678
   83890:	6b00003f 	cmp	w1, w0
   83894:	540003cc 	b.gt	8390c <kill+0xa0>
   83898:	b0000020 	adrp	x0, 88000 <cmd_list+0x758>
   8389c:	f943f802 	ldr	x2, [x0, #2032]
   838a0:	b98017e1 	ldrsw	x1, [sp, #20]
   838a4:	aa0103e0 	mov	x0, x1
   838a8:	d37cec00 	lsl	x0, x0, #4
   838ac:	8b010000 	add	x0, x0, x1
   838b0:	d37ef400 	lsl	x0, x0, #2
   838b4:	cb010000 	sub	x0, x0, x1
   838b8:	d37cec00 	lsl	x0, x0, #4
   838bc:	8b000040 	add	x0, x2, x0
   838c0:	b9408c00 	ldr	w0, [x0, #140]
   838c4:	7100001f 	cmp	w0, #0x0
   838c8:	54000220 	b.eq	8390c <kill+0xa0>  // b.none
   838cc:	97fff44b 	bl	809f8 <lock>
   838d0:	b0000020 	adrp	x0, 88000 <cmd_list+0x758>
   838d4:	f943f802 	ldr	x2, [x0, #2032]
   838d8:	b98017e1 	ldrsw	x1, [sp, #20]
   838dc:	aa0103e0 	mov	x0, x1
   838e0:	d37cec00 	lsl	x0, x0, #4
   838e4:	8b010000 	add	x0, x0, x1
   838e8:	d37ef400 	lsl	x0, x0, #2
   838ec:	cb010000 	sub	x0, x0, x1
   838f0:	d37cec00 	lsl	x0, x0, #4
   838f4:	8b000040 	add	x0, x2, x0
   838f8:	52800021 	mov	w1, #0x1                   	// #1
   838fc:	b9009001 	str	w1, [x0, #144]
   83900:	97fff44b 	bl	80a2c <unlock>
   83904:	9400018b 	bl	83f30 <schedule>
   83908:	14000002 	b	83910 <kill+0xa4>
   8390c:	d503201f 	nop
   83910:	a8c27bfd 	ldp	x29, x30, [sp], #32
   83914:	d65f03c0 	ret

0000000000083918 <signal_register>:
   83918:	a9be7bfd 	stp	x29, x30, [sp, #-32]!
   8391c:	910003fd 	mov	x29, sp
   83920:	b9001fe0 	str	w0, [sp, #28]
   83924:	f9000be1 	str	x1, [sp, #16]
   83928:	b9401fe0 	ldr	w0, [sp, #28]
   8392c:	7100001f 	cmp	w0, #0x0
   83930:	5400016b 	b.lt	8395c <signal_register+0x44>  // b.tstop
   83934:	b9401fe0 	ldr	w0, [sp, #28]
   83938:	7101001f 	cmp	w0, #0x40
   8393c:	5400010c 	b.gt	8395c <signal_register+0x44>
   83940:	94000a8b 	bl	8636c <get_current>
   83944:	aa0003e2 	mov	x2, x0
   83948:	b9801fe0 	ldrsw	x0, [sp, #28]
   8394c:	9100d800 	add	x0, x0, #0x36
   83950:	f9400be1 	ldr	x1, [sp, #16]
   83954:	f8207841 	str	x1, [x2, x0, lsl #3]
   83958:	14000002 	b	83960 <signal_register+0x48>
   8395c:	d503201f 	nop
   83960:	a8c27bfd 	ldp	x29, x30, [sp], #32
   83964:	d65f03c0 	ret

0000000000083968 <signal_kill>:
   83968:	a9be7bfd 	stp	x29, x30, [sp, #-32]!
   8396c:	910003fd 	mov	x29, sp
   83970:	b9001fe0 	str	w0, [sp, #28]
   83974:	b9001be1 	str	w1, [sp, #24]
   83978:	b9401fe0 	ldr	w0, [sp, #28]
   8397c:	7100001f 	cmp	w0, #0x0
   83980:	5400042b 	b.lt	83a04 <signal_kill+0x9c>  // b.tstop
   83984:	b9401fe1 	ldr	w1, [sp, #28]
   83988:	528ff4c0 	mov	w0, #0x7fa6                	// #32678
   8398c:	6b00003f 	cmp	w1, w0
   83990:	540003ac 	b.gt	83a04 <signal_kill+0x9c>
   83994:	b0000020 	adrp	x0, 88000 <cmd_list+0x758>
   83998:	f943f802 	ldr	x2, [x0, #2032]
   8399c:	b9801fe1 	ldrsw	x1, [sp, #28]
   839a0:	aa0103e0 	mov	x0, x1
   839a4:	d37cec00 	lsl	x0, x0, #4
   839a8:	8b010000 	add	x0, x0, x1
   839ac:	d37ef400 	lsl	x0, x0, #2
   839b0:	cb010000 	sub	x0, x0, x1
   839b4:	d37cec00 	lsl	x0, x0, #4
   839b8:	8b000040 	add	x0, x2, x0
   839bc:	b9408c00 	ldr	w0, [x0, #140]
   839c0:	7100001f 	cmp	w0, #0x0
   839c4:	54000200 	b.eq	83a04 <signal_kill+0x9c>  // b.none
   839c8:	97fff40c 	bl	809f8 <lock>
   839cc:	b0000020 	adrp	x0, 88000 <cmd_list+0x758>
   839d0:	f943f802 	ldr	x2, [x0, #2032]
   839d4:	b9801fe1 	ldrsw	x1, [sp, #28]
   839d8:	aa0103e0 	mov	x0, x1
   839dc:	d37cec00 	lsl	x0, x0, #4
   839e0:	8b010000 	add	x0, x0, x1
   839e4:	d37ef400 	lsl	x0, x0, #2
   839e8:	cb010000 	sub	x0, x0, x1
   839ec:	d37cec00 	lsl	x0, x0, #4
   839f0:	8b000040 	add	x0, x2, x0
   839f4:	52800021 	mov	w1, #0x1                   	// #1
   839f8:	b9009001 	str	w1, [x0, #144]
   839fc:	97fff40c 	bl	80a2c <unlock>
   83a00:	14000002 	b	83a08 <signal_kill+0xa0>
   83a04:	d503201f 	nop
   83a08:	a8c27bfd 	ldp	x29, x30, [sp], #32
   83a0c:	d65f03c0 	ret

0000000000083a10 <signal_return>:
   83a10:	a9bd7bfd 	stp	x29, x30, [sp, #-48]!
   83a14:	910003fd 	mov	x29, sp
   83a18:	f9000fe0 	str	x0, [sp, #24]
   83a1c:	f9400fe0 	ldr	x0, [sp, #24]
   83a20:	f9408400 	ldr	x0, [x0, #264]
   83a24:	92402c00 	and	x0, x0, #0xfff
   83a28:	f100001f 	cmp	x0, #0x0
   83a2c:	540000a1 	b.ne	83a40 <signal_return+0x30>  // b.any
   83a30:	f9400fe0 	ldr	x0, [sp, #24]
   83a34:	f9408400 	ldr	x0, [x0, #264]
   83a38:	d1400400 	sub	x0, x0, #0x1, lsl #12
   83a3c:	14000004 	b	83a4c <signal_return+0x3c>
   83a40:	f9400fe0 	ldr	x0, [sp, #24]
   83a44:	f9408400 	ldr	x0, [x0, #264]
   83a48:	9274cc00 	and	x0, x0, #0xfffffffffffff000
   83a4c:	f90017e0 	str	x0, [sp, #40]
   83a50:	f94017e0 	ldr	x0, [sp, #40]
   83a54:	97fff8fc 	bl	81e44 <kfree>
   83a58:	94000a45 	bl	8636c <get_current>
   83a5c:	910f2000 	add	x0, x0, #0x3c8
   83a60:	94000a4e 	bl	86398 <load_context>
   83a64:	d503201f 	nop
   83a68:	a8c37bfd 	ldp	x29, x30, [sp], #48
   83a6c:	d65f03c0 	ret

0000000000083a70 <get_file_size>:
   83a70:	a9bb7bfd 	stp	x29, x30, [sp, #-80]!
   83a74:	910003fd 	mov	x29, sp
   83a78:	f9000fe0 	str	x0, [sp, #24]
   83a7c:	b0000020 	adrp	x0, 88000 <cmd_list+0x758>
   83a80:	f9441000 	ldr	x0, [x0, #2080]
   83a84:	f9400000 	ldr	x0, [x0]
   83a88:	f90017e0 	str	x0, [sp, #40]
   83a8c:	1400001e 	b	83b04 <get_file_size+0x94>
   83a90:	f94017e0 	ldr	x0, [sp, #40]
   83a94:	9100a3e4 	add	x4, sp, #0x28
   83a98:	9100e3e3 	add	x3, sp, #0x38
   83a9c:	9100d3e2 	add	x2, sp, #0x34
   83aa0:	910103e1 	add	x1, sp, #0x40
   83aa4:	97fff1c8 	bl	801c4 <cpio_newc_parse_header>
   83aa8:	b9004fe0 	str	w0, [sp, #76]
   83aac:	b9404fe0 	ldr	w0, [sp, #76]
   83ab0:	7100001f 	cmp	w0, #0x0
   83ab4:	540000c0 	b.eq	83acc <get_file_size+0x5c>  // b.none
   83ab8:	f0000000 	adrp	x0, 86000 <el1t_irq_invalid+0x74>
   83abc:	9126a000 	add	x0, x0, #0x9a8
   83ac0:	9400037a 	bl	848a8 <uart_sendline>
   83ac4:	12800000 	mov	w0, #0xffffffff            	// #-1
   83ac8:	14000013 	b	83b14 <get_file_size+0xa4>
   83acc:	f94023e0 	ldr	x0, [sp, #64]
   83ad0:	f9400fe1 	ldr	x1, [sp, #24]
   83ad4:	94000620 	bl	85354 <strcmp>
   83ad8:	7100001f 	cmp	w0, #0x0
   83adc:	54000061 	b.ne	83ae8 <get_file_size+0x78>  // b.any
   83ae0:	b94037e0 	ldr	w0, [sp, #52]
   83ae4:	1400000c 	b	83b14 <get_file_size+0xa4>
   83ae8:	f94017e0 	ldr	x0, [sp, #40]
   83aec:	f100001f 	cmp	x0, #0x0
   83af0:	540000a1 	b.ne	83b04 <get_file_size+0x94>  // b.any
   83af4:	f9400fe1 	ldr	x1, [sp, #24]
   83af8:	f0000000 	adrp	x0, 86000 <el1t_irq_invalid+0x74>
   83afc:	91270000 	add	x0, x0, #0x9c0
   83b00:	9400036a 	bl	848a8 <uart_sendline>
   83b04:	f94017e0 	ldr	x0, [sp, #40]
   83b08:	f100001f 	cmp	x0, #0x0
   83b0c:	54fffc21 	b.ne	83a90 <get_file_size+0x20>  // b.any
   83b10:	52800000 	mov	w0, #0x0                   	// #0
   83b14:	a8c57bfd 	ldp	x29, x30, [sp], #80
   83b18:	d65f03c0 	ret

0000000000083b1c <get_file_start>:
   83b1c:	a9bb7bfd 	stp	x29, x30, [sp, #-80]!
   83b20:	910003fd 	mov	x29, sp
   83b24:	f9000fe0 	str	x0, [sp, #24]
   83b28:	b0000020 	adrp	x0, 88000 <cmd_list+0x758>
   83b2c:	f9441000 	ldr	x0, [x0, #2080]
   83b30:	f9400000 	ldr	x0, [x0]
   83b34:	f90017e0 	str	x0, [sp, #40]
   83b38:	1400001d 	b	83bac <get_file_start+0x90>
   83b3c:	f94017e0 	ldr	x0, [sp, #40]
   83b40:	9100a3e4 	add	x4, sp, #0x28
   83b44:	9100e3e3 	add	x3, sp, #0x38
   83b48:	9100d3e2 	add	x2, sp, #0x34
   83b4c:	910103e1 	add	x1, sp, #0x40
   83b50:	97fff19d 	bl	801c4 <cpio_newc_parse_header>
   83b54:	b9004fe0 	str	w0, [sp, #76]
   83b58:	b9404fe0 	ldr	w0, [sp, #76]
   83b5c:	7100001f 	cmp	w0, #0x0
   83b60:	540000a0 	b.eq	83b74 <get_file_start+0x58>  // b.none
   83b64:	f0000000 	adrp	x0, 86000 <el1t_irq_invalid+0x74>
   83b68:	9126a000 	add	x0, x0, #0x9a8
   83b6c:	9400034f 	bl	848a8 <uart_sendline>
   83b70:	14000012 	b	83bb8 <get_file_start+0x9c>
   83b74:	f94023e0 	ldr	x0, [sp, #64]
   83b78:	f9400fe1 	ldr	x1, [sp, #24]
   83b7c:	940005f6 	bl	85354 <strcmp>
   83b80:	7100001f 	cmp	w0, #0x0
   83b84:	54000061 	b.ne	83b90 <get_file_start+0x74>  // b.any
   83b88:	f9401fe0 	ldr	x0, [sp, #56]
   83b8c:	1400000c 	b	83bbc <get_file_start+0xa0>
   83b90:	f94017e0 	ldr	x0, [sp, #40]
   83b94:	f100001f 	cmp	x0, #0x0
   83b98:	540000a1 	b.ne	83bac <get_file_start+0x90>  // b.any
   83b9c:	f9400fe1 	ldr	x1, [sp, #24]
   83ba0:	f0000000 	adrp	x0, 86000 <el1t_irq_invalid+0x74>
   83ba4:	91270000 	add	x0, x0, #0x9c0
   83ba8:	94000340 	bl	848a8 <uart_sendline>
   83bac:	f94017e0 	ldr	x0, [sp, #40]
   83bb0:	f100001f 	cmp	x0, #0x0
   83bb4:	54fffc41 	b.ne	83b3c <get_file_start+0x20>  // b.any
   83bb8:	d2800000 	mov	x0, #0x0                   	// #0
   83bbc:	a8c57bfd 	ldp	x29, x30, [sp], #80
   83bc0:	d65f03c0 	ret

0000000000083bc4 <init_thread>:
   83bc4:	a9be7bfd 	stp	x29, x30, [sp, #-32]!
   83bc8:	910003fd 	mov	x29, sp
   83bcc:	97fff38b 	bl	809f8 <lock>
   83bd0:	52808600 	mov	w0, #0x430                 	// #1072
   83bd4:	97fff88c 	bl	81e04 <kmalloc>
   83bd8:	aa0003e1 	mov	x1, x0
   83bdc:	b0000020 	adrp	x0, 88000 <cmd_list+0x758>
   83be0:	91286000 	add	x0, x0, #0xa18
   83be4:	f9000001 	str	x1, [x0]
   83be8:	b0000020 	adrp	x0, 88000 <cmd_list+0x758>
   83bec:	91286000 	add	x0, x0, #0xa18
   83bf0:	f9400000 	ldr	x0, [x0]
   83bf4:	b0000021 	adrp	x1, 88000 <cmd_list+0x758>
   83bf8:	91286021 	add	x1, x1, #0xa18
   83bfc:	f9400021 	ldr	x1, [x1]
   83c00:	f9003401 	str	x1, [x0, #104]
   83c04:	b0000020 	adrp	x0, 88000 <cmd_list+0x758>
   83c08:	91286000 	add	x0, x0, #0xa18
   83c0c:	f9400000 	ldr	x0, [x0]
   83c10:	b0000021 	adrp	x1, 88000 <cmd_list+0x758>
   83c14:	91286021 	add	x1, x1, #0xa18
   83c18:	f9400021 	ldr	x1, [x1]
   83c1c:	f9003801 	str	x1, [x0, #112]
   83c20:	b0000020 	adrp	x0, 88000 <cmd_list+0x758>
   83c24:	91286000 	add	x0, x0, #0xa18
   83c28:	f9400000 	ldr	x0, [x0]
   83c2c:	12800001 	mov	w1, #0xffffffff            	// #-1
   83c30:	b9007801 	str	w1, [x0, #120]
   83c34:	b9001fff 	str	wzr, [sp, #28]
   83c38:	14000026 	b	83cd0 <init_thread+0x10c>
   83c3c:	b0000020 	adrp	x0, 88000 <cmd_list+0x758>
   83c40:	91288002 	add	x2, x0, #0xa20
   83c44:	b9801fe1 	ldrsw	x1, [sp, #28]
   83c48:	aa0103e0 	mov	x0, x1
   83c4c:	d37cec00 	lsl	x0, x0, #4
   83c50:	8b010000 	add	x0, x0, x1
   83c54:	d37ef400 	lsl	x0, x0, #2
   83c58:	cb010000 	sub	x0, x0, x1
   83c5c:	d37cec00 	lsl	x0, x0, #4
   83c60:	8b000040 	add	x0, x2, x0
   83c64:	b9008c1f 	str	wzr, [x0, #140]
   83c68:	b0000020 	adrp	x0, 88000 <cmd_list+0x758>
   83c6c:	91288002 	add	x2, x0, #0xa20
   83c70:	b9801fe1 	ldrsw	x1, [sp, #28]
   83c74:	aa0103e0 	mov	x0, x1
   83c78:	d37cec00 	lsl	x0, x0, #4
   83c7c:	8b010000 	add	x0, x0, x1
   83c80:	d37ef400 	lsl	x0, x0, #2
   83c84:	cb010000 	sub	x0, x0, x1
   83c88:	d37cec00 	lsl	x0, x0, #4
   83c8c:	8b000040 	add	x0, x2, x0
   83c90:	b900901f 	str	wzr, [x0, #144]
   83c94:	b0000020 	adrp	x0, 88000 <cmd_list+0x758>
   83c98:	91288002 	add	x2, x0, #0xa20
   83c9c:	b9801fe1 	ldrsw	x1, [sp, #28]
   83ca0:	aa0103e0 	mov	x0, x1
   83ca4:	d37cec00 	lsl	x0, x0, #4
   83ca8:	8b010000 	add	x0, x0, x1
   83cac:	d37ef400 	lsl	x0, x0, #2
   83cb0:	cb010000 	sub	x0, x0, x1
   83cb4:	d37cec00 	lsl	x0, x0, #4
   83cb8:	8b000040 	add	x0, x2, x0
   83cbc:	b9401fe1 	ldr	w1, [sp, #28]
   83cc0:	b9007801 	str	w1, [x0, #120]
   83cc4:	b9401fe0 	ldr	w0, [sp, #28]
   83cc8:	11000400 	add	w0, w0, #0x1
   83ccc:	b9001fe0 	str	w0, [sp, #28]
   83cd0:	b9401fe1 	ldr	w1, [sp, #28]
   83cd4:	528ff4c0 	mov	w0, #0x7fa6                	// #32678
   83cd8:	6b00003f 	cmp	w1, w0
   83cdc:	54fffb0d 	b.le	83c3c <init_thread+0x78>
   83ce0:	90000000 	adrp	x0, 83000 <test_mbox_call+0x2c>
   83ce4:	913e1000 	add	x0, x0, #0xf84
   83ce8:	94000008 	bl	83d08 <thread_create>
   83cec:	f9000be0 	str	x0, [sp, #16]
   83cf0:	f9400be0 	ldr	x0, [sp, #16]
   83cf4:	d518d080 	msr	tpidr_el1, x0
   83cf8:	97fff34d 	bl	80a2c <unlock>
   83cfc:	d503201f 	nop
   83d00:	a8c27bfd 	ldp	x29, x30, [sp], #32
   83d04:	d65f03c0 	ret

0000000000083d08 <thread_create>:
   83d08:	a9bd7bfd 	stp	x29, x30, [sp, #-48]!
   83d0c:	910003fd 	mov	x29, sp
   83d10:	f9000fe0 	str	x0, [sp, #24]
   83d14:	97fff339 	bl	809f8 <lock>
   83d18:	d0010b60 	adrp	x0, 21f1000 <_heap_stack_size+0x19f1000>
   83d1c:	9115c000 	add	x0, x0, #0x570
   83d20:	b9400001 	ldr	w1, [x0]
   83d24:	528ff4c0 	mov	w0, #0x7fa6                	// #32678
   83d28:	6b00003f 	cmp	w1, w0
   83d2c:	5400006d 	b.le	83d38 <thread_create+0x30>
   83d30:	d2800000 	mov	x0, #0x0                   	// #0
   83d34:	1400006b 	b	83ee0 <thread_create+0x1d8>
   83d38:	d0010b60 	adrp	x0, 21f1000 <_heap_stack_size+0x19f1000>
   83d3c:	9115c000 	add	x0, x0, #0x570
   83d40:	b9400001 	ldr	w1, [x0]
   83d44:	b0000020 	adrp	x0, 88000 <cmd_list+0x758>
   83d48:	91288002 	add	x2, x0, #0xa20
   83d4c:	93407c21 	sxtw	x1, w1
   83d50:	aa0103e0 	mov	x0, x1
   83d54:	d37cec00 	lsl	x0, x0, #4
   83d58:	8b010000 	add	x0, x0, x1
   83d5c:	d37ef400 	lsl	x0, x0, #2
   83d60:	cb010000 	sub	x0, x0, x1
   83d64:	d37cec00 	lsl	x0, x0, #4
   83d68:	8b000040 	add	x0, x2, x0
   83d6c:	b9408c00 	ldr	w0, [x0, #140]
   83d70:	7100001f 	cmp	w0, #0x0
   83d74:	54000641 	b.ne	83e3c <thread_create+0x134>  // b.any
   83d78:	d0010b60 	adrp	x0, 21f1000 <_heap_stack_size+0x19f1000>
   83d7c:	9115c000 	add	x0, x0, #0x570
   83d80:	b9400000 	ldr	w0, [x0]
   83d84:	11000402 	add	w2, w0, #0x1
   83d88:	d0010b61 	adrp	x1, 21f1000 <_heap_stack_size+0x19f1000>
   83d8c:	9115c021 	add	x1, x1, #0x570
   83d90:	b9000022 	str	w2, [x1]
   83d94:	93407c01 	sxtw	x1, w0
   83d98:	aa0103e0 	mov	x0, x1
   83d9c:	d37cec00 	lsl	x0, x0, #4
   83da0:	8b010000 	add	x0, x0, x1
   83da4:	d37ef400 	lsl	x0, x0, #2
   83da8:	cb010000 	sub	x0, x0, x1
   83dac:	d37cec00 	lsl	x0, x0, #4
   83db0:	b0000021 	adrp	x1, 88000 <cmd_list+0x758>
   83db4:	91288021 	add	x1, x1, #0xa20
   83db8:	8b010000 	add	x0, x0, x1
   83dbc:	f90013e0 	str	x0, [sp, #32]
   83dc0:	f94013e0 	ldr	x0, [sp, #32]
   83dc4:	b900901f 	str	wzr, [x0, #144]
   83dc8:	f94013e0 	ldr	x0, [sp, #32]
   83dcc:	52800021 	mov	w1, #0x1                   	// #1
   83dd0:	b9008c01 	str	w1, [x0, #140]
   83dd4:	52820000 	mov	w0, #0x1000                	// #4096
   83dd8:	97fff80b 	bl	81e04 <kmalloc>
   83ddc:	aa0003e1 	mov	x1, x0
   83de0:	f94013e0 	ldr	x0, [sp, #32]
   83de4:	f9004c01 	str	x1, [x0, #152]
   83de8:	52820000 	mov	w0, #0x1000                	// #4096
   83dec:	97fff806 	bl	81e04 <kmalloc>
   83df0:	aa0003e1 	mov	x1, x0
   83df4:	f94013e0 	ldr	x0, [sp, #32]
   83df8:	f9005001 	str	x1, [x0, #160]
   83dfc:	f9400fe1 	ldr	x1, [sp, #24]
   83e00:	f94013e0 	ldr	x0, [sp, #32]
   83e04:	f9002c01 	str	x1, [x0, #88]
   83e08:	f94013e0 	ldr	x0, [sp, #32]
   83e0c:	f9404c00 	ldr	x0, [x0, #152]
   83e10:	91400401 	add	x1, x0, #0x1, lsl #12
   83e14:	f94013e0 	ldr	x0, [sp, #32]
   83e18:	f9003001 	str	x1, [x0, #96]
   83e1c:	f94013e0 	ldr	x0, [sp, #32]
   83e20:	f9403001 	ldr	x1, [x0, #96]
   83e24:	f94013e0 	ldr	x0, [sp, #32]
   83e28:	f9002801 	str	x1, [x0, #80]
   83e2c:	f94013e0 	ldr	x0, [sp, #32]
   83e30:	b903c01f 	str	wzr, [x0, #960]
   83e34:	b9002fff 	str	wzr, [sp, #44]
   83e38:	14000012 	b	83e80 <thread_create+0x178>
   83e3c:	d2800000 	mov	x0, #0x0                   	// #0
   83e40:	14000028 	b	83ee0 <thread_create+0x1d8>
   83e44:	f94013e1 	ldr	x1, [sp, #32]
   83e48:	b9802fe0 	ldrsw	x0, [sp, #44]
   83e4c:	9100a000 	add	x0, x0, #0x28
   83e50:	d37ef400 	lsl	x0, x0, #2
   83e54:	8b000020 	add	x0, x1, x0
   83e58:	b900081f 	str	wzr, [x0, #8]
   83e5c:	f94013e0 	ldr	x0, [sp, #32]
   83e60:	b9802fe1 	ldrsw	x1, [sp, #44]
   83e64:	9100d821 	add	x1, x1, #0x36
   83e68:	b0000022 	adrp	x2, 88000 <cmd_list+0x758>
   83e6c:	f943e842 	ldr	x2, [x2, #2000]
   83e70:	f8217802 	str	x2, [x0, x1, lsl #3]
   83e74:	b9402fe0 	ldr	w0, [sp, #44]
   83e78:	11000400 	add	w0, w0, #0x1
   83e7c:	b9002fe0 	str	w0, [sp, #44]
   83e80:	b9402fe0 	ldr	w0, [sp, #44]
   83e84:	7101001f 	cmp	w0, #0x40
   83e88:	54fffded 	b.le	83e44 <thread_create+0x13c>
   83e8c:	b0000020 	adrp	x0, 88000 <cmd_list+0x758>
   83e90:	91286000 	add	x0, x0, #0xa18
   83e94:	f9400000 	ldr	x0, [x0]
   83e98:	f9403801 	ldr	x1, [x0, #112]
   83e9c:	f94013e0 	ldr	x0, [sp, #32]
   83ea0:	f9003801 	str	x1, [x0, #112]
   83ea4:	b0000020 	adrp	x0, 88000 <cmd_list+0x758>
   83ea8:	91286000 	add	x0, x0, #0xa18
   83eac:	f9400001 	ldr	x1, [x0]
   83eb0:	f94013e0 	ldr	x0, [sp, #32]
   83eb4:	f9003401 	str	x1, [x0, #104]
   83eb8:	f94013e0 	ldr	x0, [sp, #32]
   83ebc:	f9403800 	ldr	x0, [x0, #112]
   83ec0:	f94013e1 	ldr	x1, [sp, #32]
   83ec4:	f9003401 	str	x1, [x0, #104]
   83ec8:	f94013e0 	ldr	x0, [sp, #32]
   83ecc:	f9403400 	ldr	x0, [x0, #104]
   83ed0:	f94013e1 	ldr	x1, [sp, #32]
   83ed4:	f9003801 	str	x1, [x0, #112]
   83ed8:	97fff2d5 	bl	80a2c <unlock>
   83edc:	f94013e0 	ldr	x0, [sp, #32]
   83ee0:	a8c37bfd 	ldp	x29, x30, [sp], #48
   83ee4:	d65f03c0 	ret

0000000000083ee8 <from_el1_to_el0>:
   83ee8:	d10043ff 	sub	sp, sp, #0x10
   83eec:	f90007e0 	str	x0, [sp, #8]
   83ef0:	f94007e0 	ldr	x0, [sp, #8]
   83ef4:	d518d080 	msr	tpidr_el1, x0
   83ef8:	d518403e 	msr	elr_el1, x30
   83efc:	52806800 	mov	w0, #0x340                 	// #832
   83f00:	d5184000 	msr	spsr_el1, x0
   83f04:	f94007e0 	ldr	x0, [sp, #8]
   83f08:	f9403000 	ldr	x0, [x0, #96]
   83f0c:	d5184100 	msr	sp_el0, x0
   83f10:	f94007e0 	ldr	x0, [sp, #8]
   83f14:	f9405000 	ldr	x0, [x0, #160]
   83f18:	91400400 	add	x0, x0, #0x1, lsl #12
   83f1c:	9100001f 	mov	sp, x0
   83f20:	d69f03e0 	eret
   83f24:	d503201f 	nop
   83f28:	910043ff 	add	sp, sp, #0x10
   83f2c:	d65f03c0 	ret

0000000000083f30 <schedule>:
   83f30:	a9be7bfd 	stp	x29, x30, [sp, #-32]!
   83f34:	910003fd 	mov	x29, sp
   83f38:	97fff2b0 	bl	809f8 <lock>
   83f3c:	9400090c 	bl	8636c <get_current>
   83f40:	f9000fe0 	str	x0, [sp, #24]
   83f44:	f9400fe0 	ldr	x0, [sp, #24]
   83f48:	f9403400 	ldr	x0, [x0, #104]
   83f4c:	f9000fe0 	str	x0, [sp, #24]
   83f50:	b0000020 	adrp	x0, 88000 <cmd_list+0x758>
   83f54:	91286000 	add	x0, x0, #0xa18
   83f58:	f9400000 	ldr	x0, [x0]
   83f5c:	f9400fe1 	ldr	x1, [sp, #24]
   83f60:	eb00003f 	cmp	x1, x0
   83f64:	54ffff00 	b.eq	83f44 <schedule+0x14>  // b.none
   83f68:	97fff2b1 	bl	80a2c <unlock>
   83f6c:	94000900 	bl	8636c <get_current>
   83f70:	f9400fe1 	ldr	x1, [sp, #24]
   83f74:	940008ec 	bl	86324 <switch_to>
   83f78:	d503201f 	nop
   83f7c:	a8c27bfd 	ldp	x29, x30, [sp], #32
   83f80:	d65f03c0 	ret

0000000000083f84 <idle>:
   83f84:	a9bf7bfd 	stp	x29, x30, [sp, #-16]!
   83f88:	910003fd 	mov	x29, sp
   83f8c:	9400000f 	bl	83fc8 <kill_zombie>
   83f90:	97ffffe8 	bl	83f30 <schedule>
   83f94:	17fffffe 	b	83f8c <idle+0x8>

0000000000083f98 <thread_exit>:
   83f98:	a9bf7bfd 	stp	x29, x30, [sp, #-16]!
   83f9c:	910003fd 	mov	x29, sp
   83fa0:	97fff296 	bl	809f8 <lock>
   83fa4:	940008f2 	bl	8636c <get_current>
   83fa8:	aa0003e1 	mov	x1, x0
   83fac:	52800020 	mov	w0, #0x1                   	// #1
   83fb0:	b9009020 	str	w0, [x1, #144]
   83fb4:	97fff29e 	bl	80a2c <unlock>
   83fb8:	97ffffde 	bl	83f30 <schedule>
   83fbc:	d503201f 	nop
   83fc0:	a8c17bfd 	ldp	x29, x30, [sp], #16
   83fc4:	d65f03c0 	ret

0000000000083fc8 <kill_zombie>:
   83fc8:	a9be7bfd 	stp	x29, x30, [sp, #-32]!
   83fcc:	910003fd 	mov	x29, sp
   83fd0:	97fff28a 	bl	809f8 <lock>
   83fd4:	b0000020 	adrp	x0, 88000 <cmd_list+0x758>
   83fd8:	91286000 	add	x0, x0, #0xa18
   83fdc:	f9400000 	ldr	x0, [x0]
   83fe0:	f9403400 	ldr	x0, [x0, #104]
   83fe4:	f9000fe0 	str	x0, [sp, #24]
   83fe8:	1400001c 	b	84058 <kill_zombie+0x90>
   83fec:	f9400fe0 	ldr	x0, [sp, #24]
   83ff0:	b9409000 	ldr	w0, [x0, #144]
   83ff4:	7100001f 	cmp	w0, #0x0
   83ff8:	540002a0 	b.eq	8404c <kill_zombie+0x84>  // b.none
   83ffc:	f9400fe0 	ldr	x0, [sp, #24]
   84000:	f9403400 	ldr	x0, [x0, #104]
   84004:	f9400fe1 	ldr	x1, [sp, #24]
   84008:	f9403821 	ldr	x1, [x1, #112]
   8400c:	f9003801 	str	x1, [x0, #112]
   84010:	f9400fe0 	ldr	x0, [sp, #24]
   84014:	f9403800 	ldr	x0, [x0, #112]
   84018:	f9400fe1 	ldr	x1, [sp, #24]
   8401c:	f9403421 	ldr	x1, [x1, #104]
   84020:	f9003401 	str	x1, [x0, #104]
   84024:	f9400fe0 	ldr	x0, [sp, #24]
   84028:	f9405000 	ldr	x0, [x0, #160]
   8402c:	97fff786 	bl	81e44 <kfree>
   84030:	f9400fe0 	ldr	x0, [sp, #24]
   84034:	f9404c00 	ldr	x0, [x0, #152]
   84038:	97fff783 	bl	81e44 <kfree>
   8403c:	f9400fe0 	ldr	x0, [sp, #24]
   84040:	b9008c1f 	str	wzr, [x0, #140]
   84044:	f9400fe0 	ldr	x0, [sp, #24]
   84048:	b900901f 	str	wzr, [x0, #144]
   8404c:	f9400fe0 	ldr	x0, [sp, #24]
   84050:	f9403400 	ldr	x0, [x0, #104]
   84054:	f9000fe0 	str	x0, [sp, #24]
   84058:	90000020 	adrp	x0, 88000 <cmd_list+0x758>
   8405c:	91286000 	add	x0, x0, #0xa18
   84060:	f9400000 	ldr	x0, [x0]
   84064:	f9400fe1 	ldr	x1, [sp, #24]
   84068:	eb00003f 	cmp	x1, x0
   8406c:	54fffc01 	b.ne	83fec <kill_zombie+0x24>  // b.any
   84070:	97fff26f 	bl	80a2c <unlock>
   84074:	d503201f 	nop
   84078:	a8c27bfd 	ldp	x29, x30, [sp], #32
   8407c:	d65f03c0 	ret

0000000000084080 <thread_exec>:
   84080:	a9bd7bfd 	stp	x29, x30, [sp, #-48]!
   84084:	910003fd 	mov	x29, sp
   84088:	f9000fe0 	str	x0, [sp, #24]
   8408c:	b90017e1 	str	w1, [sp, #20]
   84090:	f9400fe0 	ldr	x0, [sp, #24]
   84094:	97ffff1d 	bl	83d08 <thread_create>
   84098:	f90017e0 	str	x0, [sp, #40]
   8409c:	f94017e0 	ldr	x0, [sp, #40]
   840a0:	b94017e1 	ldr	w1, [sp, #20]
   840a4:	b9008801 	str	w1, [x0, #136]
   840a8:	b94017e0 	ldr	w0, [sp, #20]
   840ac:	97fff756 	bl	81e04 <kmalloc>
   840b0:	aa0003e1 	mov	x1, x0
   840b4:	f94017e0 	ldr	x0, [sp, #40]
   840b8:	f9004001 	str	x1, [x0, #128]
   840bc:	f94017e0 	ldr	x0, [sp, #40]
   840c0:	f9404000 	ldr	x0, [x0, #128]
   840c4:	b94017e1 	ldr	w1, [sp, #20]
   840c8:	aa0103e2 	mov	x2, x1
   840cc:	f9400fe1 	ldr	x1, [sp, #24]
   840d0:	9400054c 	bl	85600 <memcpy>
   840d4:	f94017e0 	ldr	x0, [sp, #40]
   840d8:	f9404000 	ldr	x0, [x0, #128]
   840dc:	aa0003e1 	mov	x1, x0
   840e0:	f94017e0 	ldr	x0, [sp, #40]
   840e4:	f9002c01 	str	x1, [x0, #88]
   840e8:	f94017e0 	ldr	x0, [sp, #40]
   840ec:	d518d080 	msr	tpidr_el1, x0
   840f0:	f94017e0 	ldr	x0, [sp, #40]
   840f4:	f9402c00 	ldr	x0, [x0, #88]
   840f8:	d5184020 	msr	elr_el1, x0
   840fc:	52800000 	mov	w0, #0x0                   	// #0
   84100:	d5184000 	msr	spsr_el1, x0
   84104:	f94017e0 	ldr	x0, [sp, #40]
   84108:	f9403000 	ldr	x0, [x0, #96]
   8410c:	d5184100 	msr	sp_el0, x0
   84110:	f94017e0 	ldr	x0, [sp, #40]
   84114:	f9405000 	ldr	x0, [x0, #160]
   84118:	91400400 	add	x0, x0, #0x1, lsl #12
   8411c:	9100001f 	mov	sp, x0
   84120:	9400012c 	bl	845d0 <getTimerFreq>
   84124:	aa0003e2 	mov	x2, x0
   84128:	d0000000 	adrp	x0, 86000 <el1t_irq_invalid+0x74>
   8412c:	9127c001 	add	x1, x0, #0x9f0
   84130:	90000000 	adrp	x0, 84000 <kill_zombie+0x38>
   84134:	91053000 	add	x0, x0, #0x14c
   84138:	940000b7 	bl	84414 <add_timer>
   8413c:	d69f03e0 	eret
   84140:	d503201f 	nop
   84144:	a8c37bfd 	ldp	x29, x30, [sp], #48
   84148:	d65f03c0 	ret

000000000008414c <schedule_timer>:
   8414c:	a9bf7bfd 	stp	x29, x30, [sp, #-16]!
   84150:	910003fd 	mov	x29, sp
   84154:	9400011f 	bl	845d0 <getTimerFreq>
   84158:	9345fc00 	asr	x0, x0, #5
   8415c:	aa0003e2 	mov	x2, x0
   84160:	d0000000 	adrp	x0, 86000 <el1t_irq_invalid+0x74>
   84164:	9127e001 	add	x1, x0, #0x9f8
   84168:	90000000 	adrp	x0, 84000 <kill_zombie+0x38>
   8416c:	91053000 	add	x0, x0, #0x14c
   84170:	940000a9 	bl	84414 <add_timer>
   84174:	d503201f 	nop
   84178:	a8c17bfd 	ldp	x29, x30, [sp], #16
   8417c:	d65f03c0 	ret

0000000000084180 <foo>:
   84180:	a9be7bfd 	stp	x29, x30, [sp, #-32]!
   84184:	910003fd 	mov	x29, sp
   84188:	b9001fff 	str	wzr, [sp, #28]
   8418c:	14000017 	b	841e8 <foo+0x68>
   84190:	94000877 	bl	8636c <get_current>
   84194:	b9407800 	ldr	w0, [x0, #120]
   84198:	b9401fe2 	ldr	w2, [sp, #28]
   8419c:	2a0003e1 	mov	w1, w0
   841a0:	d0000000 	adrp	x0, 86000 <el1t_irq_invalid+0x74>
   841a4:	91282000 	add	x0, x0, #0xa08
   841a8:	940001c0 	bl	848a8 <uart_sendline>
   841ac:	b9001bff 	str	wzr, [sp, #24]
   841b0:	14000005 	b	841c4 <foo+0x44>
   841b4:	d503201f 	nop
   841b8:	b9401be0 	ldr	w0, [sp, #24]
   841bc:	11000400 	add	w0, w0, #0x1
   841c0:	b9001be0 	str	w0, [sp, #24]
   841c4:	b9401be1 	ldr	w1, [sp, #24]
   841c8:	5292cfe0 	mov	w0, #0x967f                	// #38527
   841cc:	72a01300 	movk	w0, #0x98, lsl #16
   841d0:	6b00003f 	cmp	w1, w0
   841d4:	54ffff0d 	b.le	841b4 <foo+0x34>
   841d8:	97ffff56 	bl	83f30 <schedule>
   841dc:	b9401fe0 	ldr	w0, [sp, #28]
   841e0:	11000400 	add	w0, w0, #0x1
   841e4:	b9001fe0 	str	w0, [sp, #28]
   841e8:	b9401fe0 	ldr	w0, [sp, #28]
   841ec:	7100241f 	cmp	w0, #0x9
   841f0:	54fffd0d 	b.le	84190 <foo+0x10>
   841f4:	97ffff69 	bl	83f98 <thread_exit>
   841f8:	d503201f 	nop
   841fc:	a8c27bfd 	ldp	x29, x30, [sp], #32
   84200:	d65f03c0 	ret
   84204:	00000000 	udf	#0

0000000000084208 <timer_list_init>:
   84208:	a9bf7bfd 	stp	x29, x30, [sp, #-16]!
   8420c:	910003fd 	mov	x29, sp
   84210:	52800500 	mov	w0, #0x28                  	// #40
   84214:	97fff3f7 	bl	811f0 <simple_malloc>
   84218:	aa0003e1 	mov	x1, x0
   8421c:	b0010b60 	adrp	x0, 21f1000 <_heap_stack_size+0x19f1000>
   84220:	9115e000 	add	x0, x0, #0x578
   84224:	f9000001 	str	x1, [x0]
   84228:	b0010b60 	adrp	x0, 21f1000 <_heap_stack_size+0x19f1000>
   8422c:	9115e000 	add	x0, x0, #0x578
   84230:	f9400000 	ldr	x0, [x0]
   84234:	b0010b61 	adrp	x1, 21f1000 <_heap_stack_size+0x19f1000>
   84238:	9115e021 	add	x1, x1, #0x578
   8423c:	f9400021 	ldr	x1, [x1]
   84240:	f9000001 	str	x1, [x0]
   84244:	b0010b60 	adrp	x0, 21f1000 <_heap_stack_size+0x19f1000>
   84248:	9115e000 	add	x0, x0, #0x578
   8424c:	f9400000 	ldr	x0, [x0]
   84250:	b0010b61 	adrp	x1, 21f1000 <_heap_stack_size+0x19f1000>
   84254:	9115e021 	add	x1, x1, #0x578
   84258:	f9400021 	ldr	x1, [x1]
   8425c:	f9000401 	str	x1, [x0, #8]
   84260:	d503201f 	nop
   84264:	a8c17bfd 	ldp	x29, x30, [sp], #16
   84268:	d65f03c0 	ret

000000000008426c <timer_list_insert_front>:
   8426c:	d10043ff 	sub	sp, sp, #0x10
   84270:	f90007e0 	str	x0, [sp, #8]
   84274:	f90003e1 	str	x1, [sp]
   84278:	f94003e0 	ldr	x0, [sp]
   8427c:	f9400401 	ldr	x1, [x0, #8]
   84280:	f94007e0 	ldr	x0, [sp, #8]
   84284:	f9000401 	str	x1, [x0, #8]
   84288:	f94007e0 	ldr	x0, [sp, #8]
   8428c:	f94003e1 	ldr	x1, [sp]
   84290:	f9000001 	str	x1, [x0]
   84294:	f94003e0 	ldr	x0, [sp]
   84298:	f9400400 	ldr	x0, [x0, #8]
   8429c:	f94007e1 	ldr	x1, [sp, #8]
   842a0:	f9000001 	str	x1, [x0]
   842a4:	f94003e0 	ldr	x0, [sp]
   842a8:	f94007e1 	ldr	x1, [sp, #8]
   842ac:	f9000401 	str	x1, [x0, #8]
   842b0:	d503201f 	nop
   842b4:	910043ff 	add	sp, sp, #0x10
   842b8:	d65f03c0 	ret

00000000000842bc <timer_init_interrupt>:
   842bc:	d10043ff 	sub	sp, sp, #0x10
   842c0:	d2800020 	mov	x0, #0x1                   	// #1
   842c4:	d51be220 	msr	cntp_ctl_el0, x0
   842c8:	d53be000 	mrs	x0, cntfrq_el0
   842cc:	9345fc00 	asr	x0, x0, #5
   842d0:	d51be200 	msr	cntp_tval_el0, x0
   842d4:	d2800040 	mov	x0, #0x2                   	// #2
   842d8:	58001881 	ldr	x1, 845e8 <getTimerFreq+0x18>
   842dc:	b9000020 	str	w0, [x1]
   842e0:	d538e100 	mrs	x0, cntkctl_el1
   842e4:	f90007e0 	str	x0, [sp, #8]
   842e8:	f94007e0 	ldr	x0, [sp, #8]
   842ec:	b2400000 	orr	x0, x0, #0x1
   842f0:	f90007e0 	str	x0, [sp, #8]
   842f4:	f94007e0 	ldr	x0, [sp, #8]
   842f8:	d518e100 	msr	cntkctl_el1, x0
   842fc:	d503201f 	nop
   84300:	910043ff 	add	sp, sp, #0x10
   84304:	d65f03c0 	ret

0000000000084308 <timer_enable_interrupt>:
   84308:	d2800020 	mov	x0, #0x1                   	// #1
   8430c:	d51be220 	msr	cntp_ctl_el0, x0
   84310:	d503201f 	nop
   84314:	d65f03c0 	ret

0000000000084318 <timer_disable_interrupt>:
   84318:	d2800000 	mov	x0, #0x0                   	// #0
   8431c:	d51be220 	msr	cntp_ctl_el0, x0
   84320:	d503201f 	nop
   84324:	d65f03c0 	ret

0000000000084328 <timer_handler>:
   84328:	a9be7bfd 	stp	x29, x30, [sp, #-32]!
   8432c:	910003fd 	mov	x29, sp
   84330:	b0010b60 	adrp	x0, 21f1000 <_heap_stack_size+0x19f1000>
   84334:	9115e000 	add	x0, x0, #0x578
   84338:	f9400000 	ldr	x0, [x0]
   8433c:	f9400000 	ldr	x0, [x0]
   84340:	f9000fe0 	str	x0, [sp, #24]
   84344:	b0010b60 	adrp	x0, 21f1000 <_heap_stack_size+0x19f1000>
   84348:	9115e000 	add	x0, x0, #0x578
   8434c:	f9400000 	ldr	x0, [x0]
   84350:	f9400001 	ldr	x1, [x0]
   84354:	b0010b60 	adrp	x0, 21f1000 <_heap_stack_size+0x19f1000>
   84358:	9115e000 	add	x0, x0, #0x578
   8435c:	f9400000 	ldr	x0, [x0]
   84360:	eb00003f 	cmp	x1, x0
   84364:	540002c0 	b.eq	843bc <timer_handler+0x94>  // b.none
   84368:	f9400fe0 	ldr	x0, [sp, #24]
   8436c:	f9400c00 	ldr	x0, [x0, #24]
   84370:	aa0003e1 	mov	x1, x0
   84374:	f9400fe0 	ldr	x0, [sp, #24]
   84378:	f9401000 	ldr	x0, [x0, #32]
   8437c:	d63f0020 	blr	x1
   84380:	f9400fe0 	ldr	x0, [sp, #24]
   84384:	f9400400 	ldr	x0, [x0, #8]
   84388:	f9400fe1 	ldr	x1, [sp, #24]
   8438c:	f9400021 	ldr	x1, [x1]
   84390:	f9000001 	str	x1, [x0]
   84394:	f9400fe0 	ldr	x0, [sp, #24]
   84398:	f9400000 	ldr	x0, [x0]
   8439c:	f9400fe1 	ldr	x1, [sp, #24]
   843a0:	f9400421 	ldr	x1, [x1, #8]
   843a4:	f9000401 	str	x1, [x0, #8]
   843a8:	f9400fe0 	ldr	x0, [sp, #24]
   843ac:	f9401000 	ldr	x0, [x0, #32]
   843b0:	97fff3aa 	bl	81258 <free>
   843b4:	f9400fe0 	ldr	x0, [sp, #24]
   843b8:	97fff3a8 	bl	81258 <free>
   843bc:	b0010b60 	adrp	x0, 21f1000 <_heap_stack_size+0x19f1000>
   843c0:	9115e000 	add	x0, x0, #0x578
   843c4:	f9400000 	ldr	x0, [x0]
   843c8:	f9400001 	ldr	x1, [x0]
   843cc:	b0010b60 	adrp	x0, 21f1000 <_heap_stack_size+0x19f1000>
   843d0:	9115e000 	add	x0, x0, #0x578
   843d4:	f9400000 	ldr	x0, [x0]
   843d8:	eb00003f 	cmp	x1, x0
   843dc:	54000100 	b.eq	843fc <timer_handler+0xd4>  // b.none
   843e0:	b0010b60 	adrp	x0, 21f1000 <_heap_stack_size+0x19f1000>
   843e4:	9115e000 	add	x0, x0, #0x578
   843e8:	f9400000 	ldr	x0, [x0]
   843ec:	f9400000 	ldr	x0, [x0]
   843f0:	f9400800 	ldr	x0, [x0, #16]
   843f4:	94000070 	bl	845b4 <set_timer_interrupt_by_tick>
   843f8:	14000004 	b	84408 <timer_handler+0xe0>
   843fc:	d290d3e0 	mov	x0, #0x869f                	// #34463
   84400:	f2a00020 	movk	x0, #0x1, lsl #16
   84404:	94000063 	bl	84590 <set_timer_interrupt>
   84408:	d503201f 	nop
   8440c:	a8c27bfd 	ldp	x29, x30, [sp], #32
   84410:	d65f03c0 	ret

0000000000084414 <add_timer>:
   84414:	a9bb7bfd 	stp	x29, x30, [sp, #-80]!
   84418:	910003fd 	mov	x29, sp
   8441c:	f90017e0 	str	x0, [sp, #40]
   84420:	f90013e1 	str	x1, [sp, #32]
   84424:	f9000fe2 	str	x2, [sp, #24]
   84428:	52800500 	mov	w0, #0x28                  	// #40
   8442c:	97fff371 	bl	811f0 <simple_malloc>
   84430:	f90023e0 	str	x0, [sp, #64]
   84434:	b0010b60 	adrp	x0, 21f1000 <_heap_stack_size+0x19f1000>
   84438:	9115e000 	add	x0, x0, #0x578
   8443c:	f9400001 	ldr	x1, [x0]
   84440:	f94023e0 	ldr	x0, [sp, #64]
   84444:	f9000001 	str	x1, [x0]
   84448:	b0010b60 	adrp	x0, 21f1000 <_heap_stack_size+0x19f1000>
   8444c:	9115e000 	add	x0, x0, #0x578
   84450:	f9400001 	ldr	x1, [x0]
   84454:	f94023e0 	ldr	x0, [sp, #64]
   84458:	f9000401 	str	x1, [x0, #8]
   8445c:	f94023e0 	ldr	x0, [sp, #64]
   84460:	f94017e1 	ldr	x1, [sp, #40]
   84464:	f9000c01 	str	x1, [x0, #24]
   84468:	d53be020 	mrs	x0, cntpct_el0
   8446c:	f9001fe0 	str	x0, [sp, #56]
   84470:	f9400fe1 	ldr	x1, [sp, #24]
   84474:	f9401fe0 	ldr	x0, [sp, #56]
   84478:	8b000021 	add	x1, x1, x0
   8447c:	f94023e0 	ldr	x0, [sp, #64]
   84480:	f9000801 	str	x1, [x0, #16]
   84484:	f94013e0 	ldr	x0, [sp, #32]
   84488:	940003a3 	bl	85314 <strlen>
   8448c:	11000400 	add	w0, w0, #0x1
   84490:	97fff358 	bl	811f0 <simple_malloc>
   84494:	aa0003e1 	mov	x1, x0
   84498:	f94023e0 	ldr	x0, [sp, #64]
   8449c:	f9001001 	str	x1, [x0, #32]
   844a0:	f94023e0 	ldr	x0, [sp, #64]
   844a4:	f9401000 	ldr	x0, [x0, #32]
   844a8:	f94013e1 	ldr	x1, [sp, #32]
   844ac:	9400046e 	bl	85664 <strcpy>
   844b0:	b0010b60 	adrp	x0, 21f1000 <_heap_stack_size+0x19f1000>
   844b4:	9115e000 	add	x0, x0, #0x578
   844b8:	f9400000 	ldr	x0, [x0]
   844bc:	f9400000 	ldr	x0, [x0]
   844c0:	f90027e0 	str	x0, [sp, #72]
   844c4:	1400000e 	b	844fc <add_timer+0xe8>
   844c8:	f94023e0 	ldr	x0, [sp, #64]
   844cc:	f9400801 	ldr	x1, [x0, #16]
   844d0:	f94027e0 	ldr	x0, [sp, #72]
   844d4:	f9400800 	ldr	x0, [x0, #16]
   844d8:	eb00003f 	cmp	x1, x0
   844dc:	540000a2 	b.cs	844f0 <add_timer+0xdc>  // b.hs, b.nlast
   844e0:	f94027e1 	ldr	x1, [sp, #72]
   844e4:	f94023e0 	ldr	x0, [sp, #64]
   844e8:	97ffff61 	bl	8426c <timer_list_insert_front>
   844ec:	1400000a 	b	84514 <add_timer+0x100>
   844f0:	f94027e0 	ldr	x0, [sp, #72]
   844f4:	f9400000 	ldr	x0, [x0]
   844f8:	f90027e0 	str	x0, [sp, #72]
   844fc:	b0010b60 	adrp	x0, 21f1000 <_heap_stack_size+0x19f1000>
   84500:	9115e000 	add	x0, x0, #0x578
   84504:	f9400000 	ldr	x0, [x0]
   84508:	f94027e1 	ldr	x1, [sp, #72]
   8450c:	eb00003f 	cmp	x1, x0
   84510:	54fffdc1 	b.ne	844c8 <add_timer+0xb4>  // b.any
   84514:	b0010b60 	adrp	x0, 21f1000 <_heap_stack_size+0x19f1000>
   84518:	9115e000 	add	x0, x0, #0x578
   8451c:	f9400000 	ldr	x0, [x0]
   84520:	f94027e1 	ldr	x1, [sp, #72]
   84524:	eb00003f 	cmp	x1, x0
   84528:	540000e1 	b.ne	84544 <add_timer+0x130>  // b.any
   8452c:	b0010b60 	adrp	x0, 21f1000 <_heap_stack_size+0x19f1000>
   84530:	9115e000 	add	x0, x0, #0x578
   84534:	f9400000 	ldr	x0, [x0]
   84538:	aa0003e1 	mov	x1, x0
   8453c:	f94023e0 	ldr	x0, [sp, #64]
   84540:	97ffff4b 	bl	8426c <timer_list_insert_front>
   84544:	b0010b60 	adrp	x0, 21f1000 <_heap_stack_size+0x19f1000>
   84548:	9115e000 	add	x0, x0, #0x578
   8454c:	f9400000 	ldr	x0, [x0]
   84550:	f9400000 	ldr	x0, [x0]
   84554:	f9400800 	ldr	x0, [x0, #16]
   84558:	94000017 	bl	845b4 <set_timer_interrupt_by_tick>
   8455c:	d503201f 	nop
   84560:	a8c57bfd 	ldp	x29, x30, [sp], #80
   84564:	d65f03c0 	ret

0000000000084568 <timer_print_msg>:
   84568:	a9be7bfd 	stp	x29, x30, [sp, #-32]!
   8456c:	910003fd 	mov	x29, sp
   84570:	f9000fe0 	str	x0, [sp, #24]
   84574:	f9400fe1 	ldr	x1, [sp, #24]
   84578:	d0000000 	adrp	x0, 86000 <el1t_irq_invalid+0x74>
   8457c:	91288000 	add	x0, x0, #0xa20
   84580:	940000ca 	bl	848a8 <uart_sendline>
   84584:	d503201f 	nop
   84588:	a8c27bfd 	ldp	x29, x30, [sp], #32
   8458c:	d65f03c0 	ret

0000000000084590 <set_timer_interrupt>:
   84590:	d10043ff 	sub	sp, sp, #0x10
   84594:	f90007e0 	str	x0, [sp, #8]
   84598:	d53be001 	mrs	x1, cntfrq_el0
   8459c:	f94007e0 	ldr	x0, [sp, #8]
   845a0:	9b007c21 	mul	x1, x1, x0
   845a4:	d51be241 	msr	cntp_cval_el0, x1
   845a8:	d503201f 	nop
   845ac:	910043ff 	add	sp, sp, #0x10
   845b0:	d65f03c0 	ret

00000000000845b4 <set_timer_interrupt_by_tick>:
   845b4:	d10043ff 	sub	sp, sp, #0x10
   845b8:	f90007e0 	str	x0, [sp, #8]
   845bc:	f94007e0 	ldr	x0, [sp, #8]
   845c0:	d51be240 	msr	cntp_cval_el0, x0
   845c4:	d503201f 	nop
   845c8:	910043ff 	add	sp, sp, #0x10
   845cc:	d65f03c0 	ret

00000000000845d0 <getTimerFreq>:
   845d0:	d10043ff 	sub	sp, sp, #0x10
   845d4:	d53be000 	mrs	x0, cntfrq_el0
   845d8:	f90007e0 	str	x0, [sp, #8]
   845dc:	f94007e0 	ldr	x0, [sp, #8]
   845e0:	910043ff 	add	sp, sp, #0x10
   845e4:	d65f03c0 	ret
   845e8:	40000040 	.inst	0x40000040 ; undefined
   845ec:	00000000 	udf	#0

00000000000845f0 <uart_init>:
   845f0:	f81f0ff3 	str	x19, [sp, #-16]!
   845f4:	d28a0080 	mov	x0, #0x5004                	// #20484
   845f8:	f2a7e420 	movk	x0, #0x3f21, lsl #16
   845fc:	b9400001 	ldr	w1, [x0]
   84600:	d28a0080 	mov	x0, #0x5004                	// #20484
   84604:	f2a7e420 	movk	x0, #0x3f21, lsl #16
   84608:	32000021 	orr	w1, w1, #0x1
   8460c:	b9000001 	str	w1, [x0]
   84610:	d28a0c00 	mov	x0, #0x5060                	// #20576
   84614:	f2a7e420 	movk	x0, #0x3f21, lsl #16
   84618:	b900001f 	str	wzr, [x0]
   8461c:	d28a0880 	mov	x0, #0x5044                	// #20548
   84620:	f2a7e420 	movk	x0, #0x3f21, lsl #16
   84624:	b900001f 	str	wzr, [x0]
   84628:	d28a0980 	mov	x0, #0x504c                	// #20556
   8462c:	f2a7e420 	movk	x0, #0x3f21, lsl #16
   84630:	52800061 	mov	w1, #0x3                   	// #3
   84634:	b9000001 	str	w1, [x0]
   84638:	d28a0a00 	mov	x0, #0x5050                	// #20560
   8463c:	f2a7e420 	movk	x0, #0x3f21, lsl #16
   84640:	b900001f 	str	wzr, [x0]
   84644:	d28a0d00 	mov	x0, #0x5068                	// #20584
   84648:	f2a7e420 	movk	x0, #0x3f21, lsl #16
   8464c:	528021c1 	mov	w1, #0x10e                 	// #270
   84650:	b9000001 	str	w1, [x0]
   84654:	d28a0900 	mov	x0, #0x5048                	// #20552
   84658:	f2a7e420 	movk	x0, #0x3f21, lsl #16
   8465c:	528000c1 	mov	w1, #0x6                   	// #6
   84660:	b9000001 	str	w1, [x0]
   84664:	d2800080 	mov	x0, #0x4                   	// #4
   84668:	f2a7e400 	movk	x0, #0x3f20, lsl #16
   8466c:	b9400013 	ldr	w19, [x0]
   84670:	12117273 	and	w19, w19, #0xffff8fff
   84674:	32130273 	orr	w19, w19, #0x2000
   84678:	120e7273 	and	w19, w19, #0xfffc7fff
   8467c:	32100273 	orr	w19, w19, #0x10000
   84680:	d2800080 	mov	x0, #0x4                   	// #4
   84684:	f2a7e400 	movk	x0, #0x3f20, lsl #16
   84688:	b9000013 	str	w19, [x0]
   8468c:	d2801280 	mov	x0, #0x94                  	// #148
   84690:	f2a7e400 	movk	x0, #0x3f20, lsl #16
   84694:	b900001f 	str	wzr, [x0]
   84698:	528012d3 	mov	w19, #0x96                  	// #150
   8469c:	14000002 	b	846a4 <uart_init+0xb4>
   846a0:	d503201f 	nop
   846a4:	2a1303e0 	mov	w0, w19
   846a8:	51000413 	sub	w19, w0, #0x1
   846ac:	7100001f 	cmp	w0, #0x0
   846b0:	54ffff81 	b.ne	846a0 <uart_init+0xb0>  // b.any
   846b4:	d2801300 	mov	x0, #0x98                  	// #152
   846b8:	f2a7e400 	movk	x0, #0x3f20, lsl #16
   846bc:	52980001 	mov	w1, #0xc000                	// #49152
   846c0:	b9000001 	str	w1, [x0]
   846c4:	528012d3 	mov	w19, #0x96                  	// #150
   846c8:	14000002 	b	846d0 <uart_init+0xe0>
   846cc:	d503201f 	nop
   846d0:	2a1303e0 	mov	w0, w19
   846d4:	51000413 	sub	w19, w0, #0x1
   846d8:	7100001f 	cmp	w0, #0x0
   846dc:	54ffff81 	b.ne	846cc <uart_init+0xdc>  // b.any
   846e0:	d2801300 	mov	x0, #0x98                  	// #152
   846e4:	f2a7e400 	movk	x0, #0x3f20, lsl #16
   846e8:	b900001f 	str	wzr, [x0]
   846ec:	d28a0c00 	mov	x0, #0x5060                	// #20576
   846f0:	f2a7e420 	movk	x0, #0x3f21, lsl #16
   846f4:	52800061 	mov	w1, #0x3                   	// #3
   846f8:	b9000001 	str	w1, [x0]
   846fc:	d2964200 	mov	x0, #0xb210                	// #45584
   84700:	f2a7e000 	movk	x0, #0x3f00, lsl #16
   84704:	b9400001 	ldr	w1, [x0]
   84708:	d2964200 	mov	x0, #0xb210                	// #45584
   8470c:	f2a7e000 	movk	x0, #0x3f00, lsl #16
   84710:	32030021 	orr	w1, w1, #0x20000000
   84714:	b9000001 	str	w1, [x0]
   84718:	d503201f 	nop
   8471c:	f84107f3 	ldr	x19, [sp], #16
   84720:	d65f03c0 	ret

0000000000084724 <uart_getc>:
   84724:	d10043ff 	sub	sp, sp, #0x10
   84728:	d503201f 	nop
   8472c:	d28a0a80 	mov	x0, #0x5054                	// #20564
   84730:	f2a7e420 	movk	x0, #0x3f21, lsl #16
   84734:	b9400000 	ldr	w0, [x0]
   84738:	12000000 	and	w0, w0, #0x1
   8473c:	7100001f 	cmp	w0, #0x0
   84740:	54ffff60 	b.eq	8472c <uart_getc+0x8>  // b.none
   84744:	d28a0800 	mov	x0, #0x5040                	// #20544
   84748:	f2a7e420 	movk	x0, #0x3f21, lsl #16
   8474c:	b9400000 	ldr	w0, [x0]
   84750:	39003fe0 	strb	w0, [sp, #15]
   84754:	39403fe0 	ldrb	w0, [sp, #15]
   84758:	910043ff 	add	sp, sp, #0x10
   8475c:	d65f03c0 	ret

0000000000084760 <uart_recv>:
   84760:	a9be7bfd 	stp	x29, x30, [sp, #-32]!
   84764:	910003fd 	mov	x29, sp
   84768:	d503201f 	nop
   8476c:	d28a0a80 	mov	x0, #0x5054                	// #20564
   84770:	f2a7e420 	movk	x0, #0x3f21, lsl #16
   84774:	b9400000 	ldr	w0, [x0]
   84778:	12000000 	and	w0, w0, #0x1
   8477c:	7100001f 	cmp	w0, #0x0
   84780:	54ffff60 	b.eq	8476c <uart_recv+0xc>  // b.none
   84784:	d28a0800 	mov	x0, #0x5040                	// #20544
   84788:	f2a7e420 	movk	x0, #0x3f21, lsl #16
   8478c:	b9400000 	ldr	w0, [x0]
   84790:	39007fe0 	strb	w0, [sp, #31]
   84794:	90000020 	adrp	x0, 88000 <cmd_list+0x758>
   84798:	911ea000 	add	x0, x0, #0x7a8
   8479c:	b9400000 	ldr	w0, [x0]
   847a0:	7100001f 	cmp	w0, #0x0
   847a4:	54000100 	b.eq	847c4 <uart_recv+0x64>  // b.none
   847a8:	39407fe0 	ldrb	w0, [sp, #31]
   847ac:	9400000e 	bl	847e4 <uart_send>
   847b0:	39407fe0 	ldrb	w0, [sp, #31]
   847b4:	7100341f 	cmp	w0, #0xd
   847b8:	54000061 	b.ne	847c4 <uart_recv+0x64>  // b.any
   847bc:	52800140 	mov	w0, #0xa                   	// #10
   847c0:	94000009 	bl	847e4 <uart_send>
   847c4:	39407fe0 	ldrb	w0, [sp, #31]
   847c8:	7100341f 	cmp	w0, #0xd
   847cc:	54000060 	b.eq	847d8 <uart_recv+0x78>  // b.none
   847d0:	39407fe0 	ldrb	w0, [sp, #31]
   847d4:	14000002 	b	847dc <uart_recv+0x7c>
   847d8:	52800140 	mov	w0, #0xa                   	// #10
   847dc:	a8c27bfd 	ldp	x29, x30, [sp], #32
   847e0:	d65f03c0 	ret

00000000000847e4 <uart_send>:
   847e4:	d10043ff 	sub	sp, sp, #0x10
   847e8:	39003fe0 	strb	w0, [sp, #15]
   847ec:	d503201f 	nop
   847f0:	d28a0a80 	mov	x0, #0x5054                	// #20564
   847f4:	f2a7e420 	movk	x0, #0x3f21, lsl #16
   847f8:	b9400000 	ldr	w0, [x0]
   847fc:	121b0000 	and	w0, w0, #0x20
   84800:	7100001f 	cmp	w0, #0x0
   84804:	54ffff60 	b.eq	847f0 <uart_send+0xc>  // b.none
   84808:	d28a0800 	mov	x0, #0x5040                	// #20544
   8480c:	f2a7e420 	movk	x0, #0x3f21, lsl #16
   84810:	39403fe1 	ldrb	w1, [sp, #15]
   84814:	b9000001 	str	w1, [x0]
   84818:	d503201f 	nop
   8481c:	910043ff 	add	sp, sp, #0x10
   84820:	d65f03c0 	ret

0000000000084824 <uart_2hex>:
   84824:	a9bd7bfd 	stp	x29, x30, [sp, #-48]!
   84828:	910003fd 	mov	x29, sp
   8482c:	b9001fe0 	str	w0, [sp, #28]
   84830:	52800380 	mov	w0, #0x1c                  	// #28
   84834:	b9002fe0 	str	w0, [sp, #44]
   84838:	14000015 	b	8488c <uart_2hex+0x68>
   8483c:	b9402fe0 	ldr	w0, [sp, #44]
   84840:	b9401fe1 	ldr	w1, [sp, #28]
   84844:	1ac02420 	lsr	w0, w1, w0
   84848:	12000c00 	and	w0, w0, #0xf
   8484c:	b9002be0 	str	w0, [sp, #40]
   84850:	b9402be0 	ldr	w0, [sp, #40]
   84854:	7100241f 	cmp	w0, #0x9
   84858:	54000069 	b.ls	84864 <uart_2hex+0x40>  // b.plast
   8485c:	528006e0 	mov	w0, #0x37                  	// #55
   84860:	14000002 	b	84868 <uart_2hex+0x44>
   84864:	52800600 	mov	w0, #0x30                  	// #48
   84868:	b9402be1 	ldr	w1, [sp, #40]
   8486c:	0b000020 	add	w0, w1, w0
   84870:	b9002be0 	str	w0, [sp, #40]
   84874:	b9402be0 	ldr	w0, [sp, #40]
   84878:	12001c00 	and	w0, w0, #0xff
   8487c:	97ffffda 	bl	847e4 <uart_send>
   84880:	b9402fe0 	ldr	w0, [sp, #44]
   84884:	51001000 	sub	w0, w0, #0x4
   84888:	b9002fe0 	str	w0, [sp, #44]
   8488c:	b9402fe0 	ldr	w0, [sp, #44]
   84890:	7100001f 	cmp	w0, #0x0
   84894:	54fffd4a 	b.ge	8483c <uart_2hex+0x18>  // b.tcont
   84898:	d503201f 	nop
   8489c:	d503201f 	nop
   848a0:	a8c37bfd 	ldp	x29, x30, [sp], #48
   848a4:	d65f03c0 	ret

00000000000848a8 <uart_sendline>:
   848a8:	a9a57bfd 	stp	x29, x30, [sp, #-432]!
   848ac:	910003fd 	mov	x29, sp
   848b0:	f9001fe0 	str	x0, [sp, #56]
   848b4:	f900bfe1 	str	x1, [sp, #376]
   848b8:	f900c3e2 	str	x2, [sp, #384]
   848bc:	f900c7e3 	str	x3, [sp, #392]
   848c0:	f900cbe4 	str	x4, [sp, #400]
   848c4:	f900cfe5 	str	x5, [sp, #408]
   848c8:	f900d3e6 	str	x6, [sp, #416]
   848cc:	f900d7e7 	str	x7, [sp, #424]
   848d0:	9106c3e0 	add	x0, sp, #0x1b0
   848d4:	f900a3e0 	str	x0, [sp, #320]
   848d8:	9106c3e0 	add	x0, sp, #0x1b0
   848dc:	f900a7e0 	str	x0, [sp, #328]
   848e0:	9105c3e0 	add	x0, sp, #0x170
   848e4:	f900abe0 	str	x0, [sp, #336]
   848e8:	128006e0 	mov	w0, #0xffffffc8            	// #-56
   848ec:	b9015be0 	str	w0, [sp, #344]
   848f0:	b9015fff 	str	wzr, [sp, #348]
   848f4:	910103e0 	add	x0, sp, #0x40
   848f8:	f900b7e0 	str	x0, [sp, #360]
   848fc:	910043e2 	add	x2, sp, #0x10
   84900:	910503e3 	add	x3, sp, #0x140
   84904:	a9400460 	ldp	x0, x1, [x3]
   84908:	a9000440 	stp	x0, x1, [x2]
   8490c:	a9410460 	ldp	x0, x1, [x3, #16]
   84910:	a9010440 	stp	x0, x1, [x2, #16]
   84914:	910043e0 	add	x0, sp, #0x10
   84918:	aa0003e2 	mov	x2, x0
   8491c:	f9401fe1 	ldr	x1, [sp, #56]
   84920:	f940b7e0 	ldr	x0, [sp, #360]
   84924:	940000e1 	bl	84ca8 <vsprintf>
   84928:	b90167e0 	str	w0, [sp, #356]
   8492c:	1400000c 	b	8495c <uart_sendline+0xb4>
   84930:	f940b7e0 	ldr	x0, [sp, #360]
   84934:	39400000 	ldrb	w0, [x0]
   84938:	7100281f 	cmp	w0, #0xa
   8493c:	54000061 	b.ne	84948 <uart_sendline+0xa0>  // b.any
   84940:	528001a0 	mov	w0, #0xd                   	// #13
   84944:	97ffffa8 	bl	847e4 <uart_send>
   84948:	f940b7e0 	ldr	x0, [sp, #360]
   8494c:	91000401 	add	x1, x0, #0x1
   84950:	f900b7e1 	str	x1, [sp, #360]
   84954:	39400000 	ldrb	w0, [x0]
   84958:	97ffffa3 	bl	847e4 <uart_send>
   8495c:	f940b7e0 	ldr	x0, [sp, #360]
   84960:	39400000 	ldrb	w0, [x0]
   84964:	7100001f 	cmp	w0, #0x0
   84968:	54fffe41 	b.ne	84930 <uart_sendline+0x88>  // b.any
   8496c:	b94167e0 	ldr	w0, [sp, #356]
   84970:	a8db7bfd 	ldp	x29, x30, [sp], #432
   84974:	d65f03c0 	ret

0000000000084978 <uart_tx_irq_handler>:
   84978:	a9bf7bfd 	stp	x29, x30, [sp, #-16]!
   8497c:	910003fd 	mov	x29, sp
   84980:	b0010b60 	adrp	x0, 21f1000 <_heap_stack_size+0x19f1000>
   84984:	911e1000 	add	x0, x0, #0x784
   84988:	b9400001 	ldr	w1, [x0]
   8498c:	b0010b60 	adrp	x0, 21f1000 <_heap_stack_size+0x19f1000>
   84990:	911e0000 	add	x0, x0, #0x780
   84994:	b9400000 	ldr	w0, [x0]
   84998:	6b00003f 	cmp	w1, w0
   8499c:	54000061 	b.ne	849a8 <uart_tx_irq_handler+0x30>  // b.any
   849a0:	940000b9 	bl	84c84 <uart_tx_irq_disable>
   849a4:	14000020 	b	84a24 <uart_tx_irq_handler+0xac>
   849a8:	940000b7 	bl	84c84 <uart_tx_irq_disable>
   849ac:	14000016 	b	84a04 <uart_tx_irq_handler+0x8c>
   849b0:	b0010b60 	adrp	x0, 21f1000 <_heap_stack_size+0x19f1000>
   849b4:	911e0000 	add	x0, x0, #0x780
   849b8:	b9400000 	ldr	w0, [x0]
   849bc:	11000402 	add	w2, w0, #0x1
   849c0:	b0010b61 	adrp	x1, 21f1000 <_heap_stack_size+0x19f1000>
   849c4:	911e0021 	add	x1, x1, #0x780
   849c8:	b9000022 	str	w2, [x1]
   849cc:	b0010b61 	adrp	x1, 21f1000 <_heap_stack_size+0x19f1000>
   849d0:	91160021 	add	x1, x1, #0x580
   849d4:	2a0003e0 	mov	w0, w0
   849d8:	38606821 	ldrb	w1, [x1, x0]
   849dc:	d28a0800 	mov	x0, #0x5040                	// #20544
   849e0:	f2a7e420 	movk	x0, #0x3f21, lsl #16
   849e4:	b9000001 	str	w1, [x0]
   849e8:	b0010b60 	adrp	x0, 21f1000 <_heap_stack_size+0x19f1000>
   849ec:	911e0000 	add	x0, x0, #0x780
   849f0:	b9400000 	ldr	w0, [x0]
   849f4:	12001c01 	and	w1, w0, #0xff
   849f8:	b0010b60 	adrp	x0, 21f1000 <_heap_stack_size+0x19f1000>
   849fc:	911e0000 	add	x0, x0, #0x780
   84a00:	b9000001 	str	w1, [x0]
   84a04:	b0010b60 	adrp	x0, 21f1000 <_heap_stack_size+0x19f1000>
   84a08:	911e0000 	add	x0, x0, #0x780
   84a0c:	b9400001 	ldr	w1, [x0]
   84a10:	b0010b60 	adrp	x0, 21f1000 <_heap_stack_size+0x19f1000>
   84a14:	911e1000 	add	x0, x0, #0x784
   84a18:	b9400000 	ldr	w0, [x0]
   84a1c:	6b00003f 	cmp	w1, w0
   84a20:	54fffc81 	b.ne	849b0 <uart_tx_irq_handler+0x38>  // b.any
   84a24:	a8c17bfd 	ldp	x29, x30, [sp], #16
   84a28:	d65f03c0 	ret

0000000000084a2c <uart_rx_irq_handler>:
   84a2c:	a9be7bfd 	stp	x29, x30, [sp, #-32]!
   84a30:	910003fd 	mov	x29, sp
   84a34:	f9000bf3 	str	x19, [sp, #16]
   84a38:	b0010b60 	adrp	x0, 21f1000 <_heap_stack_size+0x19f1000>
   84a3c:	911e3000 	add	x0, x0, #0x78c
   84a40:	b9400000 	ldr	w0, [x0]
   84a44:	11000400 	add	w0, w0, #0x1
   84a48:	12001c01 	and	w1, w0, #0xff
   84a4c:	b0010b60 	adrp	x0, 21f1000 <_heap_stack_size+0x19f1000>
   84a50:	911e2000 	add	x0, x0, #0x788
   84a54:	b9400000 	ldr	w0, [x0]
   84a58:	6b00003f 	cmp	w1, w0
   84a5c:	54000061 	b.ne	84a68 <uart_rx_irq_handler+0x3c>  // b.any
   84a60:	94000077 	bl	84c3c <uart_rx_irq_disable>
   84a64:	14000021 	b	84ae8 <uart_rx_irq_handler+0xbc>
   84a68:	94000075 	bl	84c3c <uart_rx_irq_disable>
   84a6c:	14000015 	b	84ac0 <uart_rx_irq_handler+0x94>
   84a70:	b0010b60 	adrp	x0, 21f1000 <_heap_stack_size+0x19f1000>
   84a74:	911e3000 	add	x0, x0, #0x78c
   84a78:	b9400013 	ldr	w19, [x0]
   84a7c:	11000661 	add	w1, w19, #0x1
   84a80:	b0010b60 	adrp	x0, 21f1000 <_heap_stack_size+0x19f1000>
   84a84:	911e3000 	add	x0, x0, #0x78c
   84a88:	b9000001 	str	w1, [x0]
   84a8c:	97ffff35 	bl	84760 <uart_recv>
   84a90:	12001c02 	and	w2, w0, #0xff
   84a94:	b0010b60 	adrp	x0, 21f1000 <_heap_stack_size+0x19f1000>
   84a98:	911a0001 	add	x1, x0, #0x680
   84a9c:	2a1303e0 	mov	w0, w19
   84aa0:	38206822 	strb	w2, [x1, x0]
   84aa4:	b0010b60 	adrp	x0, 21f1000 <_heap_stack_size+0x19f1000>
   84aa8:	911e3000 	add	x0, x0, #0x78c
   84aac:	b9400000 	ldr	w0, [x0]
   84ab0:	12001c01 	and	w1, w0, #0xff
   84ab4:	b0010b60 	adrp	x0, 21f1000 <_heap_stack_size+0x19f1000>
   84ab8:	911e3000 	add	x0, x0, #0x78c
   84abc:	b9000001 	str	w1, [x0]
   84ac0:	b0010b60 	adrp	x0, 21f1000 <_heap_stack_size+0x19f1000>
   84ac4:	911e2000 	add	x0, x0, #0x788
   84ac8:	b9400000 	ldr	w0, [x0]
   84acc:	11000400 	add	w0, w0, #0x1
   84ad0:	12001c01 	and	w1, w0, #0xff
   84ad4:	b0010b60 	adrp	x0, 21f1000 <_heap_stack_size+0x19f1000>
   84ad8:	911e3000 	add	x0, x0, #0x78c
   84adc:	b9400000 	ldr	w0, [x0]
   84ae0:	6b00003f 	cmp	w1, w0
   84ae4:	54fffc61 	b.ne	84a70 <uart_rx_irq_handler+0x44>  // b.any
   84ae8:	f9400bf3 	ldr	x19, [sp, #16]
   84aec:	a8c27bfd 	ldp	x29, x30, [sp], #32
   84af0:	d65f03c0 	ret

0000000000084af4 <uart_async_putc>:
   84af4:	a9be7bfd 	stp	x29, x30, [sp, #-32]!
   84af8:	910003fd 	mov	x29, sp
   84afc:	39007fe0 	strb	w0, [sp, #31]
   84b00:	d503201f 	nop
   84b04:	b0010b60 	adrp	x0, 21f1000 <_heap_stack_size+0x19f1000>
   84b08:	911e1000 	add	x0, x0, #0x784
   84b0c:	b9400000 	ldr	w0, [x0]
   84b10:	11000400 	add	w0, w0, #0x1
   84b14:	12001c01 	and	w1, w0, #0xff
   84b18:	b0010b60 	adrp	x0, 21f1000 <_heap_stack_size+0x19f1000>
   84b1c:	911e0000 	add	x0, x0, #0x780
   84b20:	b9400000 	ldr	w0, [x0]
   84b24:	6b00003f 	cmp	w1, w0
   84b28:	54fffee0 	b.eq	84b04 <uart_async_putc+0x10>  // b.none
   84b2c:	94000056 	bl	84c84 <uart_tx_irq_disable>
   84b30:	b0010b60 	adrp	x0, 21f1000 <_heap_stack_size+0x19f1000>
   84b34:	911e1000 	add	x0, x0, #0x784
   84b38:	b9400000 	ldr	w0, [x0]
   84b3c:	11000402 	add	w2, w0, #0x1
   84b40:	b0010b61 	adrp	x1, 21f1000 <_heap_stack_size+0x19f1000>
   84b44:	911e1021 	add	x1, x1, #0x784
   84b48:	b9000022 	str	w2, [x1]
   84b4c:	b0010b61 	adrp	x1, 21f1000 <_heap_stack_size+0x19f1000>
   84b50:	91160021 	add	x1, x1, #0x580
   84b54:	2a0003e0 	mov	w0, w0
   84b58:	39407fe2 	ldrb	w2, [sp, #31]
   84b5c:	38206822 	strb	w2, [x1, x0]
   84b60:	b0010b60 	adrp	x0, 21f1000 <_heap_stack_size+0x19f1000>
   84b64:	911e1000 	add	x0, x0, #0x784
   84b68:	b9400000 	ldr	w0, [x0]
   84b6c:	12001c01 	and	w1, w0, #0xff
   84b70:	b0010b60 	adrp	x0, 21f1000 <_heap_stack_size+0x19f1000>
   84b74:	911e1000 	add	x0, x0, #0x784
   84b78:	b9000001 	str	w1, [x0]
   84b7c:	94000039 	bl	84c60 <uart_tx_irq_enable>
   84b80:	d503201f 	nop
   84b84:	a8c27bfd 	ldp	x29, x30, [sp], #32
   84b88:	d65f03c0 	ret

0000000000084b8c <uart_async_getc>:
   84b8c:	a9be7bfd 	stp	x29, x30, [sp, #-32]!
   84b90:	910003fd 	mov	x29, sp
   84b94:	94000021 	bl	84c18 <uart_rx_irq_enable>
   84b98:	d503201f 	nop
   84b9c:	b0010b60 	adrp	x0, 21f1000 <_heap_stack_size+0x19f1000>
   84ba0:	911e2000 	add	x0, x0, #0x788
   84ba4:	b9400001 	ldr	w1, [x0]
   84ba8:	b0010b60 	adrp	x0, 21f1000 <_heap_stack_size+0x19f1000>
   84bac:	911e3000 	add	x0, x0, #0x78c
   84bb0:	b9400000 	ldr	w0, [x0]
   84bb4:	6b00003f 	cmp	w1, w0
   84bb8:	54ffff20 	b.eq	84b9c <uart_async_getc+0x10>  // b.none
   84bbc:	94000020 	bl	84c3c <uart_rx_irq_disable>
   84bc0:	b0010b60 	adrp	x0, 21f1000 <_heap_stack_size+0x19f1000>
   84bc4:	911e2000 	add	x0, x0, #0x788
   84bc8:	b9400000 	ldr	w0, [x0]
   84bcc:	11000402 	add	w2, w0, #0x1
   84bd0:	b0010b61 	adrp	x1, 21f1000 <_heap_stack_size+0x19f1000>
   84bd4:	911e2021 	add	x1, x1, #0x788
   84bd8:	b9000022 	str	w2, [x1]
   84bdc:	b0010b61 	adrp	x1, 21f1000 <_heap_stack_size+0x19f1000>
   84be0:	911a0021 	add	x1, x1, #0x680
   84be4:	2a0003e0 	mov	w0, w0
   84be8:	38606820 	ldrb	w0, [x1, x0]
   84bec:	39007fe0 	strb	w0, [sp, #31]
   84bf0:	b0010b60 	adrp	x0, 21f1000 <_heap_stack_size+0x19f1000>
   84bf4:	911e2000 	add	x0, x0, #0x788
   84bf8:	b9400000 	ldr	w0, [x0]
   84bfc:	12001c01 	and	w1, w0, #0xff
   84c00:	b0010b60 	adrp	x0, 21f1000 <_heap_stack_size+0x19f1000>
   84c04:	911e2000 	add	x0, x0, #0x788
   84c08:	b9000001 	str	w1, [x0]
   84c0c:	39407fe0 	ldrb	w0, [sp, #31]
   84c10:	a8c27bfd 	ldp	x29, x30, [sp], #32
   84c14:	d65f03c0 	ret

0000000000084c18 <uart_rx_irq_enable>:
   84c18:	d28a0880 	mov	x0, #0x5044                	// #20548
   84c1c:	f2a7e420 	movk	x0, #0x3f21, lsl #16
   84c20:	b9400001 	ldr	w1, [x0]
   84c24:	d28a0880 	mov	x0, #0x5044                	// #20548
   84c28:	f2a7e420 	movk	x0, #0x3f21, lsl #16
   84c2c:	32000021 	orr	w1, w1, #0x1
   84c30:	b9000001 	str	w1, [x0]
   84c34:	d503201f 	nop
   84c38:	d65f03c0 	ret

0000000000084c3c <uart_rx_irq_disable>:
   84c3c:	d28a0880 	mov	x0, #0x5044                	// #20548
   84c40:	f2a7e420 	movk	x0, #0x3f21, lsl #16
   84c44:	b9400001 	ldr	w1, [x0]
   84c48:	d28a0880 	mov	x0, #0x5044                	// #20548
   84c4c:	f2a7e420 	movk	x0, #0x3f21, lsl #16
   84c50:	121f7821 	and	w1, w1, #0xfffffffe
   84c54:	b9000001 	str	w1, [x0]
   84c58:	d503201f 	nop
   84c5c:	d65f03c0 	ret

0000000000084c60 <uart_tx_irq_enable>:
   84c60:	d28a0880 	mov	x0, #0x5044                	// #20548
   84c64:	f2a7e420 	movk	x0, #0x3f21, lsl #16
   84c68:	b9400001 	ldr	w1, [x0]
   84c6c:	d28a0880 	mov	x0, #0x5044                	// #20548
   84c70:	f2a7e420 	movk	x0, #0x3f21, lsl #16
   84c74:	321f0021 	orr	w1, w1, #0x2
   84c78:	b9000001 	str	w1, [x0]
   84c7c:	d503201f 	nop
   84c80:	d65f03c0 	ret

0000000000084c84 <uart_tx_irq_disable>:
   84c84:	d28a0880 	mov	x0, #0x5044                	// #20548
   84c88:	f2a7e420 	movk	x0, #0x3f21, lsl #16
   84c8c:	b9400001 	ldr	w1, [x0]
   84c90:	d28a0880 	mov	x0, #0x5044                	// #20548
   84c94:	f2a7e420 	movk	x0, #0x3f21, lsl #16
   84c98:	121e7821 	and	w1, w1, #0xfffffffd
   84c9c:	b9000001 	str	w1, [x0]
   84ca0:	d503201f 	nop
   84ca4:	d65f03c0 	ret

0000000000084ca8 <vsprintf>:
   84ca8:	f81a0ff3 	str	x19, [sp, #-96]!
   84cac:	f9000fe0 	str	x0, [sp, #24]
   84cb0:	f9000be1 	str	x1, [sp, #16]
   84cb4:	aa0203f3 	mov	x19, x2
   84cb8:	f9400fe0 	ldr	x0, [sp, #24]
   84cbc:	f9001fe0 	str	x0, [sp, #56]
   84cc0:	f9400fe0 	ldr	x0, [sp, #24]
   84cc4:	f100001f 	cmp	x0, #0x0
   84cc8:	54000080 	b.eq	84cd8 <vsprintf+0x30>  // b.none
   84ccc:	f9400be0 	ldr	x0, [sp, #16]
   84cd0:	f100001f 	cmp	x0, #0x0
   84cd4:	54000061 	b.ne	84ce0 <vsprintf+0x38>  // b.any
   84cd8:	52800000 	mov	w0, #0x0                   	// #0
   84cdc:	1400016a 	b	85284 <vsprintf+0x5dc>
   84ce0:	f9002fff 	str	xzr, [sp, #88]
   84ce4:	1400015f 	b	85260 <vsprintf+0x5b8>
   84ce8:	f9400fe1 	ldr	x1, [sp, #24]
   84cec:	f9401fe0 	ldr	x0, [sp, #56]
   84cf0:	cb000020 	sub	x0, x1, x0
   84cf4:	f103c01f 	cmp	x0, #0xf0
   84cf8:	5400006d 	b.le	84d04 <vsprintf+0x5c>
   84cfc:	12800000 	mov	w0, #0xffffffff            	// #-1
   84d00:	14000161 	b	85284 <vsprintf+0x5dc>
   84d04:	f9400be0 	ldr	x0, [sp, #16]
   84d08:	39400000 	ldrb	w0, [x0]
   84d0c:	7100941f 	cmp	w0, #0x25
   84d10:	54002901 	b.ne	85230 <vsprintf+0x588>  // b.any
   84d14:	f9400be0 	ldr	x0, [sp, #16]
   84d18:	91000400 	add	x0, x0, #0x1
   84d1c:	f9000be0 	str	x0, [sp, #16]
   84d20:	f9400be0 	ldr	x0, [sp, #16]
   84d24:	39400000 	ldrb	w0, [x0]
   84d28:	7100941f 	cmp	w0, #0x25
   84d2c:	54002860 	b.eq	85238 <vsprintf+0x590>  // b.none
   84d30:	b90057ff 	str	wzr, [sp, #84]
   84d34:	14000010 	b	84d74 <vsprintf+0xcc>
   84d38:	b94057e1 	ldr	w1, [sp, #84]
   84d3c:	2a0103e0 	mov	w0, w1
   84d40:	531e7400 	lsl	w0, w0, #2
   84d44:	0b010000 	add	w0, w0, w1
   84d48:	531f7800 	lsl	w0, w0, #1
   84d4c:	b90057e0 	str	w0, [sp, #84]
   84d50:	f9400be0 	ldr	x0, [sp, #16]
   84d54:	39400000 	ldrb	w0, [x0]
   84d58:	5100c000 	sub	w0, w0, #0x30
   84d5c:	b94057e1 	ldr	w1, [sp, #84]
   84d60:	0b000020 	add	w0, w1, w0
   84d64:	b90057e0 	str	w0, [sp, #84]
   84d68:	f9400be0 	ldr	x0, [sp, #16]
   84d6c:	91000400 	add	x0, x0, #0x1
   84d70:	f9000be0 	str	x0, [sp, #16]
   84d74:	f9400be0 	ldr	x0, [sp, #16]
   84d78:	39400000 	ldrb	w0, [x0]
   84d7c:	7100bc1f 	cmp	w0, #0x2f
   84d80:	540000a9 	b.ls	84d94 <vsprintf+0xec>  // b.plast
   84d84:	f9400be0 	ldr	x0, [sp, #16]
   84d88:	39400000 	ldrb	w0, [x0]
   84d8c:	7100e41f 	cmp	w0, #0x39
   84d90:	54fffd49 	b.ls	84d38 <vsprintf+0x90>  // b.plast
   84d94:	f9400be0 	ldr	x0, [sp, #16]
   84d98:	39400000 	ldrb	w0, [x0]
   84d9c:	7101b01f 	cmp	w0, #0x6c
   84da0:	54000081 	b.ne	84db0 <vsprintf+0x108>  // b.any
   84da4:	f9400be0 	ldr	x0, [sp, #16]
   84da8:	91000400 	add	x0, x0, #0x1
   84dac:	f9000be0 	str	x0, [sp, #16]
   84db0:	f9400be0 	ldr	x0, [sp, #16]
   84db4:	39400000 	ldrb	w0, [x0]
   84db8:	71018c1f 	cmp	w0, #0x63
   84dbc:	54000441 	b.ne	84e44 <vsprintf+0x19c>  // b.any
   84dc0:	b9401a61 	ldr	w1, [x19, #24]
   84dc4:	f9400260 	ldr	x0, [x19]
   84dc8:	7100003f 	cmp	w1, #0x0
   84dcc:	540000ab 	b.lt	84de0 <vsprintf+0x138>  // b.tstop
   84dd0:	91002c01 	add	x1, x0, #0xb
   84dd4:	927df021 	and	x1, x1, #0xfffffffffffffff8
   84dd8:	f9000261 	str	x1, [x19]
   84ddc:	1400000d 	b	84e10 <vsprintf+0x168>
   84de0:	11002022 	add	w2, w1, #0x8
   84de4:	b9001a62 	str	w2, [x19, #24]
   84de8:	b9401a62 	ldr	w2, [x19, #24]
   84dec:	7100005f 	cmp	w2, #0x0
   84df0:	540000ad 	b.le	84e04 <vsprintf+0x15c>
   84df4:	91002c01 	add	x1, x0, #0xb
   84df8:	927df021 	and	x1, x1, #0xfffffffffffffff8
   84dfc:	f9000261 	str	x1, [x19]
   84e00:	14000004 	b	84e10 <vsprintf+0x168>
   84e04:	f9400662 	ldr	x2, [x19, #8]
   84e08:	93407c20 	sxtw	x0, w1
   84e0c:	8b000040 	add	x0, x2, x0
   84e10:	b9400000 	ldr	w0, [x0]
   84e14:	93407c00 	sxtw	x0, w0
   84e18:	f9002fe0 	str	x0, [sp, #88]
   84e1c:	f9400fe0 	ldr	x0, [sp, #24]
   84e20:	91000401 	add	x1, x0, #0x1
   84e24:	f9000fe1 	str	x1, [sp, #24]
   84e28:	f9402fe1 	ldr	x1, [sp, #88]
   84e2c:	12001c21 	and	w1, w1, #0xff
   84e30:	39000001 	strb	w1, [x0]
   84e34:	f9400be0 	ldr	x0, [sp, #16]
   84e38:	91000400 	add	x0, x0, #0x1
   84e3c:	f9000be0 	str	x0, [sp, #16]
   84e40:	14000108 	b	85260 <vsprintf+0x5b8>
   84e44:	f9400be0 	ldr	x0, [sp, #16]
   84e48:	39400000 	ldrb	w0, [x0]
   84e4c:	7101901f 	cmp	w0, #0x64
   84e50:	54000ec1 	b.ne	85028 <vsprintf+0x380>  // b.any
   84e54:	b9401a61 	ldr	w1, [x19, #24]
   84e58:	f9400260 	ldr	x0, [x19]
   84e5c:	7100003f 	cmp	w1, #0x0
   84e60:	540000ab 	b.lt	84e74 <vsprintf+0x1cc>  // b.tstop
   84e64:	91002c01 	add	x1, x0, #0xb
   84e68:	927df021 	and	x1, x1, #0xfffffffffffffff8
   84e6c:	f9000261 	str	x1, [x19]
   84e70:	1400000d 	b	84ea4 <vsprintf+0x1fc>
   84e74:	11002022 	add	w2, w1, #0x8
   84e78:	b9001a62 	str	w2, [x19, #24]
   84e7c:	b9401a62 	ldr	w2, [x19, #24]
   84e80:	7100005f 	cmp	w2, #0x0
   84e84:	540000ad 	b.le	84e98 <vsprintf+0x1f0>
   84e88:	91002c01 	add	x1, x0, #0xb
   84e8c:	927df021 	and	x1, x1, #0xfffffffffffffff8
   84e90:	f9000261 	str	x1, [x19]
   84e94:	14000004 	b	84ea4 <vsprintf+0x1fc>
   84e98:	f9400662 	ldr	x2, [x19, #8]
   84e9c:	93407c20 	sxtw	x0, w1
   84ea0:	8b000040 	add	x0, x2, x0
   84ea4:	b9400000 	ldr	w0, [x0]
   84ea8:	93407c00 	sxtw	x0, w0
   84eac:	f9002fe0 	str	x0, [sp, #88]
   84eb0:	b90053ff 	str	wzr, [sp, #80]
   84eb4:	f9402fe0 	ldr	x0, [sp, #88]
   84eb8:	7100001f 	cmp	w0, #0x0
   84ebc:	540000ca 	b.ge	84ed4 <vsprintf+0x22c>  // b.tcont
   84ec0:	f9402fe0 	ldr	x0, [sp, #88]
   84ec4:	cb0003e0 	neg	x0, x0
   84ec8:	f9002fe0 	str	x0, [sp, #88]
   84ecc:	52800020 	mov	w0, #0x1                   	// #1
   84ed0:	b90053e0 	str	w0, [sp, #80]
   84ed4:	f9402fe1 	ldr	x1, [sp, #88]
   84ed8:	92b44ec0 	mov	x0, #0xffffffff5d89ffff    	// #-2725642241
   84edc:	f2c8af00 	movk	x0, #0x4578, lsl #32
   84ee0:	f2e02c60 	movk	x0, #0x163, lsl #48
   84ee4:	eb00003f 	cmp	x1, x0
   84ee8:	540000ad 	b.le	84efc <vsprintf+0x254>
   84eec:	92b44ec0 	mov	x0, #0xffffffff5d89ffff    	// #-2725642241
   84ef0:	f2c8af00 	movk	x0, #0x4578, lsl #32
   84ef4:	f2e02c60 	movk	x0, #0x163, lsl #48
   84ef8:	f9002fe0 	str	x0, [sp, #88]
   84efc:	52800240 	mov	w0, #0x12                  	// #18
   84f00:	b9004fe0 	str	w0, [sp, #76]
   84f04:	b9804fe0 	ldrsw	x0, [sp, #76]
   84f08:	910083e1 	add	x1, sp, #0x20
   84f0c:	3820683f 	strb	wzr, [x1, x0]
   84f10:	f9402fe1 	ldr	x1, [sp, #88]
   84f14:	b203e7e0 	mov	x0, #0x6666666666666666    	// #7378697629483820646
   84f18:	f28ccce0 	movk	x0, #0x6667
   84f1c:	9b407c20 	smulh	x0, x1, x0
   84f20:	9342fc02 	asr	x2, x0, #2
   84f24:	937ffc20 	asr	x0, x1, #63
   84f28:	cb000042 	sub	x2, x2, x0
   84f2c:	aa0203e0 	mov	x0, x2
   84f30:	d37ef400 	lsl	x0, x0, #2
   84f34:	8b020000 	add	x0, x0, x2
   84f38:	d37ff800 	lsl	x0, x0, #1
   84f3c:	cb000022 	sub	x2, x1, x0
   84f40:	12001c40 	and	w0, w2, #0xff
   84f44:	b9404fe1 	ldr	w1, [sp, #76]
   84f48:	51000421 	sub	w1, w1, #0x1
   84f4c:	b9004fe1 	str	w1, [sp, #76]
   84f50:	1100c000 	add	w0, w0, #0x30
   84f54:	12001c02 	and	w2, w0, #0xff
   84f58:	b9804fe0 	ldrsw	x0, [sp, #76]
   84f5c:	910083e1 	add	x1, sp, #0x20
   84f60:	38206822 	strb	w2, [x1, x0]
   84f64:	f9402fe0 	ldr	x0, [sp, #88]
   84f68:	b203e7e1 	mov	x1, #0x6666666666666666    	// #7378697629483820646
   84f6c:	f28ccce1 	movk	x1, #0x6667
   84f70:	9b417c01 	smulh	x1, x0, x1
   84f74:	9342fc21 	asr	x1, x1, #2
   84f78:	937ffc00 	asr	x0, x0, #63
   84f7c:	cb000020 	sub	x0, x1, x0
   84f80:	f9002fe0 	str	x0, [sp, #88]
   84f84:	f9402fe0 	ldr	x0, [sp, #88]
   84f88:	f100001f 	cmp	x0, #0x0
   84f8c:	54000080 	b.eq	84f9c <vsprintf+0x2f4>  // b.none
   84f90:	b9404fe0 	ldr	w0, [sp, #76]
   84f94:	7100001f 	cmp	w0, #0x0
   84f98:	54fffbcc 	b.gt	84f10 <vsprintf+0x268>
   84f9c:	b94053e0 	ldr	w0, [sp, #80]
   84fa0:	7100001f 	cmp	w0, #0x0
   84fa4:	54000100 	b.eq	84fc4 <vsprintf+0x31c>  // b.none
   84fa8:	b9404fe0 	ldr	w0, [sp, #76]
   84fac:	51000400 	sub	w0, w0, #0x1
   84fb0:	b9004fe0 	str	w0, [sp, #76]
   84fb4:	b9804fe0 	ldrsw	x0, [sp, #76]
   84fb8:	910083e1 	add	x1, sp, #0x20
   84fbc:	528005a2 	mov	w2, #0x2d                  	// #45
   84fc0:	38206822 	strb	w2, [x1, x0]
   84fc4:	b94057e0 	ldr	w0, [sp, #84]
   84fc8:	7100001f 	cmp	w0, #0x0
   84fcc:	5400024d 	b.le	85014 <vsprintf+0x36c>
   84fd0:	b94057e0 	ldr	w0, [sp, #84]
   84fd4:	7100441f 	cmp	w0, #0x11
   84fd8:	540001ec 	b.gt	85014 <vsprintf+0x36c>
   84fdc:	14000008 	b	84ffc <vsprintf+0x354>
   84fe0:	b9404fe0 	ldr	w0, [sp, #76]
   84fe4:	51000400 	sub	w0, w0, #0x1
   84fe8:	b9004fe0 	str	w0, [sp, #76]
   84fec:	b9804fe0 	ldrsw	x0, [sp, #76]
   84ff0:	910083e1 	add	x1, sp, #0x20
   84ff4:	52800402 	mov	w2, #0x20                  	// #32
   84ff8:	38206822 	strb	w2, [x1, x0]
   84ffc:	52800241 	mov	w1, #0x12                  	// #18
   85000:	b94057e0 	ldr	w0, [sp, #84]
   85004:	4b000020 	sub	w0, w1, w0
   85008:	b9404fe1 	ldr	w1, [sp, #76]
   8500c:	6b00003f 	cmp	w1, w0
   85010:	54fffe8c 	b.gt	84fe0 <vsprintf+0x338>
   85014:	910083e1 	add	x1, sp, #0x20
   85018:	b9804fe0 	ldrsw	x0, [sp, #76]
   8501c:	8b000020 	add	x0, x1, x0
   85020:	f90023e0 	str	x0, [sp, #64]
   85024:	1400006f 	b	851e0 <vsprintf+0x538>
   85028:	f9400be0 	ldr	x0, [sp, #16]
   8502c:	39400000 	ldrb	w0, [x0]
   85030:	7101e01f 	cmp	w0, #0x78
   85034:	54000a21 	b.ne	85178 <vsprintf+0x4d0>  // b.any
   85038:	b9401a61 	ldr	w1, [x19, #24]
   8503c:	f9400260 	ldr	x0, [x19]
   85040:	7100003f 	cmp	w1, #0x0
   85044:	540000ab 	b.lt	85058 <vsprintf+0x3b0>  // b.tstop
   85048:	91003c01 	add	x1, x0, #0xf
   8504c:	927df021 	and	x1, x1, #0xfffffffffffffff8
   85050:	f9000261 	str	x1, [x19]
   85054:	1400000d 	b	85088 <vsprintf+0x3e0>
   85058:	11002022 	add	w2, w1, #0x8
   8505c:	b9001a62 	str	w2, [x19, #24]
   85060:	b9401a62 	ldr	w2, [x19, #24]
   85064:	7100005f 	cmp	w2, #0x0
   85068:	540000ad 	b.le	8507c <vsprintf+0x3d4>
   8506c:	91003c01 	add	x1, x0, #0xf
   85070:	927df021 	and	x1, x1, #0xfffffffffffffff8
   85074:	f9000261 	str	x1, [x19]
   85078:	14000004 	b	85088 <vsprintf+0x3e0>
   8507c:	f9400662 	ldr	x2, [x19, #8]
   85080:	93407c20 	sxtw	x0, w1
   85084:	8b000040 	add	x0, x2, x0
   85088:	f9400000 	ldr	x0, [x0]
   8508c:	f9002fe0 	str	x0, [sp, #88]
   85090:	52800200 	mov	w0, #0x10                  	// #16
   85094:	b9004fe0 	str	w0, [sp, #76]
   85098:	b9804fe0 	ldrsw	x0, [sp, #76]
   8509c:	910083e1 	add	x1, sp, #0x20
   850a0:	3820683f 	strb	wzr, [x1, x0]
   850a4:	f9402fe0 	ldr	x0, [sp, #88]
   850a8:	12001c00 	and	w0, w0, #0xff
   850ac:	12000c00 	and	w0, w0, #0xf
   850b0:	3900dfe0 	strb	w0, [sp, #55]
   850b4:	3940dfe0 	ldrb	w0, [sp, #55]
   850b8:	7100241f 	cmp	w0, #0x9
   850bc:	54000069 	b.ls	850c8 <vsprintf+0x420>  // b.plast
   850c0:	528006e0 	mov	w0, #0x37                  	// #55
   850c4:	14000002 	b	850cc <vsprintf+0x424>
   850c8:	52800600 	mov	w0, #0x30                  	// #48
   850cc:	b9404fe1 	ldr	w1, [sp, #76]
   850d0:	51000421 	sub	w1, w1, #0x1
   850d4:	b9004fe1 	str	w1, [sp, #76]
   850d8:	3940dfe1 	ldrb	w1, [sp, #55]
   850dc:	0b010000 	add	w0, w0, w1
   850e0:	12001c02 	and	w2, w0, #0xff
   850e4:	b9804fe0 	ldrsw	x0, [sp, #76]
   850e8:	910083e1 	add	x1, sp, #0x20
   850ec:	38206822 	strb	w2, [x1, x0]
   850f0:	f9402fe0 	ldr	x0, [sp, #88]
   850f4:	9344fc00 	asr	x0, x0, #4
   850f8:	f9002fe0 	str	x0, [sp, #88]
   850fc:	f9402fe0 	ldr	x0, [sp, #88]
   85100:	f100001f 	cmp	x0, #0x0
   85104:	54000080 	b.eq	85114 <vsprintf+0x46c>  // b.none
   85108:	b9404fe0 	ldr	w0, [sp, #76]
   8510c:	7100001f 	cmp	w0, #0x0
   85110:	54fffcac 	b.gt	850a4 <vsprintf+0x3fc>
   85114:	b94057e0 	ldr	w0, [sp, #84]
   85118:	7100001f 	cmp	w0, #0x0
   8511c:	5400024d 	b.le	85164 <vsprintf+0x4bc>
   85120:	b94057e0 	ldr	w0, [sp, #84]
   85124:	7100401f 	cmp	w0, #0x10
   85128:	540001ec 	b.gt	85164 <vsprintf+0x4bc>
   8512c:	14000008 	b	8514c <vsprintf+0x4a4>
   85130:	b9404fe0 	ldr	w0, [sp, #76]
   85134:	51000400 	sub	w0, w0, #0x1
   85138:	b9004fe0 	str	w0, [sp, #76]
   8513c:	b9804fe0 	ldrsw	x0, [sp, #76]
   85140:	910083e1 	add	x1, sp, #0x20
   85144:	52800602 	mov	w2, #0x30                  	// #48
   85148:	38206822 	strb	w2, [x1, x0]
   8514c:	52800201 	mov	w1, #0x10                  	// #16
   85150:	b94057e0 	ldr	w0, [sp, #84]
   85154:	4b000020 	sub	w0, w1, w0
   85158:	b9404fe1 	ldr	w1, [sp, #76]
   8515c:	6b00003f 	cmp	w1, w0
   85160:	54fffe8c 	b.gt	85130 <vsprintf+0x488>
   85164:	910083e1 	add	x1, sp, #0x20
   85168:	b9804fe0 	ldrsw	x0, [sp, #76]
   8516c:	8b000020 	add	x0, x1, x0
   85170:	f90023e0 	str	x0, [sp, #64]
   85174:	1400001b 	b	851e0 <vsprintf+0x538>
   85178:	f9400be0 	ldr	x0, [sp, #16]
   8517c:	39400000 	ldrb	w0, [x0]
   85180:	7101cc1f 	cmp	w0, #0x73
   85184:	54000681 	b.ne	85254 <vsprintf+0x5ac>  // b.any
   85188:	b9401a61 	ldr	w1, [x19, #24]
   8518c:	f9400260 	ldr	x0, [x19]
   85190:	7100003f 	cmp	w1, #0x0
   85194:	540000ab 	b.lt	851a8 <vsprintf+0x500>  // b.tstop
   85198:	91003c01 	add	x1, x0, #0xf
   8519c:	927df021 	and	x1, x1, #0xfffffffffffffff8
   851a0:	f9000261 	str	x1, [x19]
   851a4:	1400000d 	b	851d8 <vsprintf+0x530>
   851a8:	11002022 	add	w2, w1, #0x8
   851ac:	b9001a62 	str	w2, [x19, #24]
   851b0:	b9401a62 	ldr	w2, [x19, #24]
   851b4:	7100005f 	cmp	w2, #0x0
   851b8:	540000ad 	b.le	851cc <vsprintf+0x524>
   851bc:	91003c01 	add	x1, x0, #0xf
   851c0:	927df021 	and	x1, x1, #0xfffffffffffffff8
   851c4:	f9000261 	str	x1, [x19]
   851c8:	14000004 	b	851d8 <vsprintf+0x530>
   851cc:	f9400662 	ldr	x2, [x19, #8]
   851d0:	93407c20 	sxtw	x0, w1
   851d4:	8b000040 	add	x0, x2, x0
   851d8:	f9400000 	ldr	x0, [x0]
   851dc:	f90023e0 	str	x0, [sp, #64]
   851e0:	f94023e0 	ldr	x0, [sp, #64]
   851e4:	f100001f 	cmp	x0, #0x0
   851e8:	540001a1 	b.ne	8521c <vsprintf+0x574>  // b.any
   851ec:	b0000000 	adrp	x0, 86000 <el1t_irq_invalid+0x74>
   851f0:	9128a000 	add	x0, x0, #0xa28
   851f4:	f90023e0 	str	x0, [sp, #64]
   851f8:	14000009 	b	8521c <vsprintf+0x574>
   851fc:	f94023e1 	ldr	x1, [sp, #64]
   85200:	91000420 	add	x0, x1, #0x1
   85204:	f90023e0 	str	x0, [sp, #64]
   85208:	f9400fe0 	ldr	x0, [sp, #24]
   8520c:	91000402 	add	x2, x0, #0x1
   85210:	f9000fe2 	str	x2, [sp, #24]
   85214:	39400021 	ldrb	w1, [x1]
   85218:	39000001 	strb	w1, [x0]
   8521c:	f94023e0 	ldr	x0, [sp, #64]
   85220:	39400000 	ldrb	w0, [x0]
   85224:	7100001f 	cmp	w0, #0x0
   85228:	54fffea1 	b.ne	851fc <vsprintf+0x554>  // b.any
   8522c:	1400000a 	b	85254 <vsprintf+0x5ac>
   85230:	d503201f 	nop
   85234:	14000002 	b	8523c <vsprintf+0x594>
   85238:	d503201f 	nop
   8523c:	f9400fe0 	ldr	x0, [sp, #24]
   85240:	91000401 	add	x1, x0, #0x1
   85244:	f9000fe1 	str	x1, [sp, #24]
   85248:	f9400be1 	ldr	x1, [sp, #16]
   8524c:	39400021 	ldrb	w1, [x1]
   85250:	39000001 	strb	w1, [x0]
   85254:	f9400be0 	ldr	x0, [sp, #16]
   85258:	91000400 	add	x0, x0, #0x1
   8525c:	f9000be0 	str	x0, [sp, #16]
   85260:	f9400be0 	ldr	x0, [sp, #16]
   85264:	39400000 	ldrb	w0, [x0]
   85268:	7100001f 	cmp	w0, #0x0
   8526c:	54ffd3e1 	b.ne	84ce8 <vsprintf+0x40>  // b.any
   85270:	f9400fe0 	ldr	x0, [sp, #24]
   85274:	3900001f 	strb	wzr, [x0]
   85278:	f9400fe1 	ldr	x1, [sp, #24]
   8527c:	f9401fe0 	ldr	x0, [sp, #56]
   85280:	cb000020 	sub	x0, x1, x0
   85284:	f84607f3 	ldr	x19, [sp], #96
   85288:	d65f03c0 	ret

000000000008528c <sprintf>:
   8528c:	a9b67bfd 	stp	x29, x30, [sp, #-160]!
   85290:	910003fd 	mov	x29, sp
   85294:	f9001fe0 	str	x0, [sp, #56]
   85298:	f9001be1 	str	x1, [sp, #48]
   8529c:	f9003be2 	str	x2, [sp, #112]
   852a0:	f9003fe3 	str	x3, [sp, #120]
   852a4:	f90043e4 	str	x4, [sp, #128]
   852a8:	f90047e5 	str	x5, [sp, #136]
   852ac:	f9004be6 	str	x6, [sp, #144]
   852b0:	f9004fe7 	str	x7, [sp, #152]
   852b4:	910283e0 	add	x0, sp, #0xa0
   852b8:	f90027e0 	str	x0, [sp, #72]
   852bc:	910283e0 	add	x0, sp, #0xa0
   852c0:	f9002be0 	str	x0, [sp, #80]
   852c4:	9101c3e0 	add	x0, sp, #0x70
   852c8:	f9002fe0 	str	x0, [sp, #88]
   852cc:	128005e0 	mov	w0, #0xffffffd0            	// #-48
   852d0:	b90063e0 	str	w0, [sp, #96]
   852d4:	b90067ff 	str	wzr, [sp, #100]
   852d8:	910043e2 	add	x2, sp, #0x10
   852dc:	910123e3 	add	x3, sp, #0x48
   852e0:	a9400460 	ldp	x0, x1, [x3]
   852e4:	a9000440 	stp	x0, x1, [x2]
   852e8:	a9410460 	ldp	x0, x1, [x3, #16]
   852ec:	a9010440 	stp	x0, x1, [x2, #16]
   852f0:	910043e0 	add	x0, sp, #0x10
   852f4:	aa0003e2 	mov	x2, x0
   852f8:	f9401be1 	ldr	x1, [sp, #48]
   852fc:	f9401fe0 	ldr	x0, [sp, #56]
   85300:	97fffe6a 	bl	84ca8 <vsprintf>
   85304:	b9006fe0 	str	w0, [sp, #108]
   85308:	b9406fe0 	ldr	w0, [sp, #108]
   8530c:	a8ca7bfd 	ldp	x29, x30, [sp], #160
   85310:	d65f03c0 	ret

0000000000085314 <strlen>:
   85314:	d10083ff 	sub	sp, sp, #0x20
   85318:	f90007e0 	str	x0, [sp, #8]
   8531c:	f9000fff 	str	xzr, [sp, #24]
   85320:	14000004 	b	85330 <strlen+0x1c>
   85324:	f9400fe0 	ldr	x0, [sp, #24]
   85328:	91000400 	add	x0, x0, #0x1
   8532c:	f9000fe0 	str	x0, [sp, #24]
   85330:	f94007e0 	ldr	x0, [sp, #8]
   85334:	91000401 	add	x1, x0, #0x1
   85338:	f90007e1 	str	x1, [sp, #8]
   8533c:	39400000 	ldrb	w0, [x0]
   85340:	7100001f 	cmp	w0, #0x0
   85344:	54ffff01 	b.ne	85324 <strlen+0x10>  // b.any
   85348:	f9400fe0 	ldr	x0, [sp, #24]
   8534c:	910083ff 	add	sp, sp, #0x20
   85350:	d65f03c0 	ret

0000000000085354 <strcmp>:
   85354:	d100c3ff 	sub	sp, sp, #0x30
   85358:	f90007e0 	str	x0, [sp, #8]
   8535c:	f90003e1 	str	x1, [sp]
   85360:	f94007e0 	ldr	x0, [sp, #8]
   85364:	f90017e0 	str	x0, [sp, #40]
   85368:	f94003e0 	ldr	x0, [sp]
   8536c:	f90013e0 	str	x0, [sp, #32]
   85370:	f94017e0 	ldr	x0, [sp, #40]
   85374:	91000401 	add	x1, x0, #0x1
   85378:	f90017e1 	str	x1, [sp, #40]
   8537c:	39400000 	ldrb	w0, [x0]
   85380:	39007fe0 	strb	w0, [sp, #31]
   85384:	f94013e0 	ldr	x0, [sp, #32]
   85388:	91000401 	add	x1, x0, #0x1
   8538c:	f90013e1 	str	x1, [sp, #32]
   85390:	39400000 	ldrb	w0, [x0]
   85394:	39007be0 	strb	w0, [sp, #30]
   85398:	39407fe0 	ldrb	w0, [sp, #31]
   8539c:	7100001f 	cmp	w0, #0x0
   853a0:	540000a1 	b.ne	853b4 <strcmp+0x60>  // b.any
   853a4:	39407fe1 	ldrb	w1, [sp, #31]
   853a8:	39407be0 	ldrb	w0, [sp, #30]
   853ac:	4b000020 	sub	w0, w1, w0
   853b0:	14000008 	b	853d0 <strcmp+0x7c>
   853b4:	39407fe1 	ldrb	w1, [sp, #31]
   853b8:	39407be0 	ldrb	w0, [sp, #30]
   853bc:	6b00003f 	cmp	w1, w0
   853c0:	54fffd80 	b.eq	85370 <strcmp+0x1c>  // b.none
   853c4:	39407fe1 	ldrb	w1, [sp, #31]
   853c8:	39407be0 	ldrb	w0, [sp, #30]
   853cc:	4b000020 	sub	w0, w1, w0
   853d0:	9100c3ff 	add	sp, sp, #0x30
   853d4:	d65f03c0 	ret

00000000000853d8 <strncmp>:
   853d8:	d100c3ff 	sub	sp, sp, #0x30
   853dc:	f9000fe0 	str	x0, [sp, #24]
   853e0:	f9000be1 	str	x1, [sp, #16]
   853e4:	f90007e2 	str	x2, [sp, #8]
   853e8:	3900bfff 	strb	wzr, [sp, #47]
   853ec:	3900bbff 	strb	wzr, [sp, #46]
   853f0:	f94007e0 	ldr	x0, [sp, #8]
   853f4:	f1000c1f 	cmp	x0, #0x3
   853f8:	54000f49 	b.ls	855e0 <strncmp+0x208>  // b.plast
   853fc:	f94007e0 	ldr	x0, [sp, #8]
   85400:	d342fc00 	lsr	x0, x0, #2
   85404:	f90013e0 	str	x0, [sp, #32]
   85408:	f9400fe0 	ldr	x0, [sp, #24]
   8540c:	91000401 	add	x1, x0, #0x1
   85410:	f9000fe1 	str	x1, [sp, #24]
   85414:	39400000 	ldrb	w0, [x0]
   85418:	3900bfe0 	strb	w0, [sp, #47]
   8541c:	f9400be0 	ldr	x0, [sp, #16]
   85420:	91000401 	add	x1, x0, #0x1
   85424:	f9000be1 	str	x1, [sp, #16]
   85428:	39400000 	ldrb	w0, [x0]
   8542c:	3900bbe0 	strb	w0, [sp, #46]
   85430:	3940bfe0 	ldrb	w0, [sp, #47]
   85434:	7100001f 	cmp	w0, #0x0
   85438:	540000a0 	b.eq	8544c <strncmp+0x74>  // b.none
   8543c:	3940bfe1 	ldrb	w1, [sp, #47]
   85440:	3940bbe0 	ldrb	w0, [sp, #46]
   85444:	6b00003f 	cmp	w1, w0
   85448:	540000a0 	b.eq	8545c <strncmp+0x84>  // b.none
   8544c:	3940bfe1 	ldrb	w1, [sp, #47]
   85450:	3940bbe0 	ldrb	w0, [sp, #46]
   85454:	4b000020 	sub	w0, w1, w0
   85458:	14000068 	b	855f8 <strncmp+0x220>
   8545c:	f9400fe0 	ldr	x0, [sp, #24]
   85460:	91000401 	add	x1, x0, #0x1
   85464:	f9000fe1 	str	x1, [sp, #24]
   85468:	39400000 	ldrb	w0, [x0]
   8546c:	3900bfe0 	strb	w0, [sp, #47]
   85470:	f9400be0 	ldr	x0, [sp, #16]
   85474:	91000401 	add	x1, x0, #0x1
   85478:	f9000be1 	str	x1, [sp, #16]
   8547c:	39400000 	ldrb	w0, [x0]
   85480:	3900bbe0 	strb	w0, [sp, #46]
   85484:	3940bfe0 	ldrb	w0, [sp, #47]
   85488:	7100001f 	cmp	w0, #0x0
   8548c:	540000a0 	b.eq	854a0 <strncmp+0xc8>  // b.none
   85490:	3940bfe1 	ldrb	w1, [sp, #47]
   85494:	3940bbe0 	ldrb	w0, [sp, #46]
   85498:	6b00003f 	cmp	w1, w0
   8549c:	540000a0 	b.eq	854b0 <strncmp+0xd8>  // b.none
   854a0:	3940bfe1 	ldrb	w1, [sp, #47]
   854a4:	3940bbe0 	ldrb	w0, [sp, #46]
   854a8:	4b000020 	sub	w0, w1, w0
   854ac:	14000053 	b	855f8 <strncmp+0x220>
   854b0:	f9400fe0 	ldr	x0, [sp, #24]
   854b4:	91000401 	add	x1, x0, #0x1
   854b8:	f9000fe1 	str	x1, [sp, #24]
   854bc:	39400000 	ldrb	w0, [x0]
   854c0:	3900bfe0 	strb	w0, [sp, #47]
   854c4:	f9400be0 	ldr	x0, [sp, #16]
   854c8:	91000401 	add	x1, x0, #0x1
   854cc:	f9000be1 	str	x1, [sp, #16]
   854d0:	39400000 	ldrb	w0, [x0]
   854d4:	3900bbe0 	strb	w0, [sp, #46]
   854d8:	3940bfe0 	ldrb	w0, [sp, #47]
   854dc:	7100001f 	cmp	w0, #0x0
   854e0:	540000a0 	b.eq	854f4 <strncmp+0x11c>  // b.none
   854e4:	3940bfe1 	ldrb	w1, [sp, #47]
   854e8:	3940bbe0 	ldrb	w0, [sp, #46]
   854ec:	6b00003f 	cmp	w1, w0
   854f0:	540000a0 	b.eq	85504 <strncmp+0x12c>  // b.none
   854f4:	3940bfe1 	ldrb	w1, [sp, #47]
   854f8:	3940bbe0 	ldrb	w0, [sp, #46]
   854fc:	4b000020 	sub	w0, w1, w0
   85500:	1400003e 	b	855f8 <strncmp+0x220>
   85504:	f9400fe0 	ldr	x0, [sp, #24]
   85508:	91000401 	add	x1, x0, #0x1
   8550c:	f9000fe1 	str	x1, [sp, #24]
   85510:	39400000 	ldrb	w0, [x0]
   85514:	3900bfe0 	strb	w0, [sp, #47]
   85518:	f9400be0 	ldr	x0, [sp, #16]
   8551c:	91000401 	add	x1, x0, #0x1
   85520:	f9000be1 	str	x1, [sp, #16]
   85524:	39400000 	ldrb	w0, [x0]
   85528:	3900bbe0 	strb	w0, [sp, #46]
   8552c:	3940bfe0 	ldrb	w0, [sp, #47]
   85530:	7100001f 	cmp	w0, #0x0
   85534:	540000a0 	b.eq	85548 <strncmp+0x170>  // b.none
   85538:	3940bfe1 	ldrb	w1, [sp, #47]
   8553c:	3940bbe0 	ldrb	w0, [sp, #46]
   85540:	6b00003f 	cmp	w1, w0
   85544:	540000a0 	b.eq	85558 <strncmp+0x180>  // b.none
   85548:	3940bfe1 	ldrb	w1, [sp, #47]
   8554c:	3940bbe0 	ldrb	w0, [sp, #46]
   85550:	4b000020 	sub	w0, w1, w0
   85554:	14000029 	b	855f8 <strncmp+0x220>
   85558:	f94013e0 	ldr	x0, [sp, #32]
   8555c:	d1000400 	sub	x0, x0, #0x1
   85560:	f90013e0 	str	x0, [sp, #32]
   85564:	f94013e0 	ldr	x0, [sp, #32]
   85568:	f100001f 	cmp	x0, #0x0
   8556c:	54fff4e1 	b.ne	85408 <strncmp+0x30>  // b.any
   85570:	f94007e0 	ldr	x0, [sp, #8]
   85574:	92400400 	and	x0, x0, #0x3
   85578:	f90007e0 	str	x0, [sp, #8]
   8557c:	14000019 	b	855e0 <strncmp+0x208>
   85580:	f9400fe0 	ldr	x0, [sp, #24]
   85584:	91000401 	add	x1, x0, #0x1
   85588:	f9000fe1 	str	x1, [sp, #24]
   8558c:	39400000 	ldrb	w0, [x0]
   85590:	3900bfe0 	strb	w0, [sp, #47]
   85594:	f9400be0 	ldr	x0, [sp, #16]
   85598:	91000401 	add	x1, x0, #0x1
   8559c:	f9000be1 	str	x1, [sp, #16]
   855a0:	39400000 	ldrb	w0, [x0]
   855a4:	3900bbe0 	strb	w0, [sp, #46]
   855a8:	3940bfe0 	ldrb	w0, [sp, #47]
   855ac:	7100001f 	cmp	w0, #0x0
   855b0:	540000a0 	b.eq	855c4 <strncmp+0x1ec>  // b.none
   855b4:	3940bfe1 	ldrb	w1, [sp, #47]
   855b8:	3940bbe0 	ldrb	w0, [sp, #46]
   855bc:	6b00003f 	cmp	w1, w0
   855c0:	540000a0 	b.eq	855d4 <strncmp+0x1fc>  // b.none
   855c4:	3940bfe1 	ldrb	w1, [sp, #47]
   855c8:	3940bbe0 	ldrb	w0, [sp, #46]
   855cc:	4b000020 	sub	w0, w1, w0
   855d0:	1400000a 	b	855f8 <strncmp+0x220>
   855d4:	f94007e0 	ldr	x0, [sp, #8]
   855d8:	d1000400 	sub	x0, x0, #0x1
   855dc:	f90007e0 	str	x0, [sp, #8]
   855e0:	f94007e0 	ldr	x0, [sp, #8]
   855e4:	f100001f 	cmp	x0, #0x0
   855e8:	54fffcc1 	b.ne	85580 <strncmp+0x1a8>  // b.any
   855ec:	3940bfe1 	ldrb	w1, [sp, #47]
   855f0:	3940bbe0 	ldrb	w0, [sp, #46]
   855f4:	4b000020 	sub	w0, w1, w0
   855f8:	9100c3ff 	add	sp, sp, #0x30
   855fc:	d65f03c0 	ret

0000000000085600 <memcpy>:
   85600:	d100c3ff 	sub	sp, sp, #0x30
   85604:	f9000fe0 	str	x0, [sp, #24]
   85608:	f9000be1 	str	x1, [sp, #16]
   8560c:	f90007e2 	str	x2, [sp, #8]
   85610:	f9400fe0 	ldr	x0, [sp, #24]
   85614:	f90017e0 	str	x0, [sp, #40]
   85618:	f9400be0 	ldr	x0, [sp, #16]
   8561c:	f90013e0 	str	x0, [sp, #32]
   85620:	14000009 	b	85644 <memcpy+0x44>
   85624:	f94013e1 	ldr	x1, [sp, #32]
   85628:	91000420 	add	x0, x1, #0x1
   8562c:	f90013e0 	str	x0, [sp, #32]
   85630:	f94017e0 	ldr	x0, [sp, #40]
   85634:	91000402 	add	x2, x0, #0x1
   85638:	f90017e2 	str	x2, [sp, #40]
   8563c:	39400021 	ldrb	w1, [x1]
   85640:	39000001 	strb	w1, [x0]
   85644:	f94007e0 	ldr	x0, [sp, #8]
   85648:	d1000401 	sub	x1, x0, #0x1
   8564c:	f90007e1 	str	x1, [sp, #8]
   85650:	f100001f 	cmp	x0, #0x0
   85654:	54fffe81 	b.ne	85624 <memcpy+0x24>  // b.any
   85658:	f9400fe0 	ldr	x0, [sp, #24]
   8565c:	9100c3ff 	add	sp, sp, #0x30
   85660:	d65f03c0 	ret

0000000000085664 <strcpy>:
   85664:	a9be7bfd 	stp	x29, x30, [sp, #-32]!
   85668:	910003fd 	mov	x29, sp
   8566c:	f9000fe0 	str	x0, [sp, #24]
   85670:	f9000be1 	str	x1, [sp, #16]
   85674:	f9400be0 	ldr	x0, [sp, #16]
   85678:	97ffff27 	bl	85314 <strlen>
   8567c:	91000400 	add	x0, x0, #0x1
   85680:	aa0003e2 	mov	x2, x0
   85684:	f9400be1 	ldr	x1, [sp, #16]
   85688:	f9400fe0 	ldr	x0, [sp, #24]
   8568c:	97ffffdd 	bl	85600 <memcpy>
   85690:	a8c27bfd 	ldp	x29, x30, [sp], #32
   85694:	d65f03c0 	ret

0000000000085698 <str_SepbySpace>:
   85698:	d10083ff 	sub	sp, sp, #0x20
   8569c:	f90007e0 	str	x0, [sp, #8]
   856a0:	f94007e0 	ldr	x0, [sp, #8]
   856a4:	39400000 	ldrb	w0, [x0]
   856a8:	7100001f 	cmp	w0, #0x0
   856ac:	54000081 	b.ne	856bc <str_SepbySpace+0x24>  // b.any
   856b0:	f94007e0 	ldr	x0, [sp, #8]
   856b4:	f9000fe0 	str	x0, [sp, #24]
   856b8:	1400000f 	b	856f4 <str_SepbySpace+0x5c>
   856bc:	f94007e0 	ldr	x0, [sp, #8]
   856c0:	39400000 	ldrb	w0, [x0]
   856c4:	7100801f 	cmp	w0, #0x20
   856c8:	540000e1 	b.ne	856e4 <str_SepbySpace+0x4c>  // b.any
   856cc:	f94007e0 	ldr	x0, [sp, #8]
   856d0:	3900001f 	strb	wzr, [x0]
   856d4:	f94007e0 	ldr	x0, [sp, #8]
   856d8:	91000400 	add	x0, x0, #0x1
   856dc:	f9000fe0 	str	x0, [sp, #24]
   856e0:	14000005 	b	856f4 <str_SepbySpace+0x5c>
   856e4:	f94007e0 	ldr	x0, [sp, #8]
   856e8:	91000400 	add	x0, x0, #0x1
   856ec:	f90007e0 	str	x0, [sp, #8]
   856f0:	17ffffec 	b	856a0 <str_SepbySpace+0x8>
   856f4:	f9400fe0 	ldr	x0, [sp, #24]
   856f8:	910083ff 	add	sp, sp, #0x20
   856fc:	d65f03c0 	ret

0000000000085700 <atoi>:
   85700:	d10083ff 	sub	sp, sp, #0x20
   85704:	f90007e0 	str	x0, [sp, #8]
   85708:	b9001fff 	str	wzr, [sp, #28]
   8570c:	b9001bff 	str	wzr, [sp, #24]
   85710:	14000019 	b	85774 <atoi+0x74>
   85714:	f94007e0 	ldr	x0, [sp, #8]
   85718:	39400000 	ldrb	w0, [x0]
   8571c:	7100bc1f 	cmp	w0, #0x2f
   85720:	540000a9 	b.ls	85734 <atoi+0x34>  // b.plast
   85724:	f94007e0 	ldr	x0, [sp, #8]
   85728:	39400000 	ldrb	w0, [x0]
   8572c:	7100e41f 	cmp	w0, #0x39
   85730:	54000069 	b.ls	8573c <atoi+0x3c>  // b.plast
   85734:	b9401fe0 	ldr	w0, [sp, #28]
   85738:	14000016 	b	85790 <atoi+0x90>
   8573c:	b9401fe1 	ldr	w1, [sp, #28]
   85740:	2a0103e0 	mov	w0, w1
   85744:	531e7400 	lsl	w0, w0, #2
   85748:	0b010000 	add	w0, w0, w1
   8574c:	531f7800 	lsl	w0, w0, #1
   85750:	2a0003e1 	mov	w1, w0
   85754:	f94007e0 	ldr	x0, [sp, #8]
   85758:	39400000 	ldrb	w0, [x0]
   8575c:	0b000020 	add	w0, w1, w0
   85760:	5100c000 	sub	w0, w0, #0x30
   85764:	b9001fe0 	str	w0, [sp, #28]
   85768:	b9401be0 	ldr	w0, [sp, #24]
   8576c:	11000400 	add	w0, w0, #0x1
   85770:	b9001be0 	str	w0, [sp, #24]
   85774:	b9801be0 	ldrsw	x0, [sp, #24]
   85778:	f94007e1 	ldr	x1, [sp, #8]
   8577c:	8b000020 	add	x0, x1, x0
   85780:	39400000 	ldrb	w0, [x0]
   85784:	7100001f 	cmp	w0, #0x0
   85788:	54fffc61 	b.ne	85714 <atoi+0x14>  // b.any
   8578c:	b9401fe0 	ldr	w0, [sp, #28]
   85790:	910083ff 	add	sp, sp, #0x20
   85794:	d65f03c0 	ret
	...

0000000000085800 <exception_vector_table>:
   85800:	140001e1 	b	85f84 <el1t_sync_invalid>
   85804:	d503201f 	nop
   85808:	d503201f 	nop
   8580c:	d503201f 	nop
   85810:	d503201f 	nop
   85814:	d503201f 	nop
   85818:	d503201f 	nop
   8581c:	d503201f 	nop
   85820:	d503201f 	nop
   85824:	d503201f 	nop
   85828:	d503201f 	nop
   8582c:	d503201f 	nop
   85830:	d503201f 	nop
   85834:	d503201f 	nop
   85838:	d503201f 	nop
   8583c:	d503201f 	nop
   85840:	d503201f 	nop
   85844:	d503201f 	nop
   85848:	d503201f 	nop
   8584c:	d503201f 	nop
   85850:	d503201f 	nop
   85854:	d503201f 	nop
   85858:	d503201f 	nop
   8585c:	d503201f 	nop
   85860:	d503201f 	nop
   85864:	d503201f 	nop
   85868:	d503201f 	nop
   8586c:	d503201f 	nop
   85870:	d503201f 	nop
   85874:	d503201f 	nop
   85878:	d503201f 	nop
   8587c:	d503201f 	nop
   85880:	140001c3 	b	85f8c <el1t_irq_invalid>
   85884:	d503201f 	nop
   85888:	d503201f 	nop
   8588c:	d503201f 	nop
   85890:	d503201f 	nop
   85894:	d503201f 	nop
   85898:	d503201f 	nop
   8589c:	d503201f 	nop
   858a0:	d503201f 	nop
   858a4:	d503201f 	nop
   858a8:	d503201f 	nop
   858ac:	d503201f 	nop
   858b0:	d503201f 	nop
   858b4:	d503201f 	nop
   858b8:	d503201f 	nop
   858bc:	d503201f 	nop
   858c0:	d503201f 	nop
   858c4:	d503201f 	nop
   858c8:	d503201f 	nop
   858cc:	d503201f 	nop
   858d0:	d503201f 	nop
   858d4:	d503201f 	nop
   858d8:	d503201f 	nop
   858dc:	d503201f 	nop
   858e0:	d503201f 	nop
   858e4:	d503201f 	nop
   858e8:	d503201f 	nop
   858ec:	d503201f 	nop
   858f0:	d503201f 	nop
   858f4:	d503201f 	nop
   858f8:	d503201f 	nop
   858fc:	d503201f 	nop
   85900:	140001d7 	b	8605c <el1t_fiq_invalid>
   85904:	d503201f 	nop
   85908:	d503201f 	nop
   8590c:	d503201f 	nop
   85910:	d503201f 	nop
   85914:	d503201f 	nop
   85918:	d503201f 	nop
   8591c:	d503201f 	nop
   85920:	d503201f 	nop
   85924:	d503201f 	nop
   85928:	d503201f 	nop
   8592c:	d503201f 	nop
   85930:	d503201f 	nop
   85934:	d503201f 	nop
   85938:	d503201f 	nop
   8593c:	d503201f 	nop
   85940:	d503201f 	nop
   85944:	d503201f 	nop
   85948:	d503201f 	nop
   8594c:	d503201f 	nop
   85950:	d503201f 	nop
   85954:	d503201f 	nop
   85958:	d503201f 	nop
   8595c:	d503201f 	nop
   85960:	d503201f 	nop
   85964:	d503201f 	nop
   85968:	d503201f 	nop
   8596c:	d503201f 	nop
   85970:	d503201f 	nop
   85974:	d503201f 	nop
   85978:	d503201f 	nop
   8597c:	d503201f 	nop
   85980:	140001b9 	b	86064 <el1t_error_invalid>
   85984:	d503201f 	nop
   85988:	d503201f 	nop
   8598c:	d503201f 	nop
   85990:	d503201f 	nop
   85994:	d503201f 	nop
   85998:	d503201f 	nop
   8599c:	d503201f 	nop
   859a0:	d503201f 	nop
   859a4:	d503201f 	nop
   859a8:	d503201f 	nop
   859ac:	d503201f 	nop
   859b0:	d503201f 	nop
   859b4:	d503201f 	nop
   859b8:	d503201f 	nop
   859bc:	d503201f 	nop
   859c0:	d503201f 	nop
   859c4:	d503201f 	nop
   859c8:	d503201f 	nop
   859cc:	d503201f 	nop
   859d0:	d503201f 	nop
   859d4:	d503201f 	nop
   859d8:	d503201f 	nop
   859dc:	d503201f 	nop
   859e0:	d503201f 	nop
   859e4:	d503201f 	nop
   859e8:	d503201f 	nop
   859ec:	d503201f 	nop
   859f0:	d503201f 	nop
   859f4:	d503201f 	nop
   859f8:	d503201f 	nop
   859fc:	d503201f 	nop
   85a00:	1400019b 	b	8606c <el1h_sync>
   85a04:	d503201f 	nop
   85a08:	d503201f 	nop
   85a0c:	d503201f 	nop
   85a10:	d503201f 	nop
   85a14:	d503201f 	nop
   85a18:	d503201f 	nop
   85a1c:	d503201f 	nop
   85a20:	d503201f 	nop
   85a24:	d503201f 	nop
   85a28:	d503201f 	nop
   85a2c:	d503201f 	nop
   85a30:	d503201f 	nop
   85a34:	d503201f 	nop
   85a38:	d503201f 	nop
   85a3c:	d503201f 	nop
   85a40:	d503201f 	nop
   85a44:	d503201f 	nop
   85a48:	d503201f 	nop
   85a4c:	d503201f 	nop
   85a50:	d503201f 	nop
   85a54:	d503201f 	nop
   85a58:	d503201f 	nop
   85a5c:	d503201f 	nop
   85a60:	d503201f 	nop
   85a64:	d503201f 	nop
   85a68:	d503201f 	nop
   85a6c:	d503201f 	nop
   85a70:	d503201f 	nop
   85a74:	d503201f 	nop
   85a78:	d503201f 	nop
   85a7c:	d503201f 	nop
   85a80:	1400017d 	b	86074 <el1h_irq>
   85a84:	d503201f 	nop
   85a88:	d503201f 	nop
   85a8c:	d503201f 	nop
   85a90:	d503201f 	nop
   85a94:	d503201f 	nop
   85a98:	d503201f 	nop
   85a9c:	d503201f 	nop
   85aa0:	d503201f 	nop
   85aa4:	d503201f 	nop
   85aa8:	d503201f 	nop
   85aac:	d503201f 	nop
   85ab0:	d503201f 	nop
   85ab4:	d503201f 	nop
   85ab8:	d503201f 	nop
   85abc:	d503201f 	nop
   85ac0:	d503201f 	nop
   85ac4:	d503201f 	nop
   85ac8:	d503201f 	nop
   85acc:	d503201f 	nop
   85ad0:	d503201f 	nop
   85ad4:	d503201f 	nop
   85ad8:	d503201f 	nop
   85adc:	d503201f 	nop
   85ae0:	d503201f 	nop
   85ae4:	d503201f 	nop
   85ae8:	d503201f 	nop
   85aec:	d503201f 	nop
   85af0:	d503201f 	nop
   85af4:	d503201f 	nop
   85af8:	d503201f 	nop
   85afc:	d503201f 	nop
   85b00:	14000191 	b	86144 <el1h_fiq_invalid>
   85b04:	d503201f 	nop
   85b08:	d503201f 	nop
   85b0c:	d503201f 	nop
   85b10:	d503201f 	nop
   85b14:	d503201f 	nop
   85b18:	d503201f 	nop
   85b1c:	d503201f 	nop
   85b20:	d503201f 	nop
   85b24:	d503201f 	nop
   85b28:	d503201f 	nop
   85b2c:	d503201f 	nop
   85b30:	d503201f 	nop
   85b34:	d503201f 	nop
   85b38:	d503201f 	nop
   85b3c:	d503201f 	nop
   85b40:	d503201f 	nop
   85b44:	d503201f 	nop
   85b48:	d503201f 	nop
   85b4c:	d503201f 	nop
   85b50:	d503201f 	nop
   85b54:	d503201f 	nop
   85b58:	d503201f 	nop
   85b5c:	d503201f 	nop
   85b60:	d503201f 	nop
   85b64:	d503201f 	nop
   85b68:	d503201f 	nop
   85b6c:	d503201f 	nop
   85b70:	d503201f 	nop
   85b74:	d503201f 	nop
   85b78:	d503201f 	nop
   85b7c:	d503201f 	nop
   85b80:	14000173 	b	8614c <el1h_error_invalid>
   85b84:	d503201f 	nop
   85b88:	d503201f 	nop
   85b8c:	d503201f 	nop
   85b90:	d503201f 	nop
   85b94:	d503201f 	nop
   85b98:	d503201f 	nop
   85b9c:	d503201f 	nop
   85ba0:	d503201f 	nop
   85ba4:	d503201f 	nop
   85ba8:	d503201f 	nop
   85bac:	d503201f 	nop
   85bb0:	d503201f 	nop
   85bb4:	d503201f 	nop
   85bb8:	d503201f 	nop
   85bbc:	d503201f 	nop
   85bc0:	d503201f 	nop
   85bc4:	d503201f 	nop
   85bc8:	d503201f 	nop
   85bcc:	d503201f 	nop
   85bd0:	d503201f 	nop
   85bd4:	d503201f 	nop
   85bd8:	d503201f 	nop
   85bdc:	d503201f 	nop
   85be0:	d503201f 	nop
   85be4:	d503201f 	nop
   85be8:	d503201f 	nop
   85bec:	d503201f 	nop
   85bf0:	d503201f 	nop
   85bf4:	d503201f 	nop
   85bf8:	d503201f 	nop
   85bfc:	d503201f 	nop
   85c00:	14000155 	b	86154 <el0_sync_64>
   85c04:	d503201f 	nop
   85c08:	d503201f 	nop
   85c0c:	d503201f 	nop
   85c10:	d503201f 	nop
   85c14:	d503201f 	nop
   85c18:	d503201f 	nop
   85c1c:	d503201f 	nop
   85c20:	d503201f 	nop
   85c24:	d503201f 	nop
   85c28:	d503201f 	nop
   85c2c:	d503201f 	nop
   85c30:	d503201f 	nop
   85c34:	d503201f 	nop
   85c38:	d503201f 	nop
   85c3c:	d503201f 	nop
   85c40:	d503201f 	nop
   85c44:	d503201f 	nop
   85c48:	d503201f 	nop
   85c4c:	d503201f 	nop
   85c50:	d503201f 	nop
   85c54:	d503201f 	nop
   85c58:	d503201f 	nop
   85c5c:	d503201f 	nop
   85c60:	d503201f 	nop
   85c64:	d503201f 	nop
   85c68:	d503201f 	nop
   85c6c:	d503201f 	nop
   85c70:	d503201f 	nop
   85c74:	d503201f 	nop
   85c78:	d503201f 	nop
   85c7c:	d503201f 	nop
   85c80:	14000169 	b	86224 <el0_irq_64>
   85c84:	d503201f 	nop
   85c88:	d503201f 	nop
   85c8c:	d503201f 	nop
   85c90:	d503201f 	nop
   85c94:	d503201f 	nop
   85c98:	d503201f 	nop
   85c9c:	d503201f 	nop
   85ca0:	d503201f 	nop
   85ca4:	d503201f 	nop
   85ca8:	d503201f 	nop
   85cac:	d503201f 	nop
   85cb0:	d503201f 	nop
   85cb4:	d503201f 	nop
   85cb8:	d503201f 	nop
   85cbc:	d503201f 	nop
   85cc0:	d503201f 	nop
   85cc4:	d503201f 	nop
   85cc8:	d503201f 	nop
   85ccc:	d503201f 	nop
   85cd0:	d503201f 	nop
   85cd4:	d503201f 	nop
   85cd8:	d503201f 	nop
   85cdc:	d503201f 	nop
   85ce0:	d503201f 	nop
   85ce4:	d503201f 	nop
   85ce8:	d503201f 	nop
   85cec:	d503201f 	nop
   85cf0:	d503201f 	nop
   85cf4:	d503201f 	nop
   85cf8:	d503201f 	nop
   85cfc:	d503201f 	nop
   85d00:	1400017d 	b	862f4 <el0_fiq_invalid_64>
   85d04:	d503201f 	nop
   85d08:	d503201f 	nop
   85d0c:	d503201f 	nop
   85d10:	d503201f 	nop
   85d14:	d503201f 	nop
   85d18:	d503201f 	nop
   85d1c:	d503201f 	nop
   85d20:	d503201f 	nop
   85d24:	d503201f 	nop
   85d28:	d503201f 	nop
   85d2c:	d503201f 	nop
   85d30:	d503201f 	nop
   85d34:	d503201f 	nop
   85d38:	d503201f 	nop
   85d3c:	d503201f 	nop
   85d40:	d503201f 	nop
   85d44:	d503201f 	nop
   85d48:	d503201f 	nop
   85d4c:	d503201f 	nop
   85d50:	d503201f 	nop
   85d54:	d503201f 	nop
   85d58:	d503201f 	nop
   85d5c:	d503201f 	nop
   85d60:	d503201f 	nop
   85d64:	d503201f 	nop
   85d68:	d503201f 	nop
   85d6c:	d503201f 	nop
   85d70:	d503201f 	nop
   85d74:	d503201f 	nop
   85d78:	d503201f 	nop
   85d7c:	d503201f 	nop
   85d80:	1400015f 	b	862fc <el0_error_invalid_64>
   85d84:	d503201f 	nop
   85d88:	d503201f 	nop
   85d8c:	d503201f 	nop
   85d90:	d503201f 	nop
   85d94:	d503201f 	nop
   85d98:	d503201f 	nop
   85d9c:	d503201f 	nop
   85da0:	d503201f 	nop
   85da4:	d503201f 	nop
   85da8:	d503201f 	nop
   85dac:	d503201f 	nop
   85db0:	d503201f 	nop
   85db4:	d503201f 	nop
   85db8:	d503201f 	nop
   85dbc:	d503201f 	nop
   85dc0:	d503201f 	nop
   85dc4:	d503201f 	nop
   85dc8:	d503201f 	nop
   85dcc:	d503201f 	nop
   85dd0:	d503201f 	nop
   85dd4:	d503201f 	nop
   85dd8:	d503201f 	nop
   85ddc:	d503201f 	nop
   85de0:	d503201f 	nop
   85de4:	d503201f 	nop
   85de8:	d503201f 	nop
   85dec:	d503201f 	nop
   85df0:	d503201f 	nop
   85df4:	d503201f 	nop
   85df8:	d503201f 	nop
   85dfc:	d503201f 	nop
   85e00:	14000141 	b	86304 <el0_sync_invalid_32>
   85e04:	d503201f 	nop
   85e08:	d503201f 	nop
   85e0c:	d503201f 	nop
   85e10:	d503201f 	nop
   85e14:	d503201f 	nop
   85e18:	d503201f 	nop
   85e1c:	d503201f 	nop
   85e20:	d503201f 	nop
   85e24:	d503201f 	nop
   85e28:	d503201f 	nop
   85e2c:	d503201f 	nop
   85e30:	d503201f 	nop
   85e34:	d503201f 	nop
   85e38:	d503201f 	nop
   85e3c:	d503201f 	nop
   85e40:	d503201f 	nop
   85e44:	d503201f 	nop
   85e48:	d503201f 	nop
   85e4c:	d503201f 	nop
   85e50:	d503201f 	nop
   85e54:	d503201f 	nop
   85e58:	d503201f 	nop
   85e5c:	d503201f 	nop
   85e60:	d503201f 	nop
   85e64:	d503201f 	nop
   85e68:	d503201f 	nop
   85e6c:	d503201f 	nop
   85e70:	d503201f 	nop
   85e74:	d503201f 	nop
   85e78:	d503201f 	nop
   85e7c:	d503201f 	nop
   85e80:	14000123 	b	8630c <el0_irq_invalid_32>
   85e84:	d503201f 	nop
   85e88:	d503201f 	nop
   85e8c:	d503201f 	nop
   85e90:	d503201f 	nop
   85e94:	d503201f 	nop
   85e98:	d503201f 	nop
   85e9c:	d503201f 	nop
   85ea0:	d503201f 	nop
   85ea4:	d503201f 	nop
   85ea8:	d503201f 	nop
   85eac:	d503201f 	nop
   85eb0:	d503201f 	nop
   85eb4:	d503201f 	nop
   85eb8:	d503201f 	nop
   85ebc:	d503201f 	nop
   85ec0:	d503201f 	nop
   85ec4:	d503201f 	nop
   85ec8:	d503201f 	nop
   85ecc:	d503201f 	nop
   85ed0:	d503201f 	nop
   85ed4:	d503201f 	nop
   85ed8:	d503201f 	nop
   85edc:	d503201f 	nop
   85ee0:	d503201f 	nop
   85ee4:	d503201f 	nop
   85ee8:	d503201f 	nop
   85eec:	d503201f 	nop
   85ef0:	d503201f 	nop
   85ef4:	d503201f 	nop
   85ef8:	d503201f 	nop
   85efc:	d503201f 	nop
   85f00:	14000105 	b	86314 <el0_fiq_invalid_32>
   85f04:	d503201f 	nop
   85f08:	d503201f 	nop
   85f0c:	d503201f 	nop
   85f10:	d503201f 	nop
   85f14:	d503201f 	nop
   85f18:	d503201f 	nop
   85f1c:	d503201f 	nop
   85f20:	d503201f 	nop
   85f24:	d503201f 	nop
   85f28:	d503201f 	nop
   85f2c:	d503201f 	nop
   85f30:	d503201f 	nop
   85f34:	d503201f 	nop
   85f38:	d503201f 	nop
   85f3c:	d503201f 	nop
   85f40:	d503201f 	nop
   85f44:	d503201f 	nop
   85f48:	d503201f 	nop
   85f4c:	d503201f 	nop
   85f50:	d503201f 	nop
   85f54:	d503201f 	nop
   85f58:	d503201f 	nop
   85f5c:	d503201f 	nop
   85f60:	d503201f 	nop
   85f64:	d503201f 	nop
   85f68:	d503201f 	nop
   85f6c:	d503201f 	nop
   85f70:	d503201f 	nop
   85f74:	d503201f 	nop
   85f78:	d503201f 	nop
   85f7c:	d503201f 	nop
   85f80:	140000e7 	b	8631c <el0_error_invalid_32>

0000000000085f84 <el1t_sync_invalid>:
   85f84:	d2800000 	mov	x0, #0x0                   	// #0
   85f88:	97ffeb90 	bl	80dc8 <invalid_exception_router>

0000000000085f8c <el1t_irq_invalid>:
   85f8c:	d10483ff 	sub	sp, sp, #0x120
   85f90:	a90007e0 	stp	x0, x1, [sp]
   85f94:	a9010fe2 	stp	x2, x3, [sp, #16]
   85f98:	a90217e4 	stp	x4, x5, [sp, #32]
   85f9c:	a9031fe6 	stp	x6, x7, [sp, #48]
   85fa0:	a90427e8 	stp	x8, x9, [sp, #64]
   85fa4:	a9052fea 	stp	x10, x11, [sp, #80]
   85fa8:	a90637ec 	stp	x12, x13, [sp, #96]
   85fac:	a9073fee 	stp	x14, x15, [sp, #112]
   85fb0:	a90847f0 	stp	x16, x17, [sp, #128]
   85fb4:	a9094ff2 	stp	x18, x19, [sp, #144]
   85fb8:	a90a57f4 	stp	x20, x21, [sp, #160]
   85fbc:	a90b5ff6 	stp	x22, x23, [sp, #176]
   85fc0:	a90c67f8 	stp	x24, x25, [sp, #192]
   85fc4:	a90d6ffa 	stp	x26, x27, [sp, #208]
   85fc8:	a90e77fc 	stp	x28, x29, [sp, #224]
   85fcc:	f9007bfe 	str	x30, [sp, #240]
   85fd0:	d5384000 	mrs	x0, spsr_el1
   85fd4:	f9007fe0 	str	x0, [sp, #248]
   85fd8:	d5384020 	mrs	x0, elr_el1
   85fdc:	f90083e0 	str	x0, [sp, #256]
   85fe0:	d5384100 	mrs	x0, sp_el0
   85fe4:	f90087e0 	str	x0, [sp, #264]
   85fe8:	a94007e0 	ldp	x0, x1, [sp]
   85fec:	d2800020 	mov	x0, #0x1                   	// #1
   85ff0:	97ffeb76 	bl	80dc8 <invalid_exception_router>
   85ff4:	a94007e0 	ldp	x0, x1, [sp]
   85ff8:	a9410fe2 	ldp	x2, x3, [sp, #16]
   85ffc:	a94217e4 	ldp	x4, x5, [sp, #32]
   86000:	a9431fe6 	ldp	x6, x7, [sp, #48]
   86004:	a94427e8 	ldp	x8, x9, [sp, #64]
   86008:	a9452fea 	ldp	x10, x11, [sp, #80]
   8600c:	a94637ec 	ldp	x12, x13, [sp, #96]
   86010:	a9473fee 	ldp	x14, x15, [sp, #112]
   86014:	a94847f0 	ldp	x16, x17, [sp, #128]
   86018:	a9494ff2 	ldp	x18, x19, [sp, #144]
   8601c:	a94a57f4 	ldp	x20, x21, [sp, #160]
   86020:	a94b5ff6 	ldp	x22, x23, [sp, #176]
   86024:	a94c67f8 	ldp	x24, x25, [sp, #192]
   86028:	a94d6ffa 	ldp	x26, x27, [sp, #208]
   8602c:	a94e77fc 	ldp	x28, x29, [sp, #224]
   86030:	f9407bfe 	ldr	x30, [sp, #240]
   86034:	f9407fe0 	ldr	x0, [sp, #248]
   86038:	d5184000 	msr	spsr_el1, x0
   8603c:	f94083e0 	ldr	x0, [sp, #256]
   86040:	d5184020 	msr	elr_el1, x0
   86044:	f94087e0 	ldr	x0, [sp, #264]
   86048:	d5184100 	msr	sp_el0, x0
   8604c:	a94007e0 	ldp	x0, x1, [sp]
   86050:	a94007e0 	ldp	x0, x1, [sp]
   86054:	910483ff 	add	sp, sp, #0x120
   86058:	d69f03e0 	eret

000000000008605c <el1t_fiq_invalid>:
   8605c:	d2800040 	mov	x0, #0x2                   	// #2
   86060:	97ffeb5a 	bl	80dc8 <invalid_exception_router>

0000000000086064 <el1t_error_invalid>:
   86064:	d2800060 	mov	x0, #0x3                   	// #3
   86068:	97ffeb58 	bl	80dc8 <invalid_exception_router>

000000000008606c <el1h_sync>:
   8606c:	d2800080 	mov	x0, #0x4                   	// #4
   86070:	97ffeb56 	bl	80dc8 <invalid_exception_router>

0000000000086074 <el1h_irq>:
   86074:	d10483ff 	sub	sp, sp, #0x120
   86078:	a90007e0 	stp	x0, x1, [sp]
   8607c:	a9010fe2 	stp	x2, x3, [sp, #16]
   86080:	a90217e4 	stp	x4, x5, [sp, #32]
   86084:	a9031fe6 	stp	x6, x7, [sp, #48]
   86088:	a90427e8 	stp	x8, x9, [sp, #64]
   8608c:	a9052fea 	stp	x10, x11, [sp, #80]
   86090:	a90637ec 	stp	x12, x13, [sp, #96]
   86094:	a9073fee 	stp	x14, x15, [sp, #112]
   86098:	a90847f0 	stp	x16, x17, [sp, #128]
   8609c:	a9094ff2 	stp	x18, x19, [sp, #144]
   860a0:	a90a57f4 	stp	x20, x21, [sp, #160]
   860a4:	a90b5ff6 	stp	x22, x23, [sp, #176]
   860a8:	a90c67f8 	stp	x24, x25, [sp, #192]
   860ac:	a90d6ffa 	stp	x26, x27, [sp, #208]
   860b0:	a90e77fc 	stp	x28, x29, [sp, #224]
   860b4:	f9007bfe 	str	x30, [sp, #240]
   860b8:	d5384000 	mrs	x0, spsr_el1
   860bc:	f9007fe0 	str	x0, [sp, #248]
   860c0:	d5384020 	mrs	x0, elr_el1
   860c4:	f90083e0 	str	x0, [sp, #256]
   860c8:	d5384100 	mrs	x0, sp_el0
   860cc:	f90087e0 	str	x0, [sp, #264]
   860d0:	a94007e0 	ldp	x0, x1, [sp]
   860d4:	910003e0 	mov	x0, sp
   860d8:	97ffeafd 	bl	80ccc <el1h_irq_router>
   860dc:	a94007e0 	ldp	x0, x1, [sp]
   860e0:	a9410fe2 	ldp	x2, x3, [sp, #16]
   860e4:	a94217e4 	ldp	x4, x5, [sp, #32]
   860e8:	a9431fe6 	ldp	x6, x7, [sp, #48]
   860ec:	a94427e8 	ldp	x8, x9, [sp, #64]
   860f0:	a9452fea 	ldp	x10, x11, [sp, #80]
   860f4:	a94637ec 	ldp	x12, x13, [sp, #96]
   860f8:	a9473fee 	ldp	x14, x15, [sp, #112]
   860fc:	a94847f0 	ldp	x16, x17, [sp, #128]
   86100:	a9494ff2 	ldp	x18, x19, [sp, #144]
   86104:	a94a57f4 	ldp	x20, x21, [sp, #160]
   86108:	a94b5ff6 	ldp	x22, x23, [sp, #176]
   8610c:	a94c67f8 	ldp	x24, x25, [sp, #192]
   86110:	a94d6ffa 	ldp	x26, x27, [sp, #208]
   86114:	a94e77fc 	ldp	x28, x29, [sp, #224]
   86118:	f9407bfe 	ldr	x30, [sp, #240]
   8611c:	f9407fe0 	ldr	x0, [sp, #248]
   86120:	d5184000 	msr	spsr_el1, x0
   86124:	f94083e0 	ldr	x0, [sp, #256]
   86128:	d5184020 	msr	elr_el1, x0
   8612c:	f94087e0 	ldr	x0, [sp, #264]
   86130:	d5184100 	msr	sp_el0, x0
   86134:	a94007e0 	ldp	x0, x1, [sp]
   86138:	a94007e0 	ldp	x0, x1, [sp]
   8613c:	910483ff 	add	sp, sp, #0x120
   86140:	d69f03e0 	eret

0000000000086144 <el1h_fiq_invalid>:
   86144:	d28000c0 	mov	x0, #0x6                   	// #6
   86148:	97ffeb20 	bl	80dc8 <invalid_exception_router>

000000000008614c <el1h_error_invalid>:
   8614c:	d28000e0 	mov	x0, #0x7                   	// #7
   86150:	97ffeb1e 	bl	80dc8 <invalid_exception_router>

0000000000086154 <el0_sync_64>:
   86154:	d10483ff 	sub	sp, sp, #0x120
   86158:	a90007e0 	stp	x0, x1, [sp]
   8615c:	a9010fe2 	stp	x2, x3, [sp, #16]
   86160:	a90217e4 	stp	x4, x5, [sp, #32]
   86164:	a9031fe6 	stp	x6, x7, [sp, #48]
   86168:	a90427e8 	stp	x8, x9, [sp, #64]
   8616c:	a9052fea 	stp	x10, x11, [sp, #80]
   86170:	a90637ec 	stp	x12, x13, [sp, #96]
   86174:	a9073fee 	stp	x14, x15, [sp, #112]
   86178:	a90847f0 	stp	x16, x17, [sp, #128]
   8617c:	a9094ff2 	stp	x18, x19, [sp, #144]
   86180:	a90a57f4 	stp	x20, x21, [sp, #160]
   86184:	a90b5ff6 	stp	x22, x23, [sp, #176]
   86188:	a90c67f8 	stp	x24, x25, [sp, #192]
   8618c:	a90d6ffa 	stp	x26, x27, [sp, #208]
   86190:	a90e77fc 	stp	x28, x29, [sp, #224]
   86194:	f9007bfe 	str	x30, [sp, #240]
   86198:	d5384000 	mrs	x0, spsr_el1
   8619c:	f9007fe0 	str	x0, [sp, #248]
   861a0:	d5384020 	mrs	x0, elr_el1
   861a4:	f90083e0 	str	x0, [sp, #256]
   861a8:	d5384100 	mrs	x0, sp_el0
   861ac:	f90087e0 	str	x0, [sp, #264]
   861b0:	a94007e0 	ldp	x0, x1, [sp]
   861b4:	910003e0 	mov	x0, sp
   861b8:	97ffea2f 	bl	80a74 <el0_sync_router>
   861bc:	a94007e0 	ldp	x0, x1, [sp]
   861c0:	a9410fe2 	ldp	x2, x3, [sp, #16]
   861c4:	a94217e4 	ldp	x4, x5, [sp, #32]
   861c8:	a9431fe6 	ldp	x6, x7, [sp, #48]
   861cc:	a94427e8 	ldp	x8, x9, [sp, #64]
   861d0:	a9452fea 	ldp	x10, x11, [sp, #80]
   861d4:	a94637ec 	ldp	x12, x13, [sp, #96]
   861d8:	a9473fee 	ldp	x14, x15, [sp, #112]
   861dc:	a94847f0 	ldp	x16, x17, [sp, #128]
   861e0:	a9494ff2 	ldp	x18, x19, [sp, #144]
   861e4:	a94a57f4 	ldp	x20, x21, [sp, #160]
   861e8:	a94b5ff6 	ldp	x22, x23, [sp, #176]
   861ec:	a94c67f8 	ldp	x24, x25, [sp, #192]
   861f0:	a94d6ffa 	ldp	x26, x27, [sp, #208]
   861f4:	a94e77fc 	ldp	x28, x29, [sp, #224]
   861f8:	f9407bfe 	ldr	x30, [sp, #240]
   861fc:	f9407fe0 	ldr	x0, [sp, #248]
   86200:	d5184000 	msr	spsr_el1, x0
   86204:	f94083e0 	ldr	x0, [sp, #256]
   86208:	d5184020 	msr	elr_el1, x0
   8620c:	f94087e0 	ldr	x0, [sp, #264]
   86210:	d5184100 	msr	sp_el0, x0
   86214:	a94007e0 	ldp	x0, x1, [sp]
   86218:	a94007e0 	ldp	x0, x1, [sp]
   8621c:	910483ff 	add	sp, sp, #0x120
   86220:	d69f03e0 	eret

0000000000086224 <el0_irq_64>:
   86224:	d10483ff 	sub	sp, sp, #0x120
   86228:	a90007e0 	stp	x0, x1, [sp]
   8622c:	a9010fe2 	stp	x2, x3, [sp, #16]
   86230:	a90217e4 	stp	x4, x5, [sp, #32]
   86234:	a9031fe6 	stp	x6, x7, [sp, #48]
   86238:	a90427e8 	stp	x8, x9, [sp, #64]
   8623c:	a9052fea 	stp	x10, x11, [sp, #80]
   86240:	a90637ec 	stp	x12, x13, [sp, #96]
   86244:	a9073fee 	stp	x14, x15, [sp, #112]
   86248:	a90847f0 	stp	x16, x17, [sp, #128]
   8624c:	a9094ff2 	stp	x18, x19, [sp, #144]
   86250:	a90a57f4 	stp	x20, x21, [sp, #160]
   86254:	a90b5ff6 	stp	x22, x23, [sp, #176]
   86258:	a90c67f8 	stp	x24, x25, [sp, #192]
   8625c:	a90d6ffa 	stp	x26, x27, [sp, #208]
   86260:	a90e77fc 	stp	x28, x29, [sp, #224]
   86264:	f9007bfe 	str	x30, [sp, #240]
   86268:	d5384000 	mrs	x0, spsr_el1
   8626c:	f9007fe0 	str	x0, [sp, #248]
   86270:	d5384020 	mrs	x0, elr_el1
   86274:	f90083e0 	str	x0, [sp, #256]
   86278:	d5384100 	mrs	x0, sp_el0
   8627c:	f90087e0 	str	x0, [sp, #264]
   86280:	a94007e0 	ldp	x0, x1, [sp]
   86284:	910003e0 	mov	x0, sp
   86288:	97ffea91 	bl	80ccc <el1h_irq_router>
   8628c:	a94007e0 	ldp	x0, x1, [sp]
   86290:	a9410fe2 	ldp	x2, x3, [sp, #16]
   86294:	a94217e4 	ldp	x4, x5, [sp, #32]
   86298:	a9431fe6 	ldp	x6, x7, [sp, #48]
   8629c:	a94427e8 	ldp	x8, x9, [sp, #64]
   862a0:	a9452fea 	ldp	x10, x11, [sp, #80]
   862a4:	a94637ec 	ldp	x12, x13, [sp, #96]
   862a8:	a9473fee 	ldp	x14, x15, [sp, #112]
   862ac:	a94847f0 	ldp	x16, x17, [sp, #128]
   862b0:	a9494ff2 	ldp	x18, x19, [sp, #144]
   862b4:	a94a57f4 	ldp	x20, x21, [sp, #160]
   862b8:	a94b5ff6 	ldp	x22, x23, [sp, #176]
   862bc:	a94c67f8 	ldp	x24, x25, [sp, #192]
   862c0:	a94d6ffa 	ldp	x26, x27, [sp, #208]
   862c4:	a94e77fc 	ldp	x28, x29, [sp, #224]
   862c8:	f9407bfe 	ldr	x30, [sp, #240]
   862cc:	f9407fe0 	ldr	x0, [sp, #248]
   862d0:	d5184000 	msr	spsr_el1, x0
   862d4:	f94083e0 	ldr	x0, [sp, #256]
   862d8:	d5184020 	msr	elr_el1, x0
   862dc:	f94087e0 	ldr	x0, [sp, #264]
   862e0:	d5184100 	msr	sp_el0, x0
   862e4:	a94007e0 	ldp	x0, x1, [sp]
   862e8:	a94007e0 	ldp	x0, x1, [sp]
   862ec:	910483ff 	add	sp, sp, #0x120
   862f0:	d69f03e0 	eret

00000000000862f4 <el0_fiq_invalid_64>:
   862f4:	d2800140 	mov	x0, #0xa                   	// #10
   862f8:	97ffeab4 	bl	80dc8 <invalid_exception_router>

00000000000862fc <el0_error_invalid_64>:
   862fc:	d2800160 	mov	x0, #0xb                   	// #11
   86300:	97ffeab2 	bl	80dc8 <invalid_exception_router>

0000000000086304 <el0_sync_invalid_32>:
   86304:	d2800180 	mov	x0, #0xc                   	// #12
   86308:	97ffeab0 	bl	80dc8 <invalid_exception_router>

000000000008630c <el0_irq_invalid_32>:
   8630c:	d28001a0 	mov	x0, #0xd                   	// #13
   86310:	97ffeaae 	bl	80dc8 <invalid_exception_router>

0000000000086314 <el0_fiq_invalid_32>:
   86314:	d28001c0 	mov	x0, #0xe                   	// #14
   86318:	97ffeaac 	bl	80dc8 <invalid_exception_router>

000000000008631c <el0_error_invalid_32>:
   8631c:	d28001e0 	mov	x0, #0xf                   	// #15
   86320:	97ffeaaa 	bl	80dc8 <invalid_exception_router>

0000000000086324 <switch_to>:
   86324:	a9005013 	stp	x19, x20, [x0]
   86328:	a9015815 	stp	x21, x22, [x0, #16]
   8632c:	a9026017 	stp	x23, x24, [x0, #32]
   86330:	a9036819 	stp	x25, x26, [x0, #48]
   86334:	a904701b 	stp	x27, x28, [x0, #64]
   86338:	a905781d 	stp	x29, x30, [x0, #80]
   8633c:	910003e9 	mov	x9, sp
   86340:	f9003009 	str	x9, [x0, #96]
   86344:	a9405033 	ldp	x19, x20, [x1]
   86348:	a9415835 	ldp	x21, x22, [x1, #16]
   8634c:	a9426037 	ldp	x23, x24, [x1, #32]
   86350:	a9436839 	ldp	x25, x26, [x1, #48]
   86354:	a944703b 	ldp	x27, x28, [x1, #64]
   86358:	a945783d 	ldp	x29, x30, [x1, #80]
   8635c:	f9403029 	ldr	x9, [x1, #96]
   86360:	9100013f 	mov	sp, x9
   86364:	d518d081 	msr	tpidr_el1, x1
   86368:	d65f03c0 	ret

000000000008636c <get_current>:
   8636c:	d538d080 	mrs	x0, tpidr_el1
   86370:	d65f03c0 	ret

0000000000086374 <store_context>:
   86374:	a9005013 	stp	x19, x20, [x0]
   86378:	a9015815 	stp	x21, x22, [x0, #16]
   8637c:	a9026017 	stp	x23, x24, [x0, #32]
   86380:	a9036819 	stp	x25, x26, [x0, #48]
   86384:	a904701b 	stp	x27, x28, [x0, #64]
   86388:	a905781d 	stp	x29, x30, [x0, #80]
   8638c:	910003e9 	mov	x9, sp
   86390:	f9003009 	str	x9, [x0, #96]
   86394:	d65f03c0 	ret

0000000000086398 <load_context>:
   86398:	a9405013 	ldp	x19, x20, [x0]
   8639c:	a9415815 	ldp	x21, x22, [x0, #16]
   863a0:	a9426017 	ldp	x23, x24, [x0, #32]
   863a4:	a9436819 	ldp	x25, x26, [x0, #48]
   863a8:	a944701b 	ldp	x27, x28, [x0, #64]
   863ac:	a945781d 	ldp	x29, x30, [x0, #80]
   863b0:	f9403009 	ldr	x9, [x0, #96]
   863b4:	9100013f 	mov	sp, x9
   863b8:	d65f03c0 	ret

Disassembly of section .bss:

0000000000088850 <dtb_ptr>:
	...

0000000000088858 <level.0>:
	...

0000000000088860 <irq_head>:
	...

0000000000088868 <lock_count>:
	...

0000000000088870 <input_buffer>:
	...

00000000000888f0 <pt>:
	...

00000000000889f0 <frame_array>:
	...

00000000000889f8 <free_frame_list>:
	...

0000000000088a00 <free_slot_list>:
	...

0000000000088a08 <CPIO_DEFAULT_START>:
	...

0000000000088a10 <CPIO_DEFAULT_END>:
	...

0000000000088a18 <run_queue>:
	...

0000000000088a20 <thread_list>:
	...

00000000021f1570 <pid_cnt>:
	...

00000000021f1578 <timer_head>:
	...

00000000021f1580 <uart_tx_buffer>:
	...

00000000021f1680 <uart_rx_buffer>:
	...

00000000021f1780 <uart_tx_read>:
 21f1780:	00000000 	udf	#0

00000000021f1784 <uart_tx_write>:
 21f1784:	00000000 	udf	#0

00000000021f1788 <uart_rx_read>:
 21f1788:	00000000 	udf	#0

00000000021f178c <uart_rx_write>:
 21f178c:	00000000 	udf	#0

Disassembly of section .data:

00000000000878a8 <cmd_list>:
   878a8:	00746163 	.inst	0x00746163 ; undefined
	...
   87928:	20656573 	.inst	0x20656573 ; undefined
   8792c:	20656874 	.inst	0x20656874 ; undefined
   87930:	656c6966 	fnmls	z6.h, p2/m, z11.h, z12.h
   87934:	6e6f6320 	rsubhn2	v0.8h, v25.4s, v15.4s
   87938:	746e6574 	.inst	0x746e6574 ; undefined
	...
   879a8:	00627464 	.inst	0x00627464 ; undefined
	...
   87a28:	776f6873 	.inst	0x776f6873 ; undefined
   87a2c:	76656420 	.inst	0x76656420 ; undefined
   87a30:	20656369 	.inst	0x20656369 ; undefined
   87a34:	65657274 	fnmls	z20.h, p4/m, z19.h, z5.h
	...
   87aa8:	63657865 	.inst	0x63657865 ; undefined
	...
   87b28:	64616f6c 	.inst	0x64616f6c ; undefined
   87b2c:	72737520 	.inst	0x72737520 ; undefined
   87b30:	6f727020 	fcmla	v0.8h, v1.8h, v18.h[1], #270
   87b34:	00000063 	udf	#99
	...
   87ba8:	6c6c6568 	ldnp	d8, d25, [x11, #-320]
   87bac:	0000006f 	udf	#111
	...
   87c28:	6e697270 	uabdl2	v16.4s, v19.8h, v9.8h
   87c2c:	65482074 	.inst	0x65482074 ; undefined
   87c30:	206f6c6c 	.inst	0x206f6c6c ; undefined
   87c34:	6c726f57 	ldnp	d23, d27, [x26, #-224]
   87c38:	00002164 	udf	#8548
	...
   87ca8:	706c6568 	adr	x8, 160957 <thread_list+0xd7f37>
	...
   87d28:	6e697270 	uabdl2	v16.4s, v19.8h, v9.8h
   87d2c:	6c612074 	ldnp	d20, d8, [x3, #-496]
   87d30:	7661206c 	.inst	0x7661206c ; undefined
   87d34:	616c6961 	.inst	0x616c6961 ; undefined
   87d38:	20656c62 	.inst	0x20656c62 ; undefined
   87d3c:	6d6d6f63 	ldp	d3, d27, [x27, #-304]
   87d40:	73646e61 	.inst	0x73646e61 ; undefined
	...
   87da8:	6f666e69 	.inst	0x6f666e69 ; undefined
	...
   87e28:	20746567 	.inst	0x20746567 ; undefined
   87e2c:	69766564 	ldpsw	x4, x25, [x11, #-80]
   87e30:	69206563 	stgp	x3, x25, [x11, #-1024]
   87e34:	726f666e 	.inst	0x726f666e ; undefined
   87e38:	6974616d 	ldpsw	x13, x24, [x11, #-96]
   87e3c:	76206e6f 	.inst	0x76206e6f ; undefined
   87e40:	6d206169 	stp	d9, d24, [x11, #-512]
   87e44:	626c6961 	.inst	0x626c6961 ; undefined
   87e48:	0000786f 	udf	#30831
	...
   87ea8:	0000736c 	udf	#29548
	...
   87f28:	7473696c 	.inst	0x7473696c ; undefined
   87f2c:	72696420 	.inst	0x72696420 ; undefined
   87f30:	6f746365 	umlsl2	v5.4s, v27.8h, v4.h[3]
   87f34:	63207972 	.inst	0x63207972 ; undefined
   87f38:	65746e6f 	fnmls	z15.h, p3/m, z19.h, z20.h
   87f3c:	0073746e 	.inst	0x0073746e ; undefined
	...
   87fa8:	706d6973 	adr	x19, 162cd7 <thread_list+0xda2b7>
   87fac:	6d5f656c 	ldp	d12, d25, [x11, #496]
   87fb0:	6f6c6c61 	.inst	0x6f6c6c61 ; undefined
   87fb4:	00000063 	udf	#99
	...
   88028:	706d6973 	adr	x19, 162d57 <thread_list+0xda337>
   8802c:	6120656c 	.inst	0x6120656c ; undefined
   88030:	636f6c6c 	.inst	0x636f6c6c ; undefined
   88034:	726f7461 	.inst	0x726f7461 ; undefined
   88038:	206e6920 	.inst	0x206e6920 ; undefined
   8803c:	70616568 	adr	x8, 14aceb <thread_list+0xc22cb>
   88040:	73657320 	.inst	0x73657320 ; undefined
   88044:	6e6f6973 	.inst	0x6e6f6973 ; undefined
	...
   880a8:	6f626572 	sqshlu	v18.2d, v11.2d, #34
   880ac:	0000746f 	udf	#29807
	...
   88128:	6f626572 	sqshlu	v18.2d, v11.2d, #34
   8812c:	7420746f 	.inst	0x7420746f ; undefined
   88130:	64206568 	.inst	0x64206568 ; undefined
   88134:	63697665 	.inst	0x63697665 ; undefined
   88138:	00000065 	udf	#101
	...
   881a8:	54746573 	bc.cc	170e54 <thread_list+0xe8434>  // bc.lo, bc.ul, bc.last
   881ac:	72656d69 	.inst	0x72656d69 ; undefined
	...
   88228:	54746573 	bc.cc	170ed4 <thread_list+0xe84b4>  // bc.lo, bc.ul, bc.last
   8822c:	72656d69 	.inst	0x72656d69 ; undefined
   88230:	736d5b20 	.inst	0x736d5b20 ; undefined
   88234:	5b205d67 	.inst	0x5b205d67 ; undefined
   88238:	6f636573 	sqshlu	v19.2d, v11.2d, #35
   8823c:	005d646e 	.inst	0x005d646e ; undefined
	...
   882a8:	32746573 	.inst	0x32746573 ; undefined
   882ac:	656c4173 	fnmla	z19.h, p0/m, z11.h, z12.h
   882b0:	00007472 	udf	#29810
	...
   88328:	20746573 	.inst	0x20746573 ; undefined
   8832c:	73322061 	.inst	0x73322061 ; undefined
   88330:	6d697420 	ldp	d0, d29, [x1, #-368]
   88334:	00007265 	udf	#29285
	...
   883a8:	74736574 	.inst	0x74736574 ; undefined
   883ac:	6e797341 	uabdl2	v1.4s, v26.8h, v25.8h
   883b0:	72615563 	.inst	0x72615563 ; undefined
   883b4:	00000074 	udf	#116
	...
   88428:	6c6c6977 	ldnp	d23, d26, [x11, #-320]
   8842c:	68636520 	.inst	0x68636520 ; undefined
   88430:	6f79206f 	umlal2	v15.4s, v3.8h, v9.h[3]
   88434:	69207275 	stgp	x21, x28, [x19, #-1024]
   88438:	7475706e 	.inst	0x7475706e ; undefined
   8843c:	20796220 	.inst	0x20796220 ; undefined
   88440:	6e797361 	uabdl2	v1.4s, v27.8h, v25.8h
   88444:	41552063 	.inst	0x41552063 ; undefined
   88448:	00005452 	udf	#21586
	...
   884a8:	5f6d656d 	.inst	0x5f6d656d ; undefined
   884ac:	74736574 	.inst	0x74736574 ; undefined
	...
   88528:	797a616c 	ldrh	w12, [x11, #7472]
   8852c:	73657420 	.inst	0x73657420 ; undefined
   88530:	676e6974 	.inst	0x676e6974 ; undefined
   88534:	616d6b20 	.inst	0x616d6b20 ; undefined
   88538:	636f6c6c 	.inst	0x636f6c6c ; undefined
   8853c:	646e6120 	.inst	0x646e6120 ; undefined
   88540:	72666b20 	.inst	0x72666b20 ; undefined
   88544:	00006565 	udf	#25957
	...
   885a8:	65726874 	fnmls	z20.h, p2/m, z3.h, z18.h
   885ac:	745f6461 	.inst	0x745f6461 ; undefined
   885b0:	00747365 	.inst	0x00747365 ; undefined
	...
   88628:	74736574 	.inst	0x74736574 ; undefined
   8862c:	72687420 	.inst	0x72687420 ; undefined
   88630:	73646165 	.inst	0x73646165 ; undefined
   88634:	746e6920 	.inst	0x746e6920 ; undefined
   88638:	656c7265 	fnmls	z5.h, p4/m, z19.h, z12.h
   8863c:	6e697661 	uabd	v1.8h, v19.8h, v9.8h
   88640:	00000067 	udf	#103
	...
   886a8:	63737973 	.inst	0x63737973 ; undefined
   886ac:	5f6c6c61 	.inst	0x5f6c6c61 ; undefined
   886b0:	74736574 	.inst	0x74736574 ; undefined
	...
   88728:	74736574 	.inst	0x74736574 ; undefined
   8872c:	73797320 	.inst	0x73797320 ; undefined
   88730:	6c6c6163 	ldnp	d3, d24, [x11, #-320]
	...

00000000000887a8 <uart_recv_echo_flag>:
   887a8:	00000001 	udf	#1

Disassembly of section .got:

00000000000887b0 <_GLOBAL_OFFSET_TABLE_>:
	...
   887b8:	00088a18 	.inst	0x00088a18 ; undefined
   887bc:	00000000 	udf	#0
   887c0:	000888f0 	.inst	0x000888f0 ; undefined
   887c4:	00000000 	udf	#0
   887c8:	00084568 	.inst	0x00084568 ; undefined
   887cc:	00000000 	udf	#0
   887d0:	000831d0 	.inst	0x000831d0 ; undefined
   887d4:	00000000 	udf	#0
   887d8:	00084328 	.inst	0x00084328 ; undefined
   887dc:	00000000 	udf	#0
   887e0:	00084978 	.inst	0x00084978 ; undefined
   887e4:	00000000 	udf	#0
   887e8:	00084a2c 	.inst	0x00084a2c ; undefined
   887ec:	00000000 	udf	#0
   887f0:	00088a20 	.inst	0x00088a20 ; undefined
   887f4:	00000000 	udf	#0
   887f8:	000887a8 	.inst	0x000887a8 ; undefined
   887fc:	00000000 	udf	#0
   88800:	00088a10 	.inst	0x00088a10 ; undefined
   88804:	00000000 	udf	#0
   88808:	00088850 	.inst	0x00088850 ; undefined
   8880c:	00000000 	udf	#0
   88810:	00084180 	.inst	0x00084180 ; undefined
   88814:	00000000 	udf	#0
   88818:	0008082c 	.inst	0x0008082c ; undefined
   8881c:	00000000 	udf	#0
   88820:	00088a08 	.inst	0x00088a08 ; undefined
   88824:	00000000 	udf	#0
   88828:	000806d0 	.inst	0x000806d0 ; undefined
   8882c:	00000000 	udf	#0

Disassembly of section .got.plt:

0000000000088830 <.got.plt>:
	...

Disassembly of section .data.rel:

0000000000088848 <htop_ptr>:
   88848:	021f1790 	.inst	0x021f1790 ; undefined
   8884c:	00000000 	udf	#0

Disassembly of section .rodata:

00000000000863c0 <.rodata>:
   863c0:	37303730 	tbnz	w16, #6, 86aa4 <load_context+0x70c>
   863c4:	00003130 	udf	#12592
   863c8:	49415254 	.inst	0x49415254 ; undefined
   863cc:	2152454c 	.inst	0x2152454c ; undefined
   863d0:	00002121 	udf	#8481
   863d4:	00000000 	udf	#0
   863d8:	76617254 	.inst	0x76617254 ; undefined
   863dc:	65737265 	fnmls	z5.h, p4/m, z19.h, z19.h
   863e0:	7665645f 	.inst	0x7665645f ; undefined
   863e4:	5f656369 	.inst	0x5f656369 ; undefined
   863e8:	65657274 	fnmls	z20.h, p4/m, z19.h, z5.h
   863ec:	77203a20 	.inst	0x77203a20 ; undefined
   863f0:	676e6f72 	.inst	0x676e6f72 ; undefined
   863f4:	67616d20 	.inst	0x67616d20 ; undefined
   863f8:	69206369 	stgp	x9, x24, [x27, #-1024]
   863fc:	7274206e 	.inst	0x7274206e ; undefined
   86400:	72657661 	.inst	0x72657661 ; undefined
   86404:	645f6573 	fcmla	z19.h, p1/m, z11.h, z31.h, #270
   86408:	63697665 	.inst	0x63697665 ; undefined
   8640c:	72745f65 	.inst	0x72745f65 ; undefined
   86410:	00006565 	udf	#25957
   86414:	00000000 	udf	#0
   86418:	6f727265 	fcmla	v5.8h, v19.8h, v18.h[1], #270
   8641c:	79742072 	ldrh	w18, [x3, #6672]
   86420:	203a6570 	.inst	0x203a6570 ; undefined
   86424:	000a7825 	.inst	0x000a7825 ; undefined
   86428:	00002020 	udf	#8224
   8642c:	00000000 	udf	#0
   86430:	0a7b7325 	bic	w5, w25, w27, lsr #28
   86434:	00000000 	udf	#0
   86438:	00000a7d 	udf	#2685
   8643c:	00000000 	udf	#0
   86440:	000a7325 	.inst	0x000a7325 ; undefined
   86444:	00000000 	udf	#0
   86448:	756e696c 	.inst	0x756e696c ; undefined
   8644c:	6e692c78 	uqsub	v24.8h, v3.8h, v9.8h
   86450:	64727469 	.inst	0x64727469 ; undefined
   86454:	6174732d 	.inst	0x6174732d ; undefined
   86458:	00007472 	udf	#29810
   8645c:	00000000 	udf	#0
   86460:	756e696c 	.inst	0x756e696c ; undefined
   86464:	6e692c78 	uqsub	v24.8h, v3.8h, v9.8h
   86468:	64727469 	.inst	0x64727469 ; undefined
   8646c:	646e652d 	.inst	0x646e652d ; undefined
	...
   86478:	20646142 	.inst	0x20646142 ; undefined
   8647c:	6967614d 	ldpsw	x13, x24, [x10, #-200]
   86480:	000a2e63 	.inst	0x000a2e63 ; undefined
   86484:	00000000 	udf	#0
   86488:	61766e49 	.inst	0x61766e49 ; undefined
   8648c:	2064696c 	.inst	0x2064696c ; undefined
   86490:	74737953 	.inst	0x74737953 ; undefined
   86494:	43206d65 	.inst	0x43206d65 ; undefined
   86498:	206c6c61 	.inst	0x206c6c61 ; undefined
   8649c:	626d754e 	.inst	0x626d754e ; undefined
   864a0:	000a7265 	.inst	0x000a7265 ; undefined
   864a4:	00000000 	udf	#0
   864a8:	61766e69 	.inst	0x61766e69 ; undefined
   864ac:	2064696c 	.inst	0x2064696c ; undefined
   864b0:	65637865 	fnmls	z5.h, p6/m, z3.h, z3.h
   864b4:	6f697470 	uqshl	v16.2d, v3.2d, #41
   864b8:	255b206e 	cmplt	p14.h, p0/z, z3.h, #-5
   864bc:	000a5d64 	.inst	0x000a5d64 ; undefined
   864c0:	5f727365 	sqdmlsl	s5, h27, v2.h[3]
   864c4:	3a316c65 	.inst	0x3a316c65 ; undefined
   864c8:	2c782520 	ldnp	s0, s9, [x9, #-64]
   864cc:	726c6520 	.inst	0x726c6520 ; undefined
   864d0:	316c655f 	cmn	w10, #0xb19, lsl #12
   864d4:	7825203a 	ldeorh	w5, w26, [x1]
   864d8:	0000000a 	udf	#10
   864dc:	00000000 	udf	#0
   864e0:	72727543 	.inst	0x72727543 ; undefined
   864e4:	20746e65 	.inst	0x20746e65 ; undefined
   864e8:	69204c45 	stgp	x5, x19, [x2, #-1024]
   864ec:	00203a73 	.inst	0x00203a73 ; NYI
   864f0:	0000000a 	udf	#10
   864f4:	00000000 	udf	#0
   864f8:	64616f4c 	.inst	0x64616f4c ; undefined
   864fc:	20676e69 	.inst	0x20676e69 ; undefined
   86500:	20627464 	.inst	0x20627464 ; undefined
   86504:	6d6f7266 	ldp	d6, d28, [x19, #-272]
   86508:	7830203a 	ldeorh	w16, w26, [x1]
   8650c:	000a7825 	.inst	0x000a7825 ; undefined
   86510:	00002023 	udf	#8227
   86514:	00000000 	udf	#0
   86518:	78626f6d 	.inst	0x78626f6d ; undefined
   8651c:	7825203a 	ldeorh	w5, w26, [x1]
   86520:	0000000a 	udf	#10
   86524:	00000000 	udf	#0
   86528:	65676170 	fnmls	z16.h, p0/m, z11.h, z7.h
   8652c:	6c616d20 	ldnp	d0, d27, [x9, #-496]
   86530:	20636f6c 	.inst	0x20636f6c ; undefined
   86534:	6c696166 	ldnp	d6, d24, [x11, #-368]
   86538:	202c6465 	.inst	0x202c6465 ; undefined
   8653c:	73206f6e 	.inst	0x73206f6e ; undefined
   86540:	65636170 	fnmls	z16.h, p0/m, z11.h, z3.h
   86544:	66656c20 	.inst	0x66656c20 ; undefined
   86548:	00000a74 	udf	#2676
   8654c:	00000000 	udf	#0
   86550:	3d3d3d0a 	str	b10, [x8, #3919]
   86554:	3d3d3d3d 	str	b29, [x9, #3919]
   86558:	3d3d3d3d 	str	b29, [x9, #3919]
   8655c:	3d3d3d3d 	str	b29, [x9, #3919]
   86560:	3d3d3d3d 	str	b29, [x9, #3919]
   86564:	3d3d3d3d 	str	b29, [x9, #3919]
   86568:	3d3d3d3d 	str	b29, [x9, #3919]
   8656c:	3d3d3d3d 	str	b29, [x9, #3919]
   86570:	3d3d3d3d 	str	b29, [x9, #3919]
   86574:	3d3d3d3d 	str	b29, [x9, #3919]
   86578:	3d3d3d3d 	str	b29, [x9, #3919]
   8657c:	0000000a 	udf	#10
   86580:	6572665b 	fnmls	z27.h, p1/m, z18.h, z18.h
   86584:	72662065 	.inst	0x72662065 ; undefined
   86588:	20656d61 	.inst	0x20656d61 ; undefined
   8658c:	7473696c 	.inst	0x7473696c ; undefined
   86590:	00000a5d 	udf	#2653
   86594:	00000000 	udf	#0
   86598:	6d617246 	ldp	d6, d28, [x18, #-496]
   8659c:	69732065 	ldpsw	x5, x8, [x3, #-104]
   865a0:	2520657a 	.inst	0x2520657a ; undefined
   865a4:	424b2064 	.inst	0x424b2064 ; undefined
   865a8:	6425093a 	.inst	0x6425093a ; undefined
   865ac:	66656c20 	.inst	0x66656c20 ; undefined
   865b0:	00000a74 	udf	#2676
   865b4:	00000000 	udf	#0
   865b8:	3d3d3d3d 	str	b29, [x9, #3919]
   865bc:	3d3d3d3d 	str	b29, [x9, #3919]
   865c0:	3d3d3d3d 	str	b29, [x9, #3919]
   865c4:	3d3d3d3d 	str	b29, [x9, #3919]
   865c8:	3d3d3d3d 	str	b29, [x9, #3919]
   865cc:	3d3d3d3d 	str	b29, [x9, #3919]
   865d0:	3d3d3d3d 	str	b29, [x9, #3919]
   865d4:	3d3d3d3d 	str	b29, [x9, #3919]
   865d8:	3d3d3d3d 	str	b29, [x9, #3919]
   865dc:	3d3d3d3d 	str	b29, [x9, #3919]
   865e0:	0a3d3d3d 	bic	w29, w9, w29, lsl #15
   865e4:	0000000a 	udf	#10
   865e8:	6572665b 	fnmls	z27.h, p1/m, z18.h, z18.h
   865ec:	6c732065 	ldnp	d5, d8, [x3, #-208]
   865f0:	6c20746f 	stnp	d15, d29, [x3, #-512]
   865f4:	5d747369 	.inst	0x5d747369 ; undefined
   865f8:	0000000a 	udf	#10
   865fc:	00000000 	udf	#0
   86600:	746f6c53 	.inst	0x746f6c53 ; undefined
   86604:	7a697320 	.inst	0x7a697320 ; undefined
   86608:	64252065 	fmul	z5.h, z3.h, z5.h[0]
   8660c:	74794220 	.inst	0x74794220 ; undefined
   86610:	25093a65 	cmplt	p5.b, p6/z, z19.b, #9
   86614:	656c2064 	fmls	z4.h, p0/m, z3.h, z12.h
   86618:	000a7466 	.inst	0x000a7466 ; undefined
   8661c:	00000000 	udf	#0
   86620:	6f697063 	fcmla	v3.8h, v3.8h, v9.h[1], #270
   86624:	72617020 	.inst	0x72617020 ; undefined
   86628:	65206573 	.inst	0x65206573 ; undefined
   8662c:	726f7272 	.inst	0x726f7272 ; undefined
	...
   86638:	3a746163 	.inst	0x3a746163 ; undefined
   8663c:	3a732520 	.inst	0x3a732520 ; undefined
   86640:	206f4e20 	.inst	0x206f4e20 ; undefined
   86644:	68637573 	.inst	0x68637573 ; undefined
   86648:	6c696620 	ldnp	d0, d25, [x17, #-368]
   8664c:	726f2065 	.inst	0x726f2065 ; undefined
   86650:	72696420 	.inst	0x72696420 ; undefined
   86654:	6f746365 	umlsl2	v5.4s, v27.8h, v4.h[3]
   86658:	0a2e7972 	bic	w18, w11, w14, lsl #30
   8665c:	00000000 	udf	#0
   86660:	00746163 	.inst	0x00746163 ; undefined
   86664:	00000000 	udf	#0
   86668:	00627464 	.inst	0x00627464 ; undefined
   8666c:	00000000 	udf	#0
   86670:	6c6c6568 	ldnp	d8, d25, [x11, #-320]
   86674:	0000006f 	udf	#111
   86678:	706c6568 	adr	x8, 15f327 <thread_list+0xd6907>
   8667c:	00000000 	udf	#0
   86680:	6f666e69 	.inst	0x6f666e69 ; undefined
   86684:	00000000 	udf	#0
   86688:	706d6973 	adr	x19, 1613b7 <thread_list+0xd8997>
   8668c:	6d5f656c 	ldp	d12, d25, [x11, #496]
   86690:	6f6c6c61 	.inst	0x6f6c6c61 ; undefined
   86694:	00000063 	udf	#99
   86698:	0000736c 	udf	#29548
   8669c:	00000000 	udf	#0
   866a0:	63657865 	.inst	0x63657865 ; undefined
   866a4:	00000000 	udf	#0
   866a8:	6f626572 	sqshlu	v18.2d, v11.2d, #34
   866ac:	0000746f 	udf	#29807
   866b0:	32746573 	.inst	0x32746573 ; undefined
   866b4:	656c4173 	fnmla	z19.h, p0/m, z11.h, z12.h
   866b8:	00007472 	udf	#29810
   866bc:	00000000 	udf	#0
   866c0:	74207332 	.inst	0x74207332 ; undefined
   866c4:	27656d69 	.inst	0x27656d69 ; undefined
   866c8:	70752073 	adr	x19, 170ad7 <thread_list+0xe80b7>
   866cc:	00000000 	udf	#0
   866d0:	54746573 	bc.cc	16f37c <thread_list+0xe695c>  // bc.lo, bc.ul, bc.last
   866d4:	72656d69 	.inst	0x72656d69 ; undefined
	...
   866e0:	74736574 	.inst	0x74736574 ; undefined
   866e4:	6e797341 	uabdl2	v1.4s, v26.8h, v25.8h
   866e8:	72615563 	.inst	0x72615563 ; undefined
   866ec:	00000074 	udf	#116
   866f0:	5f6d656d 	.inst	0x5f6d656d ; undefined
   866f4:	74736574 	.inst	0x74736574 ; undefined
	...
   86700:	65726874 	fnmls	z20.h, p2/m, z3.h, z18.h
   86704:	745f6461 	.inst	0x745f6461 ; undefined
   86708:	00747365 	.inst	0x00747365 ; undefined
   8670c:	00000000 	udf	#0
   86710:	63737973 	.inst	0x63737973 ; undefined
   86714:	5f6c6c61 	.inst	0x5f6c6c61 ; undefined
   86718:	74736574 	.inst	0x74736574 ; undefined
   8671c:	00000000 	udf	#0
   86720:	3a207325 	.inst	0x3a207325 ; undefined
   86724:	6d6f6320 	ldp	d0, d24, [x25, #-272]
   86728:	646e616d 	.inst	0x646e616d ; undefined
   8672c:	746f6e20 	.inst	0x746f6e20 ; undefined
   86730:	756f6620 	.inst	0x756f6620 ; undefined
   86734:	000a646e 	.inst	0x000a646e ; undefined
   86738:	65707974 	fnmls	z20.h, p6/m, z11.h, z16.h
   8673c:	27712720 	.inst	0x27712720 ; undefined
   86740:	206f7420 	.inst	0x206f7420 ; undefined
   86744:	74697571 	.inst	0x74697571 ; undefined
   86748:	0000000a 	udf	#10
   8674c:	00000000 	udf	#0
   86750:	3d3d3d3d 	str	b29, [x9, #3919]
   86754:	3d3d3d3d 	str	b29, [x9, #3919]
   86758:	3d3d3d3d 	str	b29, [x9, #3919]
   8675c:	3d3d3d3d 	str	b29, [x9, #3919]
   86760:	3d3d3d3d 	str	b29, [x9, #3919]
   86764:	3d3d3d3d 	str	b29, [x9, #3919]
   86768:	3d3d3d3d 	str	b29, [x9, #3919]
   8676c:	3d3d3d3d 	str	b29, [x9, #3919]
   86770:	3d3d3d3d 	str	b29, [x9, #3919]
   86774:	0d3d3d3d 	.inst	0x0d3d3d3d ; undefined
   86778:	0000000a 	udf	#10
   8677c:	00000000 	udf	#0
   86780:	65572020 	.inst	0x65572020 ; undefined
   86784:	6d6f636c 	ldp	d12, d24, [x27, #-272]
   86788:	6f742065 	umlal2	v5.4s, v3.8h, v4.h[3]
   8678c:	43594e20 	.inst	0x43594e20 ; undefined
   86790:	534f2d55 	.inst	0x534f2d55 ; undefined
   86794:	30322043 	adr	x3, eab9d <thread_list+0x6217d>
   86798:	4c203432 	.inst	0x4c203432 ; undefined
   8679c:	20356261 	.inst	0x20356261 ; undefined
   867a0:	6c656853 	ldnp	d19, d26, [x2, #-432]
   867a4:	0d20206c 	st4	{v12.b-v15.b}[0], [x3]
   867a8:	0000000a 	udf	#10
   867ac:	00000000 	udf	#0
   867b0:	00007325 	udf	#29477
   867b4:	00000000 	udf	#0
   867b8:	3a746163 	.inst	0x3a746163 ; undefined
   867bc:	3a732520 	.inst	0x3a732520 ; undefined
   867c0:	206f4e20 	.inst	0x206f4e20 ; undefined
   867c4:	68637573 	.inst	0x68637573 ; undefined
   867c8:	6c696620 	ldnp	d0, d25, [x17, #-368]
   867cc:	726f2065 	.inst	0x726f2065 ; undefined
   867d0:	72696420 	.inst	0x72696420 ; undefined
   867d4:	6f746365 	umlsl2	v5.4s, v27.8h, v4.h[3]
   867d8:	00007972 	udf	#31090
   867dc:	00000000 	udf	#0
   867e0:	0000000a 	udf	#10
   867e4:	00000000 	udf	#0
   867e8:	203a0909 	.inst	0x203a0909 ; undefined
   867ec:	00000000 	udf	#0
   867f0:	00000a0d 	udf	#2573
   867f4:	00000000 	udf	#0
   867f8:	6c6c6548 	ldnp	d8, d25, [x10, #-320]
   867fc:	6f57206f 	umlal2	v15.4s, v3.8h, v7.h[1]
   86800:	21646c72 	.inst	0x21646c72 ; undefined
   86804:	00000a0d 	udf	#2573
   86808:	64726148 	.inst	0x64726148 ; undefined
   8680c:	65726177 	fnmls	z23.h, p0/m, z11.h, z18.h
   86810:	76655220 	.inst	0x76655220 ; undefined
   86814:	6f697369 	fcmla	v9.8h, v27.8h, v9.h[1], #270
   86818:	203a096e 	.inst	0x203a096e ; undefined
   8681c:	00000000 	udf	#0
   86820:	204d5241 	.inst	0x204d5241 ; undefined
   86824:	6f6d654d 	sqshlu	v13.2d, v10.2d, #45
   86828:	42207972 	.inst	0x42207972 ; undefined
   8682c:	20657361 	.inst	0x20657361 ; undefined
   86830:	72646441 	.inst	0x72646441 ; undefined
   86834:	09737365 	.inst	0x09737365 ; undefined
   86838:	0000203a 	udf	#8250
   8683c:	00000000 	udf	#0
   86840:	204d5241 	.inst	0x204d5241 ; undefined
   86844:	6f6d654d 	sqshlu	v13.2d, v10.2d, #45
   86848:	53207972 	.inst	0x53207972 ; undefined
   8684c:	09657a69 	.inst	0x09657a69 ; undefined
   86850:	00203a09 	.inst	0x00203a09 ; NYI
   86854:	00000000 	udf	#0
   86858:	74736574 	.inst	0x74736574 ; undefined
   8685c:	6c616d20 	ldnp	d0, d27, [x9, #-496]
   86860:	31636f6c 	adds	w12, w27, #0x8db, lsl #12
   86864:	00000000 	udf	#0
   86868:	000a7325 	.inst	0x000a7325 ; undefined
   8686c:	00000000 	udf	#0
   86870:	74736574 	.inst	0x74736574 ; undefined
   86874:	6c616d20 	ldnp	d0, d27, [x9, #-496]
   86878:	32636f6c 	.inst	0x32636f6c ; undefined
   8687c:	00000000 	udf	#0
   86880:	74736574 	.inst	0x74736574 ; undefined
   86884:	6c616d20 	ldnp	d0, d27, [x9, #-496]
   86888:	33636f6c 	.inst	0x33636f6c ; undefined
   8688c:	00000000 	udf	#0
   86890:	6f626552 	sqshlu	v18.2d, v10.2d, #34
   86894:	6920746f 	stgp	x15, x29, [x3, #-1024]
   86898:	2035206e 	.inst	0x2035206e ; undefined
   8689c:	6f636573 	sqshlu	v19.2d, v11.2d, #35
   868a0:	2073646e 	.inst	0x2073646e ; undefined
   868a4:	0d2e2e2e 	.inst	0x0d2e2e2e ; undefined
   868a8:	000a0d0a 	.inst	0x000a0d0a ; undefined
   868ac:	00000000 	udf	#0
   868b0:	746e495b 	.inst	0x746e495b ; undefined
   868b4:	75727265 	.inst	0x75727265 ; undefined
   868b8:	5b5d7470 	.inst	0x5b5d7470 ; undefined
   868bc:	5f316c65 	.inst	0x5f316c65 ; undefined
   868c0:	5d717269 	.inst	0x5d717269 ; undefined
   868c4:	5d73255b 	.inst	0x5d73255b ; undefined
   868c8:	20642520 	.inst	0x20642520 ; undefined
   868cc:	6f636573 	sqshlu	v19.2d, v11.2d, #35
   868d0:	2073646e 	.inst	0x2073646e ; undefined
   868d4:	65746661 	fnmls	z1.h, p1/m, z19.h, z20.h
   868d8:	6f622072 	umlal2	v18.4s, v3.8h, v2.h[2]
   868dc:	6e69746f 	uabd	v15.8h, v3.8h, v9.8h
   868e0:	00000a67 	udf	#2663
   868e4:	00000000 	udf	#0
   868e8:	74736574 	.inst	0x74736574 ; undefined
   868ec:	3a676e69 	.inst	0x3a676e69 ; undefined
   868f0:	0a642520 	bic	w0, w9, w4, lsr #9
   868f4:	00000000 	udf	#0
   868f8:	75706e49 	.inst	0x75706e49 ; undefined
   868fc:	203a2074 	.inst	0x203a2074 ; undefined
	...
   86908:	726f460a 	.inst	0x726f460a ; undefined
   8690c:	6554206b 	.inst	0x6554206b ; undefined
   86910:	202c7473 	.inst	0x202c7473 ; undefined
   86914:	20646970 	.inst	0x20646970 ; undefined
   86918:	000a6425 	.inst	0x000a6425 ; undefined
   8691c:	00000000 	udf	#0
   86920:	73726966 	.inst	0x73726966 ; undefined
   86924:	68632074 	.inst	0x68632074 ; undefined
   86928:	20646c69 	.inst	0x20646c69 ; undefined
   8692c:	3a646970 	.inst	0x3a646970 ; undefined
   86930:	2c642520 	ldnp	s0, s9, [x9, #-224]
   86934:	746e6320 	.inst	0x746e6320 ; undefined
   86938:	6425203a 	fmul	z26.h, z1.h, z5.h[0]
   8693c:	7470202c 	.inst	0x7470202c ; undefined
   86940:	25203a72 	.inst	0x25203a72 ; undefined
   86944:	73202c78 	.inst	0x73202c78 ; undefined
   86948:	203a2070 	.inst	0x203a2070 ; undefined
   8694c:	000a7825 	.inst	0x000a7825 ; undefined
   86950:	6f636573 	sqshlu	v19.2d, v11.2d, #35
   86954:	6320646e 	.inst	0x6320646e ; undefined
   86958:	646c6968 	.inst	0x646c6968 ; undefined
   8695c:	64697020 	.inst	0x64697020 ; undefined
   86960:	6425203a 	fmul	z26.h, z1.h, z5.h[0]
   86964:	6e63202c 	usubl2	v12.4s, v1.8h, v3.8h
   86968:	25203a74 	.inst	0x25203a74 ; undefined
   8696c:	70202c64 	adr	x4, c6efb <thread_list+0x3e4db>
   86970:	203a7274 	.inst	0x203a7274 ; undefined
   86974:	202c7825 	.inst	0x202c7825 ; undefined
   86978:	3a207073 	.inst	0x3a207073 ; undefined
   8697c:	0a782520 	bic	w0, w9, w24, lsr #9
	...
   86988:	65726170 	fnmls	z16.h, p0/m, z11.h, z18.h
   8698c:	6820746e 	.inst	0x6820746e ; undefined
   86990:	2c657265 	ldnp	s5, s28, [x19, #-216]
   86994:	64697020 	.inst	0x64697020 ; undefined
   86998:	2c642520 	ldnp	s0, s9, [x9, #-224]
   8699c:	69686320 	ldpsw	x0, x24, [x25, #-192]
   869a0:	2520646c 	.inst	0x2520646c ; undefined
   869a4:	00000a64 	udf	#2660
   869a8:	6f697063 	fcmla	v3.8h, v3.8h, v9.h[1], #270
   869ac:	72617020 	.inst	0x72617020 ; undefined
   869b0:	65206573 	.inst	0x65206573 ; undefined
   869b4:	726f7272 	.inst	0x726f7272 ; undefined
   869b8:	0000000a 	udf	#10
   869bc:	00000000 	udf	#0
   869c0:	63657865 	.inst	0x63657865 ; undefined
   869c4:	656c6966 	fnmls	z6.h, p2/m, z11.h, z12.h
   869c8:	7325203a 	.inst	0x7325203a ; undefined
   869cc:	6f4e203a 	umlal2	v26.4s, v1.8h, v14.h[0]
   869d0:	63757320 	.inst	0x63757320 ; undefined
   869d4:	69662068 	.inst	0x69662068 ; undefined
   869d8:	6f20656c 	sqshlu	v12.4s, v11.4s, #0
   869dc:	69642072 	ldpsw	x18, x8, [x3, #-224]
   869e0:	74636572 	.inst	0x74636572 ; undefined
   869e4:	0a79726f 	bic	w15, w19, w25, lsr #28
	...
   869f8:	732d6572 	.inst	0x732d6572 ; undefined
   869fc:	64656863 	.inst	0x64656863 ; undefined
   86a00:	00656c75 	.inst	0x00656c75 ; undefined
   86a04:	00000000 	udf	#0
   86a08:	65726854 	fnmls	z20.h, p2/m, z2.h, z18.h
   86a0c:	69206461 	stgp	x1, x25, [x3, #-1024]
   86a10:	25203a64 	.inst	0x25203a64 ; undefined
   86a14:	64252064 	fmul	z4.h, z3.h, z5.h[0]
   86a18:	0000000a 	udf	#10
   86a1c:	00000000 	udf	#0
   86a20:	000a7325 	.inst	0x000a7325 ; undefined
   86a24:	00000000 	udf	#0
   86a28:	6c756e28 	ldnp	d8, d27, [x17, #-176]
   86a2c:	Address 0x0000000000086a2c is out of bounds.


Disassembly of section .eh_frame:

0000000000086a30 <.eh_frame>:
   86a30:	00000010 	udf	#16
   86a34:	00000000 	udf	#0
   86a38:	00527a01 	.inst	0x00527a01 ; undefined
   86a3c:	011e7804 	.inst	0x011e7804 ; undefined
   86a40:	001f0c1b 	.inst	0x001f0c1b ; undefined
   86a44:	00000014 	udf	#20
   86a48:	00000018 	udf	#24
   86a4c:	ffff961c 	.inst	0xffff961c ; undefined
   86a50:	0000015c 	udf	#348
   86a54:	200e4100 	.inst	0x200e4100 ; undefined
   86a58:	000e5502 	.inst	0x000e5502 ; undefined
   86a5c:	00000020 	udf	#32
   86a60:	00000030 	udf	#48
   86a64:	ffff9760 	.inst	0xffff9760 ; undefined
   86a68:	00000170 	udf	#368
   86a6c:	500e4100 	adr	x0, a328e <thread_list+0x1a86e>
   86a70:	099e0a9d 	.inst	0x099e0a9d ; undefined
   86a74:	ddde5a02 	.inst	0xddde5a02 ; undefined
   86a78:	0000000e 	udf	#14
   86a7c:	00000000 	udf	#0
   86a80:	00000014 	udf	#20
   86a84:	00000054 	udf	#84
   86a88:	ffff98ac 	.inst	0xffff98ac ; undefined
   86a8c:	00000060 	udf	#96
   86a90:	200e4100 	.inst	0x200e4100 ; undefined
   86a94:	00000e56 	udf	#3670
   86a98:	00000014 	udf	#20
   86a9c:	0000006c 	udf	#108
   86aa0:	ffff98f4 	.inst	0xffff98f4 ; undefined
   86aa4:	000000cc 	udf	#204
   86aa8:	200e4100 	.inst	0x200e4100 ; undefined
   86aac:	00000e71 	udf	#3697
   86ab0:	0000001c 	udf	#28
   86ab4:	00000084 	udf	#132
   86ab8:	ffff99a8 	.inst	0xffff99a8 ; undefined
   86abc:	00000270 	udf	#624
   86ac0:	600e4100 	.inst	0x600e4100 ; undefined
   86ac4:	0b9e0c9d 	add	w29, w4, w30, asr #3
   86ac8:	ddde9a02 	.inst	0xddde9a02 ; undefined
   86acc:	0000000e 	udf	#14
   86ad0:	0000001c 	udf	#28
   86ad4:	000000a4 	udf	#164
   86ad8:	ffff9bf8 	.inst	0xffff9bf8 ; undefined
   86adc:	0000015c 	udf	#348
   86ae0:	400e4100 	.inst	0x400e4100 ; undefined
   86ae4:	079e089d 	.inst	0x079e089d ; undefined
   86ae8:	ddde5502 	.inst	0xddde5502 ; undefined
   86aec:	0000000e 	udf	#14
   86af0:	0000001c 	udf	#28
   86af4:	000000c4 	udf	#196
   86af8:	ffff9d34 	.inst	0xffff9d34 ; undefined
   86afc:	000000ac 	udf	#172
   86b00:	300e4100 	adr	x0, a3321 <thread_list+0x1a901>
   86b04:	059e069d 	mov	z29.s, p14/z, #52
   86b08:	0eddde69 	.inst	0x0eddde69 ; undefined
   86b0c:	00000000 	udf	#0
   86b10:	00000024 	udf	#36
   86b14:	000000e4 	udf	#228
   86b18:	ffff9dc0 	.inst	0xffff9dc0 ; undefined
   86b1c:	00000120 	udf	#288
   86b20:	500e4100 	adr	x0, a3342 <thread_list+0x1a922>
   86b24:	099e0a9d 	.inst	0x099e0a9d ; undefined
   86b28:	94089342 	bl	2ab830 <thread_list+0x222e10>
   86b2c:	de440207 	.inst	0xde440207 ; undefined
   86b30:	0ed4d3dd 	.inst	0x0ed4d3dd ; undefined
   86b34:	00000000 	udf	#0
   86b38:	0000001c 	udf	#28
   86b3c:	0000010c 	udf	#268
   86b40:	ffff9eb8 	.inst	0xffff9eb8 ; undefined
   86b44:	00000034 	udf	#52
   86b48:	100e4100 	adr	x0, a3368 <thread_list+0x1a948>
   86b4c:	019e029d 	.inst	0x019e029d ; undefined
   86b50:	0eddde4b 	.inst	0x0eddde4b ; undefined
   86b54:	00000000 	udf	#0
   86b58:	0000001c 	udf	#28
   86b5c:	0000012c 	udf	#300
   86b60:	ffff9ecc 	.inst	0xffff9ecc ; undefined
   86b64:	00000048 	udf	#72
   86b68:	100e4100 	adr	x0, a3388 <thread_list+0x1a968>
   86b6c:	019e029d 	.inst	0x019e029d ; undefined
   86b70:	0eddde50 	.inst	0x0eddde50 ; undefined
   86b74:	00000000 	udf	#0
   86b78:	0000001c 	udf	#28
   86b7c:	0000014c 	udf	#332
   86b80:	ffff9ef4 	.inst	0xffff9ef4 ; undefined
   86b84:	00000258 	udf	#600
   86b88:	300e4100 	adr	x0, a33a9 <thread_list+0x1a989>
   86b8c:	059e069d 	mov	z29.s, p14/z, #52
   86b90:	ddde9402 	.inst	0xddde9402 ; undefined
   86b94:	0000000e 	udf	#14
   86b98:	0000001c 	udf	#28
   86b9c:	0000016c 	udf	#364
   86ba0:	ffffa12c 	.inst	0xffffa12c ; undefined
   86ba4:	000000fc 	udf	#252
   86ba8:	200e4100 	.inst	0x200e4100 ; undefined
   86bac:	039e049d 	.inst	0x039e049d ; undefined
   86bb0:	0eddde7d 	.inst	0x0eddde7d ; undefined
   86bb4:	00000000 	udf	#0
   86bb8:	00000014 	udf	#20
   86bbc:	0000018c 	udf	#396
   86bc0:	ffffa208 	.inst	0xffffa208 ; undefined
   86bc4:	00000044 	udf	#68
   86bc8:	300e4100 	adr	x0, a33e9 <thread_list+0x1a9c9>
   86bcc:	059e069d 	mov	z29.s, p14/z, #52
   86bd0:	0000001c 	udf	#28
   86bd4:	000001a4 	udf	#420
   86bd8:	ffffa234 	.inst	0xffffa234 ; undefined
   86bdc:	00000064 	udf	#100
   86be0:	100e4100 	adr	x0, a3400 <thread_list+0x1a9e0>
   86be4:	019e029d 	.inst	0x019e029d ; undefined
   86be8:	0eddde57 	.inst	0x0eddde57 ; undefined
   86bec:	00000000 	udf	#0
   86bf0:	00000014 	udf	#20
   86bf4:	000001c4 	udf	#452
   86bf8:	ffffa278 	.inst	0xffffa278 ; undefined
   86bfc:	00000050 	udf	#80
   86c00:	100e4100 	adr	x0, a3420 <thread_list+0x1aa00>
   86c04:	00000e52 	udf	#3666
   86c08:	00000010 	udf	#16
   86c0c:	000001dc 	udf	#476
   86c10:	ffffa2b0 	.inst	0xffffa2b0 ; undefined
   86c14:	0000000c 	udf	#12
   86c18:	00000000 	udf	#0
   86c1c:	00000010 	udf	#16
   86c20:	000001f0 	udf	#496
   86c24:	ffffa2a8 	.inst	0xffffa2a8 ; undefined
   86c28:	0000000c 	udf	#12
   86c2c:	00000000 	udf	#0
   86c30:	0000001c 	udf	#28
   86c34:	00000204 	udf	#516
   86c38:	ffffa2a0 	.inst	0xffffa2a0 ; undefined
   86c3c:	00000170 	udf	#368
   86c40:	400e4100 	.inst	0x400e4100 ; undefined
   86c44:	079e089d 	.inst	0x079e089d ; undefined
   86c48:	ddde5a02 	.inst	0xddde5a02 ; undefined
   86c4c:	0000000e 	udf	#14
   86c50:	0000001c 	udf	#28
   86c54:	00000224 	udf	#548
   86c58:	ffffa3f0 	.inst	0xffffa3f0 ; undefined
   86c5c:	0000004c 	udf	#76
   86c60:	200e4100 	.inst	0x200e4100 ; undefined
   86c64:	039e049d 	.inst	0x039e049d ; undefined
   86c68:	0eddde51 	.inst	0x0eddde51 ; undefined
   86c6c:	00000000 	udf	#0
   86c70:	00000014 	udf	#20
   86c74:	00000244 	udf	#580
   86c78:	ffffa41c 	.inst	0xffffa41c ; undefined
   86c7c:	000000a0 	udf	#160
   86c80:	200e4100 	.inst	0x200e4100 ; undefined
   86c84:	039e049d 	.inst	0x039e049d ; undefined
   86c88:	0000001c 	udf	#28
   86c8c:	0000025c 	udf	#604
   86c90:	ffffa4a4 	.inst	0xffffa4a4 ; undefined
   86c94:	000000bc 	udf	#188
   86c98:	200e4100 	.inst	0x200e4100 ; undefined
   86c9c:	039e049d 	.inst	0x039e049d ; undefined
   86ca0:	0eddde6d 	.inst	0x0eddde6d ; undefined
   86ca4:	00000000 	udf	#0
   86ca8:	00000014 	udf	#20
   86cac:	0000027c 	udf	#636
   86cb0:	ffffa540 	.inst	0xffffa540 ; undefined
   86cb4:	00000068 	udf	#104
   86cb8:	200e4100 	.inst	0x200e4100 ; undefined
   86cbc:	00000e58 	udf	#3672
   86cc0:	00000014 	udf	#20
   86cc4:	00000294 	udf	#660
   86cc8:	ffffa590 	.inst	0xffffa590 ; undefined
   86ccc:	00000014 	udf	#20
   86cd0:	100e4100 	adr	x0, a34f0 <thread_list+0x1aad0>
   86cd4:	00000e43 	udf	#3651
   86cd8:	00000014 	udf	#20
   86cdc:	000002ac 	udf	#684
   86ce0:	ffffa58c 	.inst	0xffffa58c ; undefined
   86ce4:	00000054 	udf	#84
   86ce8:	100e4100 	adr	x0, a3508 <thread_list+0x1aae8>
   86cec:	00000e53 	udf	#3667
   86cf0:	0000001c 	udf	#28
   86cf4:	000002c4 	udf	#708
   86cf8:	ffffa5c8 	.inst	0xffffa5c8 ; undefined
   86cfc:	00000308 	udf	#776
   86d00:	200e4100 	.inst	0x200e4100 ; undefined
   86d04:	039e049d 	.inst	0x039e049d ; undefined
   86d08:	dddec002 	.inst	0xdddec002 ; undefined
   86d0c:	0000000e 	udf	#14
   86d10:	0000001c 	udf	#28
   86d14:	000002e4 	udf	#740
   86d18:	ffffa8b0 	.inst	0xffffa8b0 ; undefined
   86d1c:	0000016c 	udf	#364
   86d20:	400e4100 	.inst	0x400e4100 ; undefined
   86d24:	079e089d 	.inst	0x079e089d ; undefined
   86d28:	ddde5902 	.inst	0xddde5902 ; undefined
   86d2c:	0000000e 	udf	#14
   86d30:	0000001c 	udf	#28
   86d34:	00000304 	udf	#772
   86d38:	ffffa9fc 	.inst	0xffffa9fc ; undefined
   86d3c:	000000dc 	udf	#220
   86d40:	300e4100 	adr	x0, a3561 <thread_list+0x1ab41>
   86d44:	059e069d 	mov	z29.s, p14/z, #52
   86d48:	0eddde75 	.inst	0x0eddde75 ; undefined
   86d4c:	00000000 	udf	#0
   86d50:	0000001c 	udf	#28
   86d54:	00000324 	udf	#804
   86d58:	ffffaab8 	.inst	0xffffaab8 ; undefined
   86d5c:	00000088 	udf	#136
   86d60:	300e4100 	adr	x0, a3581 <thread_list+0x1ab61>
   86d64:	059e069d 	mov	z29.s, p14/z, #52
   86d68:	0eddde60 	.inst	0x0eddde60 ; undefined
   86d6c:	00000000 	udf	#0
   86d70:	00000014 	udf	#20
   86d74:	00000344 	udf	#836
   86d78:	ffffab20 	.inst	0xffffab20 ; undefined
   86d7c:	000000f0 	udf	#240
   86d80:	200e4100 	.inst	0x200e4100 ; undefined
   86d84:	00000e7a 	udf	#3706
   86d88:	0000001c 	udf	#28
   86d8c:	0000035c 	udf	#860
   86d90:	ffffabf8 	.inst	0xffffabf8 ; undefined
   86d94:	000000e0 	udf	#224
   86d98:	300e4100 	adr	x0, a35b9 <thread_list+0x1ab99>
   86d9c:	059e069d 	mov	z29.s, p14/z, #52
   86da0:	0eddde76 	.inst	0x0eddde76 ; undefined
   86da4:	00000000 	udf	#0
   86da8:	0000001c 	udf	#28
   86dac:	0000037c 	udf	#892
   86db0:	ffffacb8 	.inst	0xffffacb8 ; undefined
   86db4:	000000fc 	udf	#252
   86db8:	500e4100 	adr	x0, a35da <thread_list+0x1abba>
   86dbc:	099e0a9d 	.inst	0x099e0a9d ; undefined
   86dc0:	0eddde7d 	.inst	0x0eddde7d ; undefined
   86dc4:	00000000 	udf	#0
   86dc8:	0000001c 	udf	#28
   86dcc:	0000039c 	udf	#924
   86dd0:	ffffad94 	.inst	0xffffad94 ; undefined
   86dd4:	00000120 	udf	#288
   86dd8:	400e4100 	.inst	0x400e4100 ; undefined
   86ddc:	079e089d 	.inst	0x079e089d ; undefined
   86de0:	ddde4602 	.inst	0xddde4602 ; undefined
   86de4:	0000000e 	udf	#14
   86de8:	00000014 	udf	#20
   86dec:	000003bc 	udf	#956
   86df0:	ffffae94 	.inst	0xffffae94 ; undefined
   86df4:	000000a4 	udf	#164
   86df8:	200e4100 	.inst	0x200e4100 ; undefined
   86dfc:	00000e67 	udf	#3687
   86e00:	0000001c 	udf	#28
   86e04:	000003d4 	udf	#980
   86e08:	ffffaf20 	.inst	0xffffaf20 ; undefined
   86e0c:	000000dc 	udf	#220
   86e10:	300e4100 	adr	x0, a3631 <thread_list+0x1ac11>
   86e14:	059e069d 	mov	z29.s, p14/z, #52
   86e18:	0eddde75 	.inst	0x0eddde75 ; undefined
   86e1c:	00000000 	udf	#0
   86e20:	0000001c 	udf	#28
   86e24:	000003f4 	udf	#1012
   86e28:	ffffafdc 	.inst	0xffffafdc ; undefined
   86e2c:	00000040 	udf	#64
   86e30:	300e4100 	adr	x0, a3651 <thread_list+0x1ac31>
   86e34:	059e069d 	mov	z29.s, p14/z, #52
   86e38:	0eddde4e 	.inst	0x0eddde4e ; undefined
   86e3c:	00000000 	udf	#0
   86e40:	0000001c 	udf	#28
   86e44:	00000414 	udf	#1044
   86e48:	ffffaffc 	.inst	0xffffaffc ; undefined
   86e4c:	0000005c 	udf	#92
   86e50:	300e4100 	adr	x0, a3671 <thread_list+0x1ac51>
   86e54:	059e069d 	mov	z29.s, p14/z, #52
   86e58:	0eddde55 	.inst	0x0eddde55 ; undefined
   86e5c:	00000000 	udf	#0
   86e60:	0000001c 	udf	#28
   86e64:	00000434 	udf	#1076
   86e68:	ffffb038 	.inst	0xffffb038 ; undefined
   86e6c:	0000026c 	udf	#620
   86e70:	500e4100 	adr	x0, a3692 <thread_list+0x1ac72>
   86e74:	099e0a9d 	.inst	0x099e0a9d ; undefined
   86e78:	ddde9902 	.inst	0xddde9902 ; undefined
   86e7c:	0000000e 	udf	#14
   86e80:	0000001c 	udf	#28
   86e84:	00000454 	udf	#1108
   86e88:	ffffb284 	.inst	0xffffb284 ; undefined
   86e8c:	000000c0 	udf	#192
   86e90:	500e4100 	adr	x0, a36b2 <thread_list+0x1ac92>
   86e94:	099e0a9d 	.inst	0x099e0a9d ; undefined
   86e98:	0eddde6e 	.inst	0x0eddde6e ; undefined
   86e9c:	00000000 	udf	#0
   86ea0:	00000014 	udf	#20
   86ea4:	00000474 	udf	#1140
   86ea8:	ffffb324 	.inst	0xffffb324 ; undefined
   86eac:	00000084 	udf	#132
   86eb0:	300e4100 	adr	x0, a36d1 <thread_list+0x1acb1>
   86eb4:	00000e5f 	udf	#3679
   86eb8:	00000014 	udf	#20
   86ebc:	0000048c 	udf	#1164
   86ec0:	ffffb390 	.inst	0xffffb390 ; undefined
   86ec4:	00000050 	udf	#80
   86ec8:	200e4100 	.inst	0x200e4100 ; undefined
   86ecc:	00000e52 	udf	#3666
   86ed0:	0000001c 	udf	#28
   86ed4:	000004a4 	udf	#1188
   86ed8:	ffffb3c8 	.inst	0xffffb3c8 ; undefined
   86edc:	000000d8 	udf	#216
   86ee0:	300e4100 	adr	x0, a3701 <thread_list+0x1ace1>
   86ee4:	059e069d 	mov	z29.s, p14/z, #52
   86ee8:	0eddde74 	.inst	0x0eddde74 ; undefined
   86eec:	00000000 	udf	#0
   86ef0:	0000001c 	udf	#28
   86ef4:	000004c4 	udf	#1220
   86ef8:	ffffb480 	.inst	0xffffb480 ; undefined
   86efc:	000002a4 	udf	#676
   86f00:	400e4100 	.inst	0x400e4100 ; undefined
   86f04:	079e089d 	.inst	0x079e089d ; undefined
   86f08:	dddea702 	.inst	0xdddea702 ; undefined
   86f0c:	0000000e 	udf	#14
   86f10:	0000001c 	udf	#28
   86f14:	000004e4 	udf	#1252
   86f18:	ffffb704 	.inst	0xffffb704 ; undefined
   86f1c:	000000cc 	udf	#204
   86f20:	a00e4100 	.inst	0xa00e4100 ; undefined
   86f24:	9e149d01 	.inst	0x9e149d01 ; undefined
   86f28:	ddde7113 	.inst	0xddde7113 ; undefined
   86f2c:	0000000e 	udf	#14
   86f30:	0000001c 	udf	#28
   86f34:	00000504 	udf	#1284
   86f38:	ffffb7b0 	.inst	0xffffb7b0 ; undefined
   86f3c:	00000038 	udf	#56
   86f40:	100e4100 	adr	x0, a3760 <thread_list+0x1ad40>
   86f44:	019e029d 	.inst	0x019e029d ; undefined
   86f48:	0eddde4c 	.inst	0x0eddde4c ; undefined
   86f4c:	00000000 	udf	#0
   86f50:	0000001c 	udf	#28
   86f54:	00000524 	udf	#1316
   86f58:	ffffb7c8 	.inst	0xffffb7c8 ; undefined
   86f5c:	000000c4 	udf	#196
   86f60:	500e4100 	adr	x0, a3782 <thread_list+0x1ad62>
   86f64:	099e0a9d 	.inst	0x099e0a9d ; undefined
   86f68:	0eddde6f 	.inst	0x0eddde6f ; undefined
   86f6c:	00000000 	udf	#0
   86f70:	0000001c 	udf	#28
   86f74:	00000544 	udf	#1348
   86f78:	ffffb86c 	.inst	0xffffb86c ; undefined
   86f7c:	00000030 	udf	#48
   86f80:	100e4100 	adr	x0, a37a0 <thread_list+0x1ad80>
   86f84:	019e029d 	.inst	0x019e029d ; undefined
   86f88:	0eddde4a 	.inst	0x0eddde4a ; undefined
   86f8c:	00000000 	udf	#0
   86f90:	0000001c 	udf	#28
   86f94:	00000564 	udf	#1380
   86f98:	ffffb87c 	.inst	0xffffb87c ; undefined
   86f9c:	00000084 	udf	#132
   86fa0:	200e4100 	.inst	0x200e4100 ; undefined
   86fa4:	039e049d 	.inst	0x039e049d ; undefined
   86fa8:	0eddde5f 	.inst	0x0eddde5f ; undefined
   86fac:	00000000 	udf	#0
   86fb0:	0000001c 	udf	#28
   86fb4:	00000584 	udf	#1412
   86fb8:	ffffb8e0 	.inst	0xffffb8e0 ; undefined
   86fbc:	00000020 	udf	#32
   86fc0:	100e4100 	adr	x0, a37e0 <thread_list+0x1adc0>
   86fc4:	019e029d 	.inst	0x019e029d ; undefined
   86fc8:	0eddde46 	.inst	0x0eddde46 ; undefined
   86fcc:	00000000 	udf	#0
   86fd0:	0000001c 	udf	#28
   86fd4:	000005a4 	udf	#1444
   86fd8:	ffffb8e0 	.inst	0xffffb8e0 ; undefined
   86fdc:	000001b4 	udf	#436
   86fe0:	100e4100 	adr	x0, a3800 <thread_list+0x1ade0>
   86fe4:	019e029d 	.inst	0x019e029d ; undefined
   86fe8:	ddde6b02 	.inst	0xddde6b02 ; undefined
   86fec:	0000000e 	udf	#14
   86ff0:	0000001c 	udf	#28
   86ff4:	000005c4 	udf	#1476
   86ff8:	ffffba74 	.inst	0xffffba74 ; undefined
   86ffc:	000000a4 	udf	#164
   87000:	300e4100 	adr	x0, a3821 <thread_list+0x1ae01>
   87004:	059e069d 	mov	z29.s, p14/z, #52
   87008:	0eddde67 	.inst	0x0eddde67 ; undefined
   8700c:	00000000 	udf	#0
   87010:	0000001c 	udf	#28
   87014:	000005e4 	udf	#1508
   87018:	ffffbaf8 	.inst	0xffffbaf8 ; undefined
   8701c:	00000094 	udf	#148
   87020:	500e4100 	adr	x0, a3842 <thread_list+0x1ae22>
   87024:	099e0a9d 	.inst	0x099e0a9d ; undefined
   87028:	0eddde63 	.inst	0x0eddde63 ; undefined
   8702c:	00000000 	udf	#0
   87030:	0000001c 	udf	#28
   87034:	00000604 	udf	#1540
   87038:	ffffbb6c 	.inst	0xffffbb6c ; undefined
   8703c:	00000058 	udf	#88
   87040:	200e4100 	.inst	0x200e4100 ; undefined
   87044:	039e049d 	.inst	0x039e049d ; undefined
   87048:	0eddde54 	.inst	0x0eddde54 ; undefined
   8704c:	00000000 	udf	#0
   87050:	0000001c 	udf	#28
   87054:	00000624 	udf	#1572
   87058:	ffffbba4 	.inst	0xffffbba4 ; undefined
   8705c:	00000064 	udf	#100
   87060:	300e4100 	adr	x0, a3881 <thread_list+0x1ae61>
   87064:	059e069d 	mov	z29.s, p14/z, #52
   87068:	0eddde57 	.inst	0x0eddde57 ; undefined
   8706c:	00000000 	udf	#0
   87070:	00000020 	udf	#32
   87074:	00000644 	udf	#1604
   87078:	ffffbbe8 	.inst	0xffffbbe8 ; undefined
   8707c:	00000044 	udf	#68
   87080:	300e4100 	adr	x0, a38a1 <thread_list+0x1ae81>
   87084:	059e069d 	mov	z29.s, p14/z, #52
   87088:	4d049342 	.inst	0x4d049342 ; undefined
   8708c:	0ed3ddde 	.inst	0x0ed3ddde ; undefined
   87090:	00000000 	udf	#0
   87094:	0000001c 	udf	#28
   87098:	00000668 	udf	#1640
   8709c:	ffffbc08 	.inst	0xffffbc08 ; undefined
   870a0:	000001e4 	udf	#484
   870a4:	b00e4100 	adrp	x0, 1c8a8000 <_end+0x19eb6870>
   870a8:	9e169d01 	.inst	0x9e169d01 ; undefined
   870ac:	de770215 	.inst	0xde770215 ; undefined
   870b0:	00000edd 	udf	#3805
   870b4:	0000001c 	udf	#28
   870b8:	00000688 	udf	#1672
   870bc:	ffffbdcc 	.inst	0xffffbdcc ; undefined
   870c0:	00000058 	udf	#88
   870c4:	200e4100 	.inst	0x200e4100 ; undefined
   870c8:	039e049d 	.inst	0x039e049d ; undefined
   870cc:	0eddde54 	.inst	0x0eddde54 ; undefined
   870d0:	00000000 	udf	#0
   870d4:	0000001c 	udf	#28
   870d8:	000006a8 	udf	#1704
   870dc:	ffffbe04 	.inst	0xffffbe04 ; undefined
   870e0:	00000024 	udf	#36
   870e4:	100e4100 	adr	x0, a3904 <thread_list+0x1aee4>
   870e8:	019e029d 	.inst	0x019e029d ; undefined
   870ec:	0eddde47 	.inst	0x0eddde47 ; undefined
   870f0:	00000000 	udf	#0
   870f4:	00000014 	udf	#20
   870f8:	000006c8 	udf	#1736
   870fc:	ffffbe08 	.inst	0xffffbe08 ; undefined
   87100:	00000024 	udf	#36
   87104:	100e4100 	adr	x0, a3924 <thread_list+0x1af04>
   87108:	00000e47 	udf	#3655
   8710c:	00000014 	udf	#20
   87110:	000006e0 	udf	#1760
   87114:	ffffbe14 	.inst	0xffffbe14 ; undefined
   87118:	0000003c 	udf	#60
   8711c:	200e4100 	.inst	0x200e4100 ; undefined
   87120:	00000e4d 	udf	#3661
   87124:	00000014 	udf	#20
   87128:	000006f8 	udf	#1784
   8712c:	ffffbe38 	.inst	0xffffbe38 ; undefined
   87130:	0000003c 	udf	#60
   87134:	200e4100 	.inst	0x200e4100 ; undefined
   87138:	00000e4d 	udf	#3661
   8713c:	00000014 	udf	#20
   87140:	00000710 	udf	#1808
   87144:	ffffbe5c 	.inst	0xffffbe5c ; undefined
   87148:	00000024 	udf	#36
   8714c:	100e4100 	adr	x0, a396c <thread_list+0x1af4c>
   87150:	00000e47 	udf	#3655
   87154:	00000010 	udf	#16
   87158:	00000728 	udf	#1832
   8715c:	ffffbe68 	.inst	0xffffbe68 ; undefined
   87160:	00000010 	udf	#16
   87164:	00000000 	udf	#0
   87168:	00000014 	udf	#20
   8716c:	0000073c 	udf	#1852
   87170:	ffffbe64 	.inst	0xffffbe64 ; undefined
   87174:	0000003c 	udf	#60
   87178:	200e4100 	.inst	0x200e4100 ; undefined
   8717c:	00000e4d 	udf	#3661
   87180:	00000014 	udf	#20
   87184:	00000754 	udf	#1876
   87188:	ffffbe88 	.inst	0xffffbe88 ; undefined
   8718c:	00000024 	udf	#36
   87190:	100e4100 	adr	x0, a39b0 <thread_list+0x1af90>
   87194:	00000e47 	udf	#3655
   87198:	0000001c 	udf	#28
   8719c:	0000076c 	udf	#1900
   871a0:	ffffbe94 	.inst	0xffffbe94 ; undefined
   871a4:	0000019c 	udf	#412
   871a8:	b00e4100 	adrp	x0, 1c8a8000 <_end+0x19eb6870>
   871ac:	9e169d01 	.inst	0x9e169d01 ; undefined
   871b0:	de650215 	.inst	0xde650215 ; undefined
   871b4:	00000edd 	udf	#3805
   871b8:	0000001c 	udf	#28
   871bc:	0000078c 	udf	#1932
   871c0:	ffffc010 	.inst	0xffffc010 ; undefined
   871c4:	00000028 	udf	#40
   871c8:	100e4100 	adr	x0, a39e8 <thread_list+0x1afc8>
   871cc:	019e029d 	.inst	0x019e029d ; undefined
   871d0:	0eddde48 	.inst	0x0eddde48 ; undefined
   871d4:	00000000 	udf	#0
   871d8:	0000001c 	udf	#28
   871dc:	000007ac 	udf	#1964
   871e0:	ffffc018 	.inst	0xffffc018 ; undefined
   871e4:	000000e8 	udf	#232
   871e8:	300e4100 	adr	x0, a3a09 <thread_list+0x1afe9>
   871ec:	059e069d 	mov	z29.s, p14/z, #52
   871f0:	0eddde78 	.inst	0x0eddde78 ; undefined
   871f4:	00000000 	udf	#0
   871f8:	00000020 	udf	#32
   871fc:	000007cc 	udf	#1996
   87200:	ffffc0e0 	.inst	0xffffc0e0 ; undefined
   87204:	00000094 	udf	#148
   87208:	400e4100 	.inst	0x400e4100 ; undefined
   8720c:	079e089d 	.inst	0x079e089d ; undefined
   87210:	61069342 	.inst	0x61069342 ; undefined
   87214:	0ed3ddde 	.inst	0x0ed3ddde ; undefined
   87218:	00000000 	udf	#0
   8721c:	00000020 	udf	#32
   87220:	000007f0 	udf	#2032
   87224:	ffffc150 	.inst	0xffffc150 ; undefined
   87228:	00000028 	udf	#40
   8722c:	100e4100 	adr	x0, a3a4c <thread_list+0x1b02c>
   87230:	019e029d 	.inst	0x019e029d ; undefined
   87234:	0eddde48 	.inst	0x0eddde48 ; undefined
	...
   87240:	0000001c 	udf	#28
   87244:	00000814 	udf	#2068
   87248:	ffffc154 	.inst	0xffffc154 ; undefined
   8724c:	00000030 	udf	#48
   87250:	200e4100 	.inst	0x200e4100 ; undefined
   87254:	039e049d 	.inst	0x039e049d ; undefined
   87258:	0eddde4a 	.inst	0x0eddde4a ; undefined
   8725c:	00000000 	udf	#0
   87260:	00000020 	udf	#32
   87264:	00000834 	udf	#2100
   87268:	ffffc164 	.inst	0xffffc164 ; undefined
   8726c:	00000070 	udf	#112
   87270:	500e4100 	adr	x0, a3a92 <thread_list+0x1b072>
   87274:	099e0a9d 	.inst	0x099e0a9d ; undefined
   87278:	58089342 	ldr	x2, 984e0 <thread_list+0xfac0>
   8727c:	0ed3ddde 	.inst	0x0ed3ddde ; undefined
   87280:	00000000 	udf	#0
   87284:	0000001c 	udf	#28
   87288:	00000858 	udf	#2136
   8728c:	ffffc1b0 	.inst	0xffffc1b0 ; undefined
   87290:	00000064 	udf	#100
   87294:	400e4100 	.inst	0x400e4100 ; undefined
   87298:	079e089d 	.inst	0x079e089d ; undefined
   8729c:	0eddde57 	.inst	0x0eddde57 ; undefined
   872a0:	00000000 	udf	#0
   872a4:	00000020 	udf	#32
   872a8:	00000878 	udf	#2168
   872ac:	ffffc1f4 	.inst	0xffffc1f4 ; undefined
   872b0:	000000d8 	udf	#216
   872b4:	500e4100 	adr	x0, a3ad6 <thread_list+0x1b0b6>
   872b8:	099e0a9d 	.inst	0x099e0a9d ; undefined
   872bc:	72089342 	ands	w2, w26, #0x1f001f00
   872c0:	0ed3ddde 	.inst	0x0ed3ddde ; undefined
   872c4:	00000000 	udf	#0
   872c8:	0000001c 	udf	#28
   872cc:	0000089c 	udf	#2204
   872d0:	ffffc2a8 	.inst	0xffffc2a8 ; undefined
   872d4:	000001f8 	udf	#504
   872d8:	500e4100 	adr	x0, a3afa <thread_list+0x1b0da>
   872dc:	099e0a9d 	.inst	0x099e0a9d ; undefined
   872e0:	ddde7c02 	.inst	0xddde7c02 ; undefined
   872e4:	0000000e 	udf	#14
   872e8:	0000001c 	udf	#28
   872ec:	000008bc 	udf	#2236
   872f0:	ffffc480 	.inst	0xffffc480 ; undefined
   872f4:	00000020 	udf	#32
   872f8:	200e4100 	.inst	0x200e4100 ; undefined
   872fc:	039e049d 	.inst	0x039e049d ; undefined
   87300:	0eddde46 	.inst	0x0eddde46 ; undefined
   87304:	00000000 	udf	#0
   87308:	0000001c 	udf	#28
   8730c:	000008dc 	udf	#2268
   87310:	ffffc480 	.inst	0xffffc480 ; undefined
   87314:	000000dc 	udf	#220
   87318:	400e4100 	.inst	0x400e4100 ; undefined
   8731c:	079e089d 	.inst	0x079e089d ; undefined
   87320:	0eddde75 	.inst	0x0eddde75 ; undefined
   87324:	00000000 	udf	#0
   87328:	0000001c 	udf	#28
   8732c:	000008fc 	udf	#2300
   87330:	ffffc53c 	.inst	0xffffc53c ; undefined
   87334:	000000ac 	udf	#172
   87338:	200e4100 	.inst	0x200e4100 ; undefined
   8733c:	039e049d 	.inst	0x039e049d ; undefined
   87340:	0eddde69 	.inst	0x0eddde69 ; undefined
   87344:	00000000 	udf	#0
   87348:	0000001c 	udf	#28
   8734c:	0000091c 	udf	#2332
   87350:	ffffc5c8 	.inst	0xffffc5c8 ; undefined
   87354:	00000050 	udf	#80
   87358:	200e4100 	.inst	0x200e4100 ; undefined
   8735c:	039e049d 	.inst	0x039e049d ; undefined
   87360:	0eddde52 	.inst	0x0eddde52 ; undefined
   87364:	00000000 	udf	#0
   87368:	0000001c 	udf	#28
   8736c:	0000093c 	udf	#2364
   87370:	ffffc5f8 	.inst	0xffffc5f8 ; undefined
   87374:	000000a8 	udf	#168
   87378:	200e4100 	.inst	0x200e4100 ; undefined
   8737c:	039e049d 	.inst	0x039e049d ; undefined
   87380:	0eddde68 	.inst	0x0eddde68 ; undefined
   87384:	00000000 	udf	#0
   87388:	0000001c 	udf	#28
   8738c:	0000095c 	udf	#2396
   87390:	ffffc680 	.inst	0xffffc680 ; undefined
   87394:	00000060 	udf	#96
   87398:	300e4100 	adr	x0, a3bb9 <thread_list+0x1b199>
   8739c:	059e069d 	mov	z29.s, p14/z, #52
   873a0:	0eddde56 	.inst	0x0eddde56 ; undefined
   873a4:	00000000 	udf	#0
   873a8:	0000001c 	udf	#28
   873ac:	0000097c 	udf	#2428
   873b0:	ffffc6c0 	.inst	0xffffc6c0 ; undefined
   873b4:	000000ac 	udf	#172
   873b8:	500e4100 	adr	x0, a3bda <thread_list+0x1b1ba>
   873bc:	099e0a9d 	.inst	0x099e0a9d ; undefined
   873c0:	0eddde69 	.inst	0x0eddde69 ; undefined
   873c4:	00000000 	udf	#0
   873c8:	0000001c 	udf	#28
   873cc:	0000099c 	udf	#2460
   873d0:	ffffc74c 	.inst	0xffffc74c ; undefined
   873d4:	000000a8 	udf	#168
   873d8:	500e4100 	adr	x0, a3bfa <thread_list+0x1b1da>
   873dc:	099e0a9d 	.inst	0x099e0a9d ; undefined
   873e0:	0eddde68 	.inst	0x0eddde68 ; undefined
   873e4:	00000000 	udf	#0
   873e8:	0000001c 	udf	#28
   873ec:	000009bc 	udf	#2492
   873f0:	ffffc7d4 	.inst	0xffffc7d4 ; undefined
   873f4:	00000144 	udf	#324
   873f8:	200e4100 	.inst	0x200e4100 ; undefined
   873fc:	039e049d 	.inst	0x039e049d ; undefined
   87400:	ddde4f02 	.inst	0xddde4f02 ; undefined
   87404:	0000000e 	udf	#14
   87408:	0000001c 	udf	#28
   8740c:	000009dc 	udf	#2524
   87410:	ffffc8f8 	.inst	0xffffc8f8 ; undefined
   87414:	000001e0 	udf	#480
   87418:	300e4100 	adr	x0, a3c39 <thread_list+0x1b219>
   8741c:	059e069d 	mov	z29.s, p14/z, #52
   87420:	ddde7602 	.inst	0xddde7602 ; undefined
   87424:	0000000e 	udf	#14
   87428:	00000014 	udf	#20
   8742c:	000009fc 	udf	#2556
   87430:	ffffcab8 	.inst	0xffffcab8 ; undefined
   87434:	00000048 	udf	#72
   87438:	100e4100 	adr	x0, a3c58 <thread_list+0x1b238>
   8743c:	00000e50 	udf	#3664
   87440:	0000001c 	udf	#28
   87444:	00000a14 	udf	#2580
   87448:	ffffcae8 	.inst	0xffffcae8 ; undefined
   8744c:	00000054 	udf	#84
   87450:	200e4100 	.inst	0x200e4100 ; undefined
   87454:	039e049d 	.inst	0x039e049d ; undefined
   87458:	0eddde53 	.inst	0x0eddde53 ; undefined
   8745c:	00000000 	udf	#0
   87460:	00000014 	udf	#20
   87464:	00000a34 	udf	#2612
   87468:	ffffcb1c 	.inst	0xffffcb1c ; undefined
   8746c:	00000014 	udf	#20
   87470:	100e4100 	adr	x0, a3c90 <thread_list+0x1b270>
   87474:	019e029d 	.inst	0x019e029d ; undefined
   87478:	0000001c 	udf	#28
   8747c:	00000a4c 	udf	#2636
   87480:	ffffcb18 	.inst	0xffffcb18 ; undefined
   87484:	00000030 	udf	#48
   87488:	100e4100 	adr	x0, a3ca8 <thread_list+0x1b288>
   8748c:	019e029d 	.inst	0x019e029d ; undefined
   87490:	0eddde4a 	.inst	0x0eddde4a ; undefined
   87494:	00000000 	udf	#0
   87498:	0000001c 	udf	#28
   8749c:	00000a6c 	udf	#2668
   874a0:	ffffcb28 	.inst	0xffffcb28 ; undefined
   874a4:	000000b8 	udf	#184
   874a8:	200e4100 	.inst	0x200e4100 ; undefined
   874ac:	039e049d 	.inst	0x039e049d ; undefined
   874b0:	0eddde6c 	.inst	0x0eddde6c ; undefined
   874b4:	00000000 	udf	#0
   874b8:	0000001c 	udf	#28
   874bc:	00000a8c 	udf	#2700
   874c0:	ffffcbc0 	.inst	0xffffcbc0 ; undefined
   874c4:	000000cc 	udf	#204
   874c8:	300e4100 	adr	x0, a3ce9 <thread_list+0x1b2c9>
   874cc:	059e069d 	mov	z29.s, p14/z, #52
   874d0:	0eddde71 	.inst	0x0eddde71 ; undefined
   874d4:	00000000 	udf	#0
   874d8:	0000001c 	udf	#28
   874dc:	00000aac 	udf	#2732
   874e0:	ffffcc6c 	.inst	0xffffcc6c ; undefined
   874e4:	00000034 	udf	#52
   874e8:	100e4100 	adr	x0, a3d08 <thread_list+0x1b2e8>
   874ec:	019e029d 	.inst	0x019e029d ; undefined
   874f0:	0eddde4b 	.inst	0x0eddde4b ; undefined
   874f4:	00000000 	udf	#0
   874f8:	0000001c 	udf	#28
   874fc:	00000acc 	udf	#2764
   87500:	ffffcc80 	.inst	0xffffcc80 ; undefined
   87504:	00000084 	udf	#132
   87508:	200e4100 	.inst	0x200e4100 ; undefined
   8750c:	039e049d 	.inst	0x039e049d ; undefined
   87510:	0eddde5f 	.inst	0x0eddde5f ; undefined
   87514:	00000000 	udf	#0
   87518:	0000001c 	udf	#28
   8751c:	00000aec 	udf	#2796
   87520:	ffffcce8 	.inst	0xffffcce8 ; undefined
   87524:	00000064 	udf	#100
   87528:	100e4100 	adr	x0, a3d48 <thread_list+0x1b328>
   8752c:	019e029d 	.inst	0x019e029d ; undefined
   87530:	0eddde57 	.inst	0x0eddde57 ; undefined
   87534:	00000000 	udf	#0
   87538:	00000014 	udf	#20
   8753c:	00000b0c 	udf	#2828
   87540:	ffffcd2c 	.inst	0xffffcd2c ; undefined
   87544:	00000050 	udf	#80
   87548:	100e4100 	adr	x0, a3d68 <thread_list+0x1b348>
   8754c:	00000e52 	udf	#3666
   87550:	00000014 	udf	#20
   87554:	00000b24 	udf	#2852
   87558:	ffffcd64 	.inst	0xffffcd64 ; undefined
   8755c:	0000004c 	udf	#76
   87560:	100e4100 	adr	x0, a3d80 <thread_list+0x1b360>
   87564:	00000e51 	udf	#3665
   87568:	00000010 	udf	#16
   8756c:	00000b3c 	udf	#2876
   87570:	ffffcd98 	.inst	0xffffcd98 ; undefined
   87574:	00000010 	udf	#16
   87578:	00000000 	udf	#0
   8757c:	00000010 	udf	#16
   87580:	00000b50 	udf	#2896
   87584:	ffffcd94 	.inst	0xffffcd94 ; undefined
   87588:	00000010 	udf	#16
   8758c:	00000000 	udf	#0
   87590:	0000001c 	udf	#28
   87594:	00000b64 	udf	#2916
   87598:	ffffcd90 	.inst	0xffffcd90 ; undefined
   8759c:	000000ec 	udf	#236
   875a0:	200e4100 	.inst	0x200e4100 ; undefined
   875a4:	039e049d 	.inst	0x039e049d ; undefined
   875a8:	0eddde79 	.inst	0x0eddde79 ; undefined
   875ac:	00000000 	udf	#0
   875b0:	0000001c 	udf	#28
   875b4:	00000b84 	udf	#2948
   875b8:	ffffce5c 	.inst	0xffffce5c ; undefined
   875bc:	00000154 	udf	#340
   875c0:	500e4100 	adr	x0, a3de2 <thread_list+0x1b3c2>
   875c4:	099e0a9d 	.inst	0x099e0a9d ; undefined
   875c8:	ddde5302 	.inst	0xddde5302 ; undefined
   875cc:	0000000e 	udf	#14
   875d0:	0000001c 	udf	#28
   875d4:	00000ba4 	udf	#2980
   875d8:	ffffcf90 	.inst	0xffffcf90 ; undefined
   875dc:	00000028 	udf	#40
   875e0:	200e4100 	.inst	0x200e4100 ; undefined
   875e4:	039e049d 	.inst	0x039e049d ; undefined
   875e8:	0eddde48 	.inst	0x0eddde48 ; undefined
   875ec:	00000000 	udf	#0
   875f0:	00000014 	udf	#20
   875f4:	00000bc4 	udf	#3012
   875f8:	ffffcf98 	.inst	0xffffcf98 ; undefined
   875fc:	00000024 	udf	#36
   87600:	100e4100 	adr	x0, a3e20 <thread_list+0x1b400>
   87604:	00000e47 	udf	#3655
   87608:	00000014 	udf	#20
   8760c:	00000bdc 	udf	#3036
   87610:	ffffcfa4 	.inst	0xffffcfa4 ; undefined
   87614:	0000001c 	udf	#28
   87618:	100e4100 	adr	x0, a3e38 <thread_list+0x1b418>
   8761c:	00000e45 	udf	#3653
   87620:	00000014 	udf	#20
   87624:	00000bf4 	udf	#3060
   87628:	ffffcfa8 	.inst	0xffffcfa8 ; undefined
   8762c:	00000018 	udf	#24
   87630:	100e4100 	adr	x0, a3e50 <thread_list+0x1b430>
   87634:	00000e44 	udf	#3652
   87638:	00000018 	udf	#24
   8763c:	00000c0c 	udf	#3084
   87640:	ffffcfb0 	.inst	0xffffcfb0 ; undefined
   87644:	00000134 	udf	#308
   87648:	100e4100 	adr	x0, a3e68 <thread_list+0x1b448>
   8764c:	4b020293 	sub	w19, w20, w2
   87650:	00000ed3 	udf	#3795
   87654:	00000014 	udf	#20
   87658:	00000c28 	udf	#3112
   8765c:	ffffd0c8 	.inst	0xffffd0c8 ; undefined
   87660:	0000003c 	udf	#60
   87664:	100e4100 	adr	x0, a3e84 <thread_list+0x1b464>
   87668:	00000e4d 	udf	#3661
   8766c:	0000001c 	udf	#28
   87670:	00000c40 	udf	#3136
   87674:	ffffd0ec 	.inst	0xffffd0ec ; undefined
   87678:	00000084 	udf	#132
   8767c:	200e4100 	.inst	0x200e4100 ; undefined
   87680:	039e049d 	.inst	0x039e049d ; undefined
   87684:	0eddde5f 	.inst	0x0eddde5f ; undefined
   87688:	00000000 	udf	#0
   8768c:	00000014 	udf	#20
   87690:	00000c60 	udf	#3168
   87694:	ffffd150 	.inst	0xffffd150 ; undefined
   87698:	00000040 	udf	#64
   8769c:	100e4100 	adr	x0, a3ebc <thread_list+0x1b49c>
   876a0:	00000e4e 	udf	#3662
   876a4:	0000001c 	udf	#28
   876a8:	00000c78 	udf	#3192
   876ac:	ffffd178 	.inst	0xffffd178 ; undefined
   876b0:	00000084 	udf	#132
   876b4:	300e4100 	adr	x0, a3ed5 <thread_list+0x1b4b5>
   876b8:	059e069d 	mov	z29.s, p14/z, #52
   876bc:	0eddde5f 	.inst	0x0eddde5f ; undefined
   876c0:	00000000 	udf	#0
   876c4:	0000001c 	udf	#28
   876c8:	00000c98 	udf	#3224
   876cc:	ffffd1dc 	.inst	0xffffd1dc ; undefined
   876d0:	000000d0 	udf	#208
   876d4:	b00e4100 	adrp	x0, 1c8a8000 <_end+0x19eb6870>
   876d8:	9e369d03 	.inst	0x9e369d03 ; undefined
   876dc:	ddde7235 	.inst	0xddde7235 ; undefined
   876e0:	0000000e 	udf	#14
   876e4:	0000001c 	udf	#28
   876e8:	00000cb8 	udf	#3256
   876ec:	ffffd28c 	.inst	0xffffd28c ; undefined
   876f0:	000000b4 	udf	#180
   876f4:	100e4100 	adr	x0, a3f14 <thread_list+0x1b4f4>
   876f8:	019e029d 	.inst	0x019e029d ; undefined
   876fc:	0eddde6b 	.inst	0x0eddde6b ; undefined
   87700:	00000000 	udf	#0
   87704:	00000020 	udf	#32
   87708:	00000cd8 	udf	#3288
   8770c:	ffffd320 	.inst	0xffffd320 ; undefined
   87710:	000000c8 	udf	#200
   87714:	200e4100 	.inst	0x200e4100 ; undefined
   87718:	039e049d 	.inst	0x039e049d ; undefined
   8771c:	6e029342 	.inst	0x6e029342 ; undefined
   87720:	0ed3ddde 	.inst	0x0ed3ddde ; undefined
   87724:	00000000 	udf	#0
   87728:	0000001c 	udf	#28
   8772c:	00000cfc 	udf	#3324
   87730:	ffffd3c4 	.inst	0xffffd3c4 ; undefined
   87734:	00000098 	udf	#152
   87738:	200e4100 	.inst	0x200e4100 ; undefined
   8773c:	039e049d 	.inst	0x039e049d ; undefined
   87740:	0eddde64 	.inst	0x0eddde64 ; undefined
   87744:	00000000 	udf	#0
   87748:	0000001c 	udf	#28
   8774c:	00000d1c 	udf	#3356
   87750:	ffffd43c 	.inst	0xffffd43c ; undefined
   87754:	0000008c 	udf	#140
   87758:	200e4100 	.inst	0x200e4100 ; undefined
   8775c:	039e049d 	.inst	0x039e049d ; undefined
   87760:	0eddde61 	.inst	0x0eddde61 ; undefined
   87764:	00000000 	udf	#0
   87768:	00000010 	udf	#16
   8776c:	00000d3c 	udf	#3388
   87770:	ffffd4a8 	.inst	0xffffd4a8 ; undefined
   87774:	00000024 	udf	#36
   87778:	00000000 	udf	#0
   8777c:	00000010 	udf	#16
   87780:	00000d50 	udf	#3408
   87784:	ffffd4b8 	.inst	0xffffd4b8 ; undefined
   87788:	00000024 	udf	#36
   8778c:	00000000 	udf	#0
   87790:	00000010 	udf	#16
   87794:	00000d64 	udf	#3428
   87798:	ffffd4c8 	.inst	0xffffd4c8 ; undefined
   8779c:	00000024 	udf	#36
   877a0:	00000000 	udf	#0
   877a4:	00000010 	udf	#16
   877a8:	00000d78 	udf	#3448
   877ac:	ffffd4d8 	.inst	0xffffd4d8 ; undefined
   877b0:	00000024 	udf	#36
   877b4:	00000000 	udf	#0
   877b8:	00000018 	udf	#24
   877bc:	00000d8c 	udf	#3468
   877c0:	ffffd4e8 	.inst	0xffffd4e8 ; undefined
   877c4:	000005e4 	udf	#1508
   877c8:	600e4100 	.inst	0x600e4100 ; undefined
   877cc:	77030c93 	.inst	0x77030c93 ; undefined
   877d0:	000ed301 	.inst	0x000ed301 ; undefined
   877d4:	0000001c 	udf	#28
   877d8:	00000da8 	udf	#3496
   877dc:	ffffdab0 	.inst	0xffffdab0 ; undefined
   877e0:	00000088 	udf	#136
   877e4:	a00e4100 	.inst	0xa00e4100 ; undefined
   877e8:	9e149d01 	.inst	0x9e149d01 ; undefined
   877ec:	ddde6013 	.inst	0xddde6013 ; undefined
   877f0:	0000000e 	udf	#14
   877f4:	00000014 	udf	#20
   877f8:	00000dc8 	udf	#3528
   877fc:	ffffdb18 	.inst	0xffffdb18 ; undefined
   87800:	00000040 	udf	#64
   87804:	200e4100 	.inst	0x200e4100 ; undefined
   87808:	00000e4e 	udf	#3662
   8780c:	00000014 	udf	#20
   87810:	00000de0 	udf	#3552
   87814:	ffffdb40 	.inst	0xffffdb40 ; undefined
   87818:	00000084 	udf	#132
   8781c:	300e4100 	adr	x0, a403d <thread_list+0x1b61d>
   87820:	00000e5f 	udf	#3679
   87824:	00000014 	udf	#20
   87828:	00000df8 	udf	#3576
   8782c:	ffffdbac 	.inst	0xffffdbac ; undefined
   87830:	00000228 	udf	#552
   87834:	300e4100 	adr	x0, a4055 <thread_list+0x1b635>
   87838:	000e8802 	.inst	0x000e8802 ; undefined
   8783c:	00000014 	udf	#20
   87840:	00000e10 	udf	#3600
   87844:	ffffddbc 	.inst	0xffffddbc ; undefined
   87848:	00000064 	udf	#100
   8784c:	300e4100 	adr	x0, a406d <thread_list+0x1b64d>
   87850:	00000e57 	udf	#3671
   87854:	0000001c 	udf	#28
   87858:	00000e28 	udf	#3624
   8785c:	ffffde08 	.inst	0xffffde08 ; undefined
   87860:	00000034 	udf	#52
   87864:	200e4100 	.inst	0x200e4100 ; undefined
   87868:	039e049d 	.inst	0x039e049d ; undefined
   8786c:	0eddde4b 	.inst	0x0eddde4b ; undefined
   87870:	00000000 	udf	#0
   87874:	00000014 	udf	#20
   87878:	00000e48 	udf	#3656
   8787c:	ffffde1c 	.inst	0xffffde1c ; undefined
   87880:	00000068 	udf	#104
   87884:	200e4100 	.inst	0x200e4100 ; undefined
   87888:	00000e58 	udf	#3672
   8788c:	00000014 	udf	#20
   87890:	00000e60 	udf	#3680
   87894:	ffffde6c 	.inst	0xffffde6c ; undefined
   87898:	00000098 	udf	#152
   8789c:	200e4100 	.inst	0x200e4100 ; undefined
   878a0:	00000e64 	udf	#3684

Disassembly of section .debug_info:

0000000000000000 <.debug_info>:
       0:	00000240 	udf	#576
       4:	08010005 	stxrb	w1, w5, [x0]
       8:	00000000 	udf	#0
       c:	0001220a 	.inst	0x0001220a ; undefined
      10:	00271d00 	.inst	0x00271d00 ; NYI
      14:	00000000 	udf	#0
      18:	00680000 	.inst	0x00680000 ; undefined
      1c:	00000008 	udf	#8
      20:	02cc0000 	.inst	0x02cc0000 ; undefined
	...
      2c:	170b0000 	b	fffffffffc2c002c <_end+0xfffffffff98ce89c>
      30:	6e000000 	ext	v0.16b, v0.16b, v0.16b, #0
      34:	d6080f02 	.inst	0xd6080f02 ; undefined
      38:	01000000 	.inst	0x01000000 ; undefined
      3c:	00000028 	udf	#40
      40:	0000d610 	udf	#54800
      44:	c0010000 	mov	za0h.b[w12, 0], p0/m, z0.b
      48:	11000000 	add	w0, w0, #0x0
      4c:	000000f9 	udf	#249
      50:	00dd0106 	.inst	0x00dd0106 ; undefined
      54:	f9120000 	str	x0, [x0, #9216]
      58:	0e000000 	tbl	v0.8b, {v0.16b}, v0.8b
      5c:	00000801 	udf	#2049
      60:	00f91300 	.inst	0x00f91300 ; undefined
      64:	01160000 	.inst	0x01160000 ; undefined
      68:	000000f8 	udf	#248
      6c:	0000f914 	udf	#63764
      70:	fe011e00 	.inst	0xfe011e00 ; undefined
      74:	15000000 	b	4000074 <_end+0x160e8e4>
      78:	000000f9 	udf	#249
      7c:	00000126 	udf	#294
      80:	f9160000 	str	x0, [x0, #11264]
      84:	2e000000 	ext	v0.8b, v0.8b, v0.8b, #0
      88:	00005e01 	udf	#24065
      8c:	00f91700 	.inst	0x00f91700 ; undefined
      90:	01360000 	.inst	0x01360000 ; undefined
      94:	00000092 	udf	#146
      98:	0000f918 	udf	#63768
      9c:	3c013e00 	str	b0, [x16, #19]!
      a0:	19000000 	stlurb	w0, [x0]
      a4:	000000f9 	udf	#249
      a8:	00300146 	.inst	0x00300146 ; NYI
      ac:	f91a0000 	str	x0, [x0, #13312]
      b0:	4e000000 	tbl	v0.16b, {v0.16b}, v0.16b
      b4:	0000e401 	udf	#58369
      b8:	00f91b00 	.inst	0x00f91b00 ; undefined
      bc:	01560000 	.inst	0x01560000 ; undefined
      c0:	000000b5 	udf	#181
      c4:	0000f91c 	udf	#63772
      c8:	1a015e00 	.inst	0x1a015e00 ; undefined
      cc:	1d000001 	.inst	0x1d000001 ; undefined
      d0:	000000f9 	udf	#249
      d4:	ed060066 	.inst	0xed060066 ; undefined
      d8:	e6000000 	.inst	0xe6000000 ; undefined
      dc:	07000000 	.inst	0x07000000 ; undefined
      e0:	000000e6 	udf	#230
      e4:	08040005 	stxrb	w4, w5, [x0]
      e8:	00004c07 	udf	#19463
      ec:	08010400 	stxrb	w1, w0, [x0]
      f0:	00000522 	udf	#1314
      f4:	0000ed0c 	udf	#60684
      f8:	00ed0600 	.inst	0x00ed0600 ; undefined
      fc:	01090000 	.inst	0x01090000 ; undefined
     100:	e6070000 	.inst	0xe6070000 ; undefined
     104:	07000000 	.inst	0x07000000 ; undefined
     108:	00ad0d00 	.inst	0x00ad0d00 ; undefined
     10c:	0b030000 	add	w0, w0, w3
     110:	00012905 	.inst	0x00012905 ; undefined
     114:	00012900 	.inst	0x00012900 ; undefined
     118:	01300500 	.inst	0x01300500 ; undefined
     11c:	30050000 	adr	x0, a11d <_start-0x75ee3>
     120:	05000001 	orr	z1.s, z1.s, #0x1
     124:	00000135 	udf	#309
     128:	05040e00 	.inst	0x05040e00 ; undefined
     12c:	00746e69 	.inst	0x00746e69 ; undefined
     130:	0000f402 	udf	#62466
     134:	07080400 	.inst	0x07080400 ; undefined
     138:	00000047 	udf	#71
     13c:	0000c60f 	udf	#50703
     140:	05180100 	mov	z0.b, p8/z, #8
     144:	00000129 	udf	#297
     148:	000801c4 	.inst	0x000801c4 ; undefined
     14c:	00000000 	udf	#0
     150:	00000170 	udf	#368
     154:	00000000 	udf	#0
     158:	01bf9c01 	.inst	0x01bf9c01 ; undefined
     15c:	06030000 	.inst	0x06030000 ; undefined
     160:	18000001 	ldr	w1, 160 <_start-0x7fea0>
     164:	0001bf35 	.inst	0x0001bf35 ; undefined
     168:	68910200 	stgp	x0, x0, [x16], #544
     16c:	00000e03 	udf	#3587
     170:	c4231900 	prfb	pldl1keep, p6, [x8, z3.d, uxtw]
     174:	02000001 	.inst	0x02000001 ; undefined
     178:	60036091 	.inst	0x60036091 ; undefined
     17c:	19000000 	stlurb	w0, [x0]
     180:	0001ce3b 	.inst	0x0001ce3b ; undefined
     184:	58910200 	ldr	x0, fffffffffff221c4 <_end+0xfffffffffd530a34>
     188:	0009e103 	.inst	0x0009e103 ; undefined
     18c:	c44c1900 	ld1sb	{z0.d}, p6/z, [x8, z12.d, sxtw]
     190:	02000001 	.inst	0x02000001 ; undefined
     194:	7e035091 	.inst	0x7e035091 ; undefined
     198:	1a000000 	adc	w0, w0, w0
     19c:	0001da36 	.inst	0x0001da36 ; undefined
     1a0:	48910200 	stllrh	w0, [x16]
     1a4:	00009d08 	udf	#40200
     1a8:	01d32b00 	.inst	0x01d32b00 ; undefined
     1ac:	91020000 	add	x0, x0, #0x80
     1b0:	0069087c 	.inst	0x0069087c ; undefined
     1b4:	d32d0000 	.inst	0xd32d0000 ; undefined
     1b8:	02000001 	.inst	0x02000001 ; undefined
     1bc:	02007891 	.inst	0x02007891 ; undefined
     1c0:	0000002e 	udf	#46
     1c4:	0001c902 	.inst	0x0001c902 ; undefined
     1c8:	00ed0200 	.inst	0x00ed0200 ; undefined
     1cc:	d3020000 	.inst	0xd3020000 ; undefined
     1d0:	04000001 	add	z1.b, p0/m, z1.b, z0.b
     1d4:	00510704 	.inst	0x00510704 ; undefined
     1d8:	bf020000 	.inst	0xbf020000 ; undefined
     1dc:	10000001 	adr	x1, 1dc <_start-0x7fe24>
     1e0:	00000070 	udf	#112
     1e4:	d3150501 	.inst	0xd3150501 ; undefined
     1e8:	68000001 	.inst	0x68000001 ; undefined
     1ec:	00000800 	udf	#2048
     1f0:	5c000000 	ldr	d0, 1f0 <_start-0x7fe10>
     1f4:	00000001 	udf	#1
     1f8:	01000000 	.inst	0x01000000 ; undefined
     1fc:	0073119c 	.inst	0x0073119c ; undefined
     200:	c9290501 	.inst	0xc9290501 ; undefined
     204:	02000001 	.inst	0x02000001 ; undefined
     208:	f0036891 	adrp	x17, 6d13000 <_end+0x4321870>
     20c:	05000000 	orr	z0.s, z0.s, #0x1
     210:	0001d339 	.inst	0x0001d339 ; undefined
     214:	64910200 	fcmla	z0.s, p0/m, z16.s, z17.s, #0
     218:	06007209 	.inst	0x06007209 ; undefined
     21c:	0001d312 	.inst	0x0001d312 ; undefined
     220:	7c910200 	.inst	0x7c910200 ; undefined
     224:	08007812 	stxrb	w0, w18, [x0]
     228:	00000000 	udf	#0
     22c:	00014000 	.inst	0x00014000 ; undefined
     230:	00000000 	udf	#0
     234:	00690900 	.inst	0x00690900 ; undefined
     238:	01d31708 	.inst	0x01d31708 ; undefined
     23c:	91020000 	add	x0, x0, #0x80
     240:	00000078 	udf	#120
     244:	000004a4 	udf	#1188
     248:	08010005 	stxrb	w1, w5, [x0]
     24c:	00000116 	udf	#278
     250:	0001220e 	.inst	0x0001220e ; undefined
     254:	00481d00 	.inst	0x00481d00 ; undefined
     258:	00000000 	udf	#0
     25c:	03340000 	.inst	0x03340000 ; undefined
     260:	00000008 	udf	#8
     264:	06c40000 	.inst	0x06c40000 ; undefined
     268:	00000000 	udf	#0
     26c:	01710000 	.inst	0x01710000 ; undefined
     270:	1c0f0000 	ldr	s0, 1e270 <_start-0x61d90>
     274:	04000003 	add	z3.b, p0/m, z3.b, z0.b
     278:	003a100f 	.inst	0x003a100f ; NYI
     27c:	3f060000 	.inst	0x3f060000 ; undefined
     280:	10000000 	adr	x0, 280 <_start-0x7fd80>
     284:	00000059 	udf	#89
     288:	00005904 	udf	#22788
     28c:	00600400 	.inst	0x00600400 ; undefined
     290:	71040000 	subs	w0, w0, #0x100
     294:	04000000 	add	z0.b, p0/m, z0.b, z0.b
     298:	00000059 	udf	#89
     29c:	07040700 	.inst	0x07040700 ; undefined
     2a0:	00000051 	udf	#81
     2a4:	00006506 	udf	#25862
     2a8:	08010700 	stxrb	w1, w0, [x24]
     2ac:	00000522 	udf	#1314
     2b0:	00006511 	udf	#25873
     2b4:	07081200 	.inst	0x07081200 ; undefined
     2b8:	004c0708 	.inst	0x004c0708 ; undefined
     2bc:	04130000 	umulh	z0.b, p0/m, z0.b, z0.b
     2c0:	746e6905 	.inst	0x746e6905 ; undefined
     2c4:	02d00b00 	.inst	0x02d00b00 ; undefined
     2c8:	71090000 	subs	w0, w0, #0x240
     2cc:	0b000000 	add	w0, w0, w0
     2d0:	00000377 	udf	#887
     2d4:	0000710a 	udf	#28938
     2d8:	02c81400 	.inst	0x02c81400 ; undefined
     2dc:	0b010000 	add	w0, w0, w1
     2e0:	00006007 	udf	#24583
     2e4:	50030900 	adr	x0, 6406 <_start-0x79bfa>
     2e8:	00000888 	udf	#2184
     2ec:	0c000000 	st4	{v0.8b-v3.8b}, [x0]
     2f0:	0000027a 	udf	#634
     2f4:	01250e28 	.inst	0x01250e28 ; undefined
     2f8:	2a010000 	orr	w0, w0, w1
     2fc:	0f000000 	.inst	0x0f000000 ; undefined
     300:	00000059 	udf	#89
     304:	02070100 	.inst	0x02070100 ; undefined
     308:	59100000 	stlurh	w0, [x0, #-256]
     30c:	04000000 	add	z0.b, p0/m, z0.b, z0.b
     310:	0001e201 	.inst	0x0001e201 ; undefined
     314:	00591100 	.inst	0x00591100 ; undefined
     318:	01080000 	.inst	0x01080000 ; undefined
     31c:	00000329 	udf	#809
     320:	00005912 	udf	#22802
     324:	12010c00 	and	w0, w0, #0x80000007
     328:	13000002 	sbfx	w2, w0, #0, #1
     32c:	00000059 	udf	#89
     330:	035a0110 	.inst	0x035a0110 ; undefined
     334:	59140000 	stlurh	w0, [x0, #-192]
     338:	14000000 	b	338 <_start-0x7fcc8>
     33c:	00035001 	.inst	0x00035001 ; undefined
     340:	00591500 	.inst	0x00591500 ; undefined
     344:	01180000 	.inst	0x01180000 ; undefined
     348:	00000388 	udf	#904
     34c:	00005916 	udf	#22806
     350:	0c011c00 	.inst	0x0c011c00 ; undefined
     354:	17000003 	b	fffffffffc000360 <_end+0xfffffffff960ebd0>
     358:	00000059 	udf	#89
     35c:	02330120 	.inst	0x02330120 ; undefined
     360:	59180000 	stlurh	w0, [x0, #-128]
     364:	24000000 	cmphs	p0.b, p0/z, z0.b, z0.b
     368:	02210c00 	.inst	0x02210c00 ; undefined
     36c:	1c100000 	ldr	s0, 2036c <_start-0x5fc94>
     370:	00000147 	udf	#327
     374:	00024201 	.inst	0x00024201 ; undefined
     378:	01471d00 	.inst	0x01471d00 ; undefined
     37c:	01000000 	.inst	0x01000000 ; undefined
     380:	00000db5 	udf	#3509
     384:	0001471e 	.inst	0x0001471e ; undefined
     388:	07000800 	.inst	0x07000800 ; undefined
     38c:	00470708 	.inst	0x00470708 ; undefined
     390:	d3150000 	.inst	0xd3150000 ; undefined
     394:	05000001 	orr	z1.s, z1.s, #0x1
     398:	0165063c 	.inst	0x0165063c ; undefined
     39c:	47040000 	.inst	0x47040000 ; undefined
     3a0:	04000001 	add	z1.b, p0/m, z1.b, z0.b
     3a4:	00000147 	udf	#327
     3a8:	0c6c0900 	.inst	0x0c6c0900 ; undefined
     3ac:	0a020000 	and	w0, w0, w2
     3b0:	00007a05 	udf	#31237
     3b4:	00018000 	.inst	0x00018000 ; undefined
     3b8:	01800400 	.inst	0x01800400 ; undefined
     3bc:	80040000 	.inst	0x80040000 ; undefined
     3c0:	00000001 	udf	#1
     3c4:	00006c06 	udf	#27654
     3c8:	03700900 	.inst	0x03700900 ; undefined
     3cc:	09020000 	.inst	0x09020000 ; undefined
     3d0:	00014714 	.inst	0x00014714 ; undefined
     3d4:	00019b00 	.inst	0x00019b00 ; undefined
     3d8:	01800400 	.inst	0x01800400 ; undefined
     3dc:	09000000 	.inst	0x09000000 ; undefined
     3e0:	000001bf 	udf	#447
     3e4:	7a050803 	.inst	0x7a050803 ; undefined
     3e8:	b2000000 	orr	x0, x0, #0x100000001
     3ec:	04000001 	add	z1.b, p0/m, z1.b, z0.b
     3f0:	00000060 	udf	#96
     3f4:	38170016 	sturb	w22, [x0, #-144]
     3f8:	01000003 	.inst	0x01000003 ; undefined
     3fc:	08d80694 	ldlarb	w20, [x20]
     400:	00000008 	udf	#8
     404:	01200000 	.inst	0x01200000 ; undefined
     408:	00000000 	udf	#0
     40c:	9c010000 	ldr	q0, 240c <_start-0x7dbf4>
     410:	00000229 	udf	#553
     414:	72747005 	.inst	0x72747005 ; undefined
     418:	29189500 	stp	w0, w5, [x8, #196]
     41c:	02000002 	.inst	0x02000002 ; undefined
     420:	85037091 	ldff1w	{z17.s}, p4/z, [x4, z3.s, uxtw]
     424:	9d000002 	.inst	0x9d000002 ; undefined
     428:	0000600b 	udf	#24587
     42c:	68910200 	stgp	x0, x0, [x16], #544
     430:	00029703 	.inst	0x00029703 ; undefined
     434:	2e1f9e00 	.inst	0x2e1f9e00 ; undefined
     438:	02000002 	.inst	0x02000002 ; undefined
     43c:	4c087891 	.inst	0x4c087891 ; undefined
     440:	00000809 	udf	#2057
     444:	44000000 	.inst	0x44000000 ; undefined
     448:	00000000 	udf	#0
     44c:	03000000 	.inst	0x03000000 ; undefined
     450:	00000d92 	udf	#3474
     454:	01471ca2 	.inst	0x01471ca2 ; undefined
     458:	91020000 	add	x0, x0, #0x80
     45c:	6e650560 	uhadd	v0.8h, v11.8h, v5.8h
     460:	1ca30064 	ldr	s4, fffffffffff4646c <_end+0xfffffffffd554cdc>
     464:	00000147 	udf	#327
     468:	00589102 	.inst	0x00589102 ; undefined
     46c:	00ab0600 	.inst	0x00ab0600 ; undefined
     470:	25060000 	cmpge	p0.b, p0/z, z0.b, #6
     474:	0a000001 	and	w1, w0, w0
     478:	000001a8 	udf	#424
     47c:	08082c88 	stxrb	w8, w8, [x4]
     480:	00000000 	udf	#0
     484:	0000ac00 	udf	#44032
     488:	00000000 	udf	#0
     48c:	889c0100 	stllr	w0, [x8]
     490:	02000002 	.inst	0x02000002 ; undefined
     494:	000002e3 	udf	#739
     498:	00592688 	.inst	0x00592688 ; undefined
     49c:	91020000 	add	x0, x0, #0x80
     4a0:	0012027c 	.inst	0x0012027c ; undefined
     4a4:	37880000 	tbnz	w0, #17, 4a4 <_start-0x7fb5c>
     4a8:	00000060 	udf	#96
     4ac:	02709102 	.inst	0x02709102 ; undefined
     4b0:	000001cd 	udf	#461
     4b4:	00714388 	.inst	0x00714388 ; undefined
     4b8:	91020000 	add	x0, x0, #0x80
     4bc:	03020268 	.inst	0x03020268 ; undefined
     4c0:	53880000 	.inst	0x53880000 ; undefined
     4c4:	00000059 	udf	#89
     4c8:	00789102 	.inst	0x00789102 ; undefined
     4cc:	0001f00a 	.inst	0x0001f00a ; undefined
     4d0:	06d07200 	.inst	0x06d07200 ; undefined
     4d4:	00000008 	udf	#8
     4d8:	015c0000 	.inst	0x015c0000 ; undefined
     4dc:	00000000 	udf	#0
     4e0:	9c010000 	ldr	q0, 24e0 <_start-0x7db20>
     4e4:	00000354 	udf	#852
     4e8:	0002e302 	.inst	0x0002e302 ; undefined
     4ec:	59267200 	.inst	0x59267200 ; undefined
     4f0:	02000000 	.inst	0x02000000 ; undefined
     4f4:	12026c91 	and	w17, w4, #0xc3ffffff
     4f8:	72000000 	ands	w0, w0, #0x1
     4fc:	00006037 	udf	#24631
     500:	60910200 	.inst	0x60910200 ; undefined
     504:	0001cd02 	.inst	0x0001cd02 ; undefined
     508:	71437200 	subs	w0, w16, #0xdc, lsl #12
     50c:	02000000 	.inst	0x02000000 ; undefined
     510:	02025891 	.inst	0x02025891 ; undefined
     514:	72000003 	ands	w3, w0, #0x1
     518:	00005953 	udf	#22867
     51c:	68910200 	stgp	x0, x0, [x16], #544
     520:	0008d903 	.inst	0x0008d903 ; undefined
     524:	7a107300 	.inst	0x7a107300 ; undefined
     528:	09000000 	.inst	0x09000000 ; undefined
     52c:	08885803 	stllrb	w3, [x0]
     530:	00000000 	udf	#0
     534:	06f40d00 	.inst	0x06f40d00 ; undefined
     538:	00000008 	udf	#8
     53c:	00380000 	.inst	0x00380000 ; NYI
     540:	00000000 	udf	#0
     544:	03130000 	.inst	0x03130000 ; undefined
     548:	69050000 	stgp	x0, x0, [x0, #160]
     54c:	7a127500 	.inst	0x7a127500 ; undefined
     550:	02000000 	.inst	0x02000000 ; undefined
     554:	0d007c91 	.inst	0x0d007c91 ; undefined
     558:	00080784 	.inst	0x00080784 ; undefined
     55c:	00000000 	udf	#0
     560:	00000038 	udf	#56
     564:	00000000 	udf	#0
     568:	00000335 	udf	#821
     56c:	7c006905 	.inst	0x7c006905 ; undefined
     570:	00007a12 	udf	#31250
     574:	78910200 	ldursh	x0, [x16, #-240]
     578:	07d80800 	.inst	0x07d80800 ; undefined
     57c:	00000008 	udf	#8
     580:	00380000 	.inst	0x00380000 ; NYI
     584:	00000000 	udf	#0
     588:	69050000 	stgp	x0, x0, [x0, #160]
     58c:	7a128100 	.inst	0x7a128100 ; undefined
     590:	02000000 	.inst	0x02000000 ; undefined
     594:	00007491 	udf	#29841
     598:	0002ed0a 	.inst	0x0002ed0a ; undefined
     59c:	04602c00 	.inst	0x04602c00 ; undefined
     5a0:	00000008 	udf	#8
     5a4:	02700000 	.inst	0x02700000 ; undefined
     5a8:	00000000 	udf	#0
     5ac:	9c010000 	ldr	q0, 25ac <_start-0x7da54>
     5b0:	00000431 	udf	#1073
     5b4:	0002c802 	.inst	0x0002c802 ; undefined
     5b8:	71212c00 	subs	w0, w0, #0x84b
     5bc:	03000000 	.inst	0x03000000 ; undefined
     5c0:	027fb891 	.inst	0x027fb891 ; undefined
     5c4:	00000320 	udf	#800
     5c8:	002e372c 	.inst	0x002e372c ; NYI
     5cc:	91030000 	add	x0, x0, #0xc0
     5d0:	21037fb0 	.inst	0x21037fb0 ; undefined
     5d4:	2d000000 	stp	s0, s0, [x0]
     5d8:	00022918 	.inst	0x00022918 ; undefined
     5dc:	70910200 	adr	x0, fffffffffff2261f <_end+0xfffffffffd530e8f>
     5e0:	00024a03 	.inst	0x00024a03 ; undefined
     5e4:	590e3400 	.inst	0x590e3400 ; undefined
     5e8:	02000000 	.inst	0x02000000 ; undefined
     5ec:	62036c91 	.inst	0x62036c91 ; undefined
     5f0:	36000003 	tbz	w3, #0, 5f0 <_start-0x7fa10>
     5f4:	0000600b 	udf	#24587
     5f8:	60910200 	.inst	0x60910200 ; undefined
     5fc:	0002a003 	.inst	0x0002a003 ; undefined
     600:	600b3700 	.inst	0x600b3700 ; undefined
     604:	02000000 	.inst	0x02000000 ; undefined
     608:	65055891 	.inst	0x65055891 ; undefined
     60c:	3800646e 	strb	w14, [x3], #6
     610:	0000600b 	udf	#24587
     614:	50910200 	adr	x0, fffffffffff22656 <_end+0xfffffffffd530ec6>
     618:	00011203 	.inst	0x00011203 ; undefined
     61c:	600b3900 	.inst	0x600b3900 ; undefined
     620:	02000000 	.inst	0x02000000 ; undefined
     624:	0c087891 	.inst	0x0c087891 ; undefined
     628:	00000805 	udf	#2053
     62c:	ac000000 	stnp	q0, q0, [x0]
     630:	00000001 	udf	#1
     634:	03000000 	.inst	0x03000000 ; undefined
     638:	00000256 	udf	#598
     63c:	00591240 	.inst	0x00591240 ; undefined
     640:	91020000 	add	x0, x0, #0x80
     644:	05b8084c 	uzp1	z12.q, z2.q, z24.q
     648:	00000008 	udf	#8
     64c:	009c0000 	.inst	0x009c0000 ; undefined
     650:	00000000 	udf	#0
     654:	6c050000 	stnp	d0, d0, [x0, #80]
     658:	53006e65 	ubfx	w5, w19, #0, #28
     65c:	00005916 	udf	#22806
     660:	48910200 	stllrh	w0, [x16]
     664:	00001203 	udf	#4611
     668:	60135500 	.inst	0x60135500 ; undefined
     66c:	02000000 	.inst	0x02000000 ; undefined
     670:	00004091 	udf	#16529
     674:	02611800 	.inst	0x02611800 ; undefined
     678:	26010000 	.inst	0x26010000 ; undefined
     67c:	0001470a 	.inst	0x0001470a ; undefined
     680:	08039400 	stlxrb	w3, w0, [x0]
     684:	00000000 	udf	#0
     688:	0000cc00 	udf	#52224
     68c:	00000000 	udf	#0
     690:	6e9c0100 	.inst	0x6e9c0100 ; undefined
     694:	02000004 	.inst	0x02000004 ; undefined
     698:	000009e1 	udf	#2529
     69c:	01472c26 	.inst	0x01472c26 ; undefined
     6a0:	91020000 	add	x0, x0, #0x80
     6a4:	00720568 	.inst	0x00720568 ; undefined
     6a8:	00600b27 	.inst	0x00600b27 ; undefined
     6ac:	91020000 	add	x0, x0, #0x80
     6b0:	af190078 	.inst	0xaf190078 ; undefined
     6b4:	01000002 	.inst	0x01000002 ; undefined
     6b8:	00590a21 	.inst	0x00590a21 ; undefined
     6bc:	03340000 	.inst	0x03340000 ; undefined
     6c0:	00000008 	udf	#8
     6c4:	00600000 	.inst	0x00600000 ; undefined
     6c8:	00000000 	udf	#0
     6cc:	9c010000 	ldr	q0, 26cc <_start-0x7d934>
     6d0:	0009e102 	.inst	0x0009e102 ; undefined
     6d4:	592c2100 	.inst	0x592c2100 ; undefined
     6d8:	02000000 	.inst	0x02000000 ; undefined
     6dc:	72056c91 	ands	w17, w4, #0xf87fffff
     6e0:	600b2200 	.inst	0x600b2200 ; undefined
     6e4:	02000000 	.inst	0x02000000 ; undefined
     6e8:	00007891 	udf	#30865
     6ec:	000008b4 	udf	#2228
     6f0:	08010005 	stxrb	w1, w5, [x0]
     6f4:	000002ae 	udf	#686
     6f8:	00012218 	.inst	0x00012218 ; undefined
     6fc:	00691d00 	.inst	0x00691d00 ; undefined
     700:	00000000 	udf	#0
     704:	09f80000 	.inst	0x09f80000 ; undefined
     708:	00000008 	udf	#8
     70c:	069c0000 	.inst	0x069c0000 ; undefined
     710:	00000000 	udf	#0
     714:	04060000 	.inst	0x04060000 ; undefined
     718:	0e120000 	tbl	v0.8b, {v0.16b}, v18.8b
     71c:	20000006 	.inst	0x20000006 ; undefined
     720:	006f1202 	.inst	0x006f1202 ; undefined
     724:	17030000 	b	fffffffffc0c0724 <_end+0xfffffffff96cef94>
     728:	02000006 	.inst	0x02000006 ; undefined
     72c:	006f1613 	.inst	0x006f1613 ; undefined
     730:	03000000 	.inst	0x03000000 ; undefined
     734:	0000063a 	udf	#1594
     738:	6f161402 	usra	v2.8h, v0.8h, #10
     73c:	08000000 	stxrb	w0, w0, [x0]
     740:	0003a003 	.inst	0x0003a003 ; undefined
     744:	18150200 	ldr	w0, 2a784 <_start-0x5587c>
     748:	00000074 	udf	#116
     74c:	05780310 	ext	z16.b, {z24.b, z25.b}, #192
     750:	16020000 	b	fffffffff8080750 <_end+0xfffffffff568efc0>
     754:	00007b0b 	udf	#31499
     758:	04001800 	add	z0.b, p6/m, z0.b, z0.b
     75c:	0000002e 	udf	#46
     760:	47070806 	.inst	0x47070806 ; undefined
     764:	19000000 	stlurb	w0, [x0]
     768:	060e0b08 	.inst	0x060e0b08 ; undefined
     76c:	17020000 	b	fffffffffc08076c <_end+0xfffffffff968efdc>
     770:	00002e03 	udf	#11779
     774:	07040600 	.inst	0x07040600 ; undefined
     778:	00000051 	udf	#81
     77c:	6905041a 	stgp	x26, x1, [x0, #160]
     780:	0600746e 	.inst	0x0600746e ; undefined
     784:	04550508 	.inst	0x04550508 ; undefined
     788:	b20b0000 	orr	x0, x0, #0x20000000200000
     78c:	03000003 	.inst	0x03000003 ; undefined
     790:	00aa17d1 	.inst	0x00aa17d1 ; undefined
     794:	08060000 	stxrb	w6, w0, [x0]
     798:	00004c07 	udf	#19463
     79c:	05080600 	.inst	0x05080600 ; undefined
     7a0:	00000450 	udf	#1104
     7a4:	e9041006 	.inst	0xe9041006 ; undefined
     7a8:	13000004 	sbfx	w4, w0, #0, #1
     7ac:	000004de 	udf	#1246
     7b0:	07040110 	.inst	0x07040110 ; undefined
     7b4:	0000027f 	udf	#639
     7b8:	00307801 	.inst	0x00307801 ; NYI
     7bc:	aa130804 	orr	x4, x0, x19, lsl #2
     7c0:	00000000 	udf	#0
     7c4:	00317801 	.inst	0x00317801 ; NYI
     7c8:	aa130904 	orr	x4, x8, x19, lsl #2
     7cc:	08000000 	stxrb	w0, w0, [x0]
     7d0:	00327801 	.inst	0x00327801 ; NYI
     7d4:	aa130a04 	orr	x4, x16, x19, lsl #2
     7d8:	10000000 	adr	x0, 7d8 <_start-0x7f828>
     7dc:	00337801 	.inst	0x00337801 ; NYI
     7e0:	aa130b04 	orr	x4, x24, x19, lsl #2
     7e4:	18000000 	ldr	w0, 7e4 <_start-0x7f81c>
     7e8:	00347801 	.inst	0x00347801 ; NYI
     7ec:	aa130c04 	orr	x4, x0, x19, lsl #3
     7f0:	20000000 	.inst	0x20000000 ; undefined
     7f4:	00357801 	.inst	0x00357801 ; NYI
     7f8:	aa130d04 	orr	x4, x8, x19, lsl #3
     7fc:	28000000 	stnp	w0, w0, [x0]
     800:	00367801 	.inst	0x00367801 ; NYI
     804:	aa130e04 	orr	x4, x16, x19, lsl #3
     808:	30000000 	adr	x0, 809 <_start-0x7f7f7>
     80c:	00377801 	.inst	0x00377801 ; NYI
     810:	aa130f04 	orr	x4, x24, x19, lsl #3
     814:	38000000 	sturb	w0, [x0]
     818:	00387801 	.inst	0x00387801 ; NYI
     81c:	aa131004 	orr	x4, x0, x19, lsl #4
     820:	40000000 	.inst	0x40000000 ; undefined
     824:	00397801 	.inst	0x00397801 ; NYI
     828:	aa131104 	orr	x4, x8, x19, lsl #4
     82c:	48000000 	stxrh	w0, w0, [x0]
     830:	30317801 	adr	x1, 63731 <_start-0x1c8cf>
     834:	13120400 	sbfiz	w0, w0, #14, #2
     838:	000000aa 	udf	#170
     83c:	31780150 	adds	w16, w10, #0xe00, lsl #12
     840:	13040031 	sbfiz	w17, w1, #28, #1
     844:	0000aa13 	udf	#43539
     848:	78015800 	sttrh	w0, [x0, #21]
     84c:	04003231 	saddv	d17, p4, z17.b
     850:	00aa1314 	.inst	0x00aa1314 ; undefined
     854:	01600000 	.inst	0x01600000 ; undefined
     858:	00333178 	.inst	0x00333178 ; NYI
     85c:	aa131504 	orr	x4, x8, x19, lsl #5
     860:	68000000 	.inst	0x68000000 ; undefined
     864:	34317801 	cbz	w1, 63764 <_start-0x1c89c>
     868:	13160400 	sbfiz	w0, w0, #10, #2
     86c:	000000aa 	udf	#170
     870:	31780170 	adds	w16, w11, #0xe00, lsl #12
     874:	17040035 	b	fffffffffc100948 <_end+0xfffffffff970f1b8>
     878:	0000aa13 	udf	#43539
     87c:	78017800 	sttrh	w0, [x0, #23]
     880:	04003631 	saddv	d17, p5, z17.b
     884:	00aa1318 	.inst	0x00aa1318 ; undefined
     888:	01800000 	.inst	0x01800000 ; undefined
     88c:	00373178 	.inst	0x00373178 ; NYI
     890:	aa131904 	orr	x4, x8, x19, lsl #6
     894:	88000000 	stxr	w0, w0, [x0]
     898:	38317801 	strb	w1, [x0, x17, lsl #0]
     89c:	131a0400 	sbfiz	w0, w0, #6, #2
     8a0:	000000aa 	udf	#170
     8a4:	31780190 	adds	w16, w12, #0xe00, lsl #12
     8a8:	1b040039 	madd	w25, w1, w4, w0
     8ac:	0000aa13 	udf	#43539
     8b0:	78019800 	sttrh	w0, [x0, #25]
     8b4:	04003032 	saddv	d18, p4, z1.b
     8b8:	00aa131c 	.inst	0x00aa131c ; undefined
     8bc:	01a00000 	.inst	0x01a00000 ; undefined
     8c0:	00313278 	.inst	0x00313278 ; NYI
     8c4:	aa131d04 	orr	x4, x8, x19, lsl #7
     8c8:	a8000000 	stnp	x0, x0, [x0]
     8cc:	32327801 	orr	w1, w0, #0xffffdfff
     8d0:	131e0400 	sbfiz	w0, w0, #2, #2
     8d4:	000000aa 	udf	#170
     8d8:	327801b0 	.inst	0x327801b0 ; undefined
     8dc:	1f040033 	fmadd	s19, s1, s4, s0
     8e0:	0000aa13 	udf	#43539
     8e4:	7801b800 	sttrh	w0, [x0, #27]
     8e8:	04003432 	saddv	d18, p5, z1.b
     8ec:	00aa1320 	.inst	0x00aa1320 ; undefined
     8f0:	01c00000 	.inst	0x01c00000 ; undefined
     8f4:	00353278 	.inst	0x00353278 ; NYI
     8f8:	aa132104 	orr	x4, x8, x19, lsl #8
     8fc:	c8000000 	stxr	w0, x0, [x0]
     900:	36327801 	tbz	w1, #6, 5800 <_start-0x7a800>
     904:	13220400 	.inst	0x13220400 ; undefined
     908:	000000aa 	udf	#170
     90c:	327801d0 	.inst	0x327801d0 ; undefined
     910:	23040037 	.inst	0x23040037 ; undefined
     914:	0000aa13 	udf	#43539
     918:	7801d800 	sttrh	w0, [x0, #29]
     91c:	04003832 	saddv	d18, p6, z1.b
     920:	00aa1324 	.inst	0x00aa1324 ; undefined
     924:	01e00000 	.inst	0x01e00000 ; undefined
     928:	00393278 	.inst	0x00393278 ; NYI
     92c:	aa132504 	orr	x4, x8, x19, lsl #9
     930:	e8000000 	.inst	0xe8000000 ; undefined
     934:	30337801 	adr	x1, 67835 <_start-0x187cb>
     938:	13260400 	.inst	0x13260400 ; undefined
     93c:	000000aa 	udf	#170
     940:	05ad03f0 	zip1	z16.q, z31.q, z13.q
     944:	27040000 	.inst	0x27040000 ; undefined
     948:	0000aa13 	udf	#43539
     94c:	980af800 	ldrsw	x0, 1684c <_start-0x697b4>
     950:	04000003 	add	z3.b, p0/m, z3.b, z0.b
     954:	00aa1328 	.inst	0x00aa1328 ; undefined
     958:	01000000 	.inst	0x01000000 ; undefined
     95c:	0005dc0a 	.inst	0x0005dc0a ; undefined
     960:	13290400 	.inst	0x13290400 ; undefined
     964:	000000aa 	udf	#170
     968:	0b000108 	add	w8, w8, w0
     96c:	000004de 	udf	#1246
     970:	bf032a04 	.inst	0xbf032a04 ; undefined
     974:	12000000 	and	w0, w0, #0x1
     978:	000003d1 	udf	#977
     97c:	3e090568 	.inst	0x3e090568 ; undefined
     980:	01000003 	.inst	0x01000003 ; undefined
     984:	00393178 	.inst	0x00393178 ; NYI
     988:	aa130d05 	orr	x5, x8, x19, lsl #3
     98c:	00000000 	udf	#0
     990:	30327801 	adr	x1, 65891 <_start-0x1a76f>
     994:	130e0500 	sbfiz	w0, w8, #18, #2
     998:	000000aa 	udf	#170
     99c:	32780108 	.inst	0x32780108 ; undefined
     9a0:	0f050031 	.inst	0x0f050031 ; undefined
     9a4:	0000aa13 	udf	#43539
     9a8:	78011000 	sturh	w0, [x0, #17]
     9ac:	05003232 	orr	z18.s, z18.s, #0xfc000fff
     9b0:	00aa1310 	.inst	0x00aa1310 ; undefined
     9b4:	01180000 	.inst	0x01180000 ; undefined
     9b8:	00333278 	.inst	0x00333278 ; NYI
     9bc:	aa131105 	orr	x5, x8, x19, lsl #4
     9c0:	20000000 	.inst	0x20000000 ; undefined
     9c4:	34327801 	cbz	w1, 658c4 <_start-0x1a73c>
     9c8:	13120500 	sbfiz	w0, w8, #14, #2
     9cc:	000000aa 	udf	#170
     9d0:	32780128 	.inst	0x32780128 ; undefined
     9d4:	13050035 	sbfiz	w21, w1, #27, #1
     9d8:	0000aa13 	udf	#43539
     9dc:	78013000 	sturh	w0, [x0, #19]
     9e0:	05003632 	orr	z18.b, z18.b, #0xc
     9e4:	00aa1314 	.inst	0x00aa1314 ; undefined
     9e8:	01380000 	.inst	0x01380000 ; undefined
     9ec:	00373278 	.inst	0x00373278 ; NYI
     9f0:	aa131505 	orr	x5, x8, x19, lsl #5
     9f4:	40000000 	.inst	0x40000000 ; undefined
     9f8:	38327801 	strb	w1, [x0, x18, lsl #0]
     9fc:	13160500 	sbfiz	w0, w8, #10, #2
     a00:	000000aa 	udf	#170
     a04:	70660148 	adr	x8, cca2f <thread_list+0x4400f>
     a08:	13180500 	sbfiz	w0, w8, #8, #2
     a0c:	000000aa 	udf	#170
     a10:	726c0150 	.inst	0x726c0150 ; undefined
     a14:	13190500 	sbfiz	w0, w8, #7, #2
     a18:	000000aa 	udf	#170
     a1c:	70730158 	adr	x24, e6a47 <thread_list+0x5e027>
     a20:	131a0500 	sbfiz	w0, w8, #6, #2
     a24:	000000aa 	udf	#170
     a28:	d10b0060 	sub	x0, x3, #0x2c0
     a2c:	05000003 	orr	z3.s, z3.s, #0x1
     a30:	028b031b 	.inst	0x028b031b ; undefined
     a34:	1b130000 	madd	w0, w0, w19, w0
     a38:	3000000e 	adr	x14, a39 <_start-0x7f5c7>
     a3c:	1f1d0504 	fmadd	s4, s8, s29, s1
     a40:	03000004 	.inst	0x03000004 ; undefined
     a44:	000003d8 	udf	#984
     a48:	3e141e05 	.inst	0x3e141e05 ; undefined
     a4c:	00000003 	udf	#3
     a50:	00063a03 	.inst	0x00063a03 ; undefined
     a54:	141f0500 	b	7c1e54 <_bss_size+0x394c6c>
     a58:	0000041f 	udf	#1055
     a5c:	06170368 	.inst	0x06170368 ; undefined
     a60:	20050000 	.inst	0x20050000 ; undefined
     a64:	00041f14 	.inst	0x00041f14 ; undefined
     a68:	70017000 	adr	x0, 386b <_start-0x7c795>
     a6c:	05006469 	orr	z9.h, z9.h, #0xf0
     a70:	00900921 	.inst	0x00900921 ; undefined
     a74:	03780000 	.inst	0x03780000 ; undefined
     a78:	00000847 	udf	#2119
     a7c:	240b2205 	cmpeq	p5.b, p0/z, z16.b, z11.d
     a80:	80000004 	.inst	0x80000004 ; undefined
     a84:	0003fd03 	.inst	0x0003fd03 ; undefined
     a88:	12230500 	and	w0, w8, #0x60000000
     a8c:	00000089 	udf	#137
     a90:	05e30388 	.inst	0x05e30388 ; undefined
     a94:	24050000 	cmphs	p0.b, p0/z, z0.b, z5.b
     a98:	00009009 	udf	#36873
     a9c:	a9038c00 	stp	x0, x3, [x0, #56]
     aa0:	05000003 	orr	z3.s, z3.s, #0x1
     aa4:	00900925 	.inst	0x00900925 ; undefined
     aa8:	03900000 	.inst	0x03900000 ; undefined
     aac:	00000496 	udf	#1174
     ab0:	240b2605 	cmpeq	p5.b, p1/z, z16.b, z11.d
     ab4:	98000004 	ldrsw	x4, ab4 <_start-0x7f54c>
     ab8:	00062903 	.inst	0x00062903 ; undefined
     abc:	0b270500 	add	w0, w8, w7, uxtb #1
     ac0:	00000424 	udf	#1060
     ac4:	05d303a0 	mov	z0.d, p3/z, #29
     ac8:	29050000 	stp	w0, w0, [x0, #40]
     acc:	00043a09 	.inst	0x00043a09 ; undefined
     ad0:	bb0aa800 	.inst	0xbb0aa800 ; undefined
     ad4:	05000005 	orr	z5.s, z5.s, #0x1
     ad8:	044a0c2a 	smin	z10.h, p3/m, z10.h, z1.h
     adc:	01b00000 	.inst	0x01b00000 ; undefined
     ae0:	0005b60a 	.inst	0x0005b60a ; undefined
     ae4:	0c2b0500 	.inst	0x0c2b0500 ; undefined
     ae8:	0000045a 	udf	#1114
     aec:	680a03b8 	.inst	0x680a03b8 ; undefined
     af0:	05000004 	orr	z4.s, z4.s, #0x1
     af4:	0090092c 	.inst	0x0090092c ; undefined
     af8:	03c00000 	.inst	0x03c00000 ; undefined
     afc:	0005400a 	.inst	0x0005400a ; undefined
     b00:	142d0500 	b	b41f00 <_heap_stack_size+0x341f00>
     b04:	0000033e 	udf	#830
     b08:	040003c8 	add	z8.b, p0/m, z8.b, z30.b
     b0c:	0000034a 	udf	#842
     b10:	00042e04 	.inst	0x00042e04 ; undefined
     b14:	04241400 	uqadd	z0.b, z0.b, z4.b
     b18:	01060000 	.inst	0x01060000 ; undefined
     b1c:	00052208 	.inst	0x00052208 ; undefined
     b20:	042e1400 	uqadd	z0.b, z0.b, z14.b
     b24:	90150000 	adrp	x0, 2a000000 <_end+0x2760e870>
     b28:	4a000000 	eor	w0, w0, w0
     b2c:	16000004 	b	fffffffff8000b3c <_end+0xfffffffff560f3ac>
     b30:	000000aa 	udf	#170
     b34:	5a150040 	sbc	w0, w2, w21
     b38:	5a000004 	sbc	w4, w0, w0
     b3c:	16000004 	b	fffffffff8000b4c <_end+0xfffffffff560f3bc>
     b40:	000000aa 	udf	#170
     b44:	5f040040 	.inst	0x5f040040 ; undefined
     b48:	1b000004 	madd	w4, w0, w0, w0
     b4c:	00000466 	udf	#1126
     b50:	1b0b0005 	madd	w5, w0, w11, w0
     b54:	0500000e 	orr	z14.s, z14.s, #0x1
     b58:	034a032e 	.inst	0x034a032e ; undefined
     b5c:	ca1c0000 	eor	x0, x0, x28
     b60:	01000005 	.inst	0x01000005 ; undefined
     b64:	04880b0b 	smax	z11.s, p2/m, z11.s, z24.s
     b68:	03090000 	.inst	0x03090000 ; undefined
     b6c:	00088860 	.inst	0x00088860 ; undefined
     b70:	00000000 	udf	#0
     b74:	00007d04 	udf	#32004
     b78:	045e1d00 	.inst	0x045e1d00 ; undefined
     b7c:	0c010000 	.inst	0x0c010000 ; undefined
     b80:	00049910 	.inst	0x00049910 ; undefined
     b84:	04660400 	sub	z0.h, z0.h, z6.h
     b88:	060d0000 	.inst	0x060d0000 ; undefined
     b8c:	0e000004 	tbl	v4.8b, {v0.16b}, v0.8b
     b90:	0000741b 	udf	#29723
     b94:	68030900 	.inst	0x68030900 ; undefined
     b98:	00000888 	udf	#2184
     b9c:	07000000 	.inst	0x07000000 ; undefined
     ba0:	000004a5 	udf	#1189
     ba4:	04c40b06 	.inst	0x04c40b06 ; undefined
     ba8:	89020000 	.inst	0x89020000 ; undefined
     bac:	00000000 	udf	#0
     bb0:	00085407 	.inst	0x00085407 ; undefined
     bb4:	d5060700 	msr	s0_6_c0_c7_0, x0
     bb8:	02000004 	.inst	0x02000004 ; undefined
     bbc:	0000007b 	udf	#123
     bc0:	0c7a0800 	.inst	0x0c7a0800 ; undefined
     bc4:	05070000 	.inst	0x05070000 ; undefined
     bc8:	00007b07 	udf	#31495
     bcc:	0004eb00 	.inst	0x0004eb00 ; undefined
     bd0:	00890200 	.inst	0x00890200 ; undefined
     bd4:	07000000 	.inst	0x07000000 ; undefined
     bd8:	00000489 	udf	#1161
     bdc:	04fc2b08 	.inst	0x04fc2b08 ; undefined
     be0:	fc020000 	stur	d0, [x0, #32]
     be4:	00000004 	udf	#4
     be8:	00027f04 	.inst	0x00027f04 ; undefined
     bec:	03f40900 	.inst	0x03f40900 ; undefined
     bf0:	37050000 	tbnz	w0, #0, ffffffffffffabf0 <_end+0xfffffffffd609460>
     bf4:	0000050e 	udf	#1294
     bf8:	39090005 	strb	w5, [x0, #576]
     bfc:	09000004 	.inst	0x09000004 ; undefined
     c00:	00051b0d 	.inst	0x00051b0d ; undefined
     c04:	09000500 	.inst	0x09000500 ; undefined
     c08:	00000527 	udf	#1319
     c0c:	05281409 	ext	z9.b, z9.b, z0.b, #69
     c10:	00050000 	.inst	0x00050000 ; undefined
     c14:	0003b909 	.inst	0x0003b909 ; undefined
     c18:	350e0900 	cbnz	w0, 1cd38 <_start-0x632c8>
     c1c:	05000005 	orr	z5.s, z5.s, #0x1
     c20:	04250900 	.inst	0x04250900 ; undefined
     c24:	0d060000 	.inst	0x0d060000 ; undefined
     c28:	00000542 	udf	#1346
     c2c:	f5090005 	.inst	0xf5090005 ; undefined
     c30:	06000004 	.inst	0x06000004 ; undefined
     c34:	00054f11 	.inst	0x00054f11 ; undefined
     c38:	09000500 	.inst	0x09000500 ; undefined
     c3c:	00000411 	udf	#1041
     c40:	055c0e06 	mov	z6.h, p12/z, #112
     c44:	00050000 	.inst	0x00050000 ; undefined
     c48:	0003e009 	.inst	0x0003e009 ; undefined
     c4c:	69130600 	stgp	x0, x1, [x16, #608]
     c50:	05000005 	orr	z5.s, z5.s, #0x1
     c54:	01bf0800 	.inst	0x01bf0800 ; undefined
     c58:	08060000 	stxrb	w6, w0, [x0]
     c5c:	00009005 	udf	#36869
     c60:	00058000 	.inst	0x00058000 ; undefined
     c64:	04240200 	add	z0.b, z16.b, z4.b
     c68:	00050000 	.inst	0x00050000 ; undefined
     c6c:	0005ea07 	.inst	0x0005ea07 ; undefined
     c70:	91380400 	add	x0, x0, #0xe01
     c74:	02000005 	.inst	0x02000005 ; undefined
     c78:	000004fc 	udf	#1276
     c7c:	063f0700 	.inst	0x063f0700 ; undefined
     c80:	37040000 	tbnz	w0, #0, ffffffffffff8c80 <_end+0xfffffffffd6074f0>
     c84:	000005a7 	udf	#1447
     c88:	00009002 	udf	#36866
     c8c:	00900200 	.inst	0x00900200 ; undefined
     c90:	07000000 	.inst	0x07000000 ; undefined
     c94:	00000509 	udf	#1289
     c98:	05bd3604 	.inst	0x05bd3604 ; undefined
     c9c:	90020000 	adrp	x0, 4000000 <_end+0x160e870>
     ca0:	02000000 	.inst	0x02000000 ; undefined
     ca4:	0000045a 	udf	#1114
     ca8:	06460700 	.inst	0x06460700 ; undefined
     cac:	34040000 	cbz	w0, 8cac <_start-0x77354>
     cb0:	000005d3 	udf	#1491
     cb4:	0004fc02 	.inst	0x0004fc02 ; undefined
     cb8:	00900200 	.inst	0x00900200 ; undefined
     cbc:	08000000 	stxrb	w0, w0, [x0]
     cc0:	00000721 	udf	#1825
     cc4:	90053304 	adrp	x4, a660000 <_end+0x7c6e870>
     cc8:	f3000000 	.inst	0xf3000000 ; undefined
     ccc:	02000005 	.inst	0x02000005 ; undefined
     cd0:	000004fc 	udf	#1276
     cd4:	0005f302 	.inst	0x0005f302 ; undefined
     cd8:	05fa0200 	.inst	0x05fa0200 ; undefined
     cdc:	06000000 	.inst	0x06000000 ; undefined
     ce0:	05190801 	mov	z1.b, p9/z, #64
     ce4:	89040000 	.inst	0x89040000 ; undefined
     ce8:	07000000 	.inst	0x07000000 ; undefined
     cec:	00000dc1 	udf	#3521
     cf0:	06153204 	.inst	0x06153204 ; undefined
     cf4:	fc020000 	stur	d0, [x0, #32]
     cf8:	02000004 	.inst	0x02000004 ; undefined
     cfc:	00000090 	udf	#144
     d00:	0b6c0800 	.inst	0x0b6c0800 ; undefined
     d04:	31040000 	adds	w0, w0, #0x100
     d08:	00009005 	udf	#36869
     d0c:	00062b00 	.inst	0x00062b00 ; undefined
     d10:	04fc0200 	add	z0.d, z16.d, z28.d
     d14:	08000000 	stxrb	w0, w0, [x0]
     d18:	00000a4a 	udf	#2634
     d1c:	90053004 	adrp	x4, a600000 <_end+0x7c0e870>
     d20:	4b000000 	sub	w0, w0, w0
     d24:	02000006 	.inst	0x02000006 ; undefined
     d28:	000004fc 	udf	#1276
     d2c:	00064b02 	.inst	0x00064b02 ; undefined
     d30:	06500200 	.inst	0x06500200 ; undefined
     d34:	04000000 	add	z0.b, p0/m, z0.b, z0.b
     d38:	00000435 	udf	#1077
     d3c:	00042904 	.inst	0x00042904 ; undefined
     d40:	0bb30800 	.inst	0x0bb30800 ; undefined
     d44:	2f040000 	.inst	0x2f040000 ; undefined
     d48:	00009e08 	udf	#40456
     d4c:	00067500 	.inst	0x00067500 ; undefined
     d50:	04fc0200 	add	z0.d, z16.d, z28.d
     d54:	4b020000 	sub	w0, w0, w2
     d58:	02000006 	.inst	0x02000006 ; undefined
     d5c:	0000009e 	udf	#158
     d60:	0b890800 	add	w0, w0, w9, asr #2
     d64:	2e040000 	ext	v0.8b, v0.8b, v4.8b, #0
     d68:	00009e08 	udf	#40456
     d6c:	00069500 	.inst	0x00069500 ; undefined
     d70:	04fc0200 	add	z0.d, z16.d, z28.d
     d74:	24020000 	cmphs	p0.b, p0/z, z0.b, z2.b
     d78:	02000004 	.inst	0x02000004 ; undefined
     d7c:	0000009e 	udf	#158
     d80:	0b600800 	.inst	0x0b600800 ; undefined
     d84:	2d040000 	stp	s0, s0, [x0, #32]
     d88:	00009005 	udf	#36869
     d8c:	0006ab00 	.inst	0x0006ab00 ; undefined
     d90:	04fc0200 	add	z0.d, z16.d, z28.d
     d94:	1e000000 	.inst	0x1e000000 ; undefined
     d98:	00000554 	udf	#1364
     d9c:	9005c001 	adrp	x1, b800000 <_end+0x8e0e870>
     da0:	48000000 	stxrh	w0, w0, [x0]
     da4:	00000810 	udf	#2064
     da8:	4c000000 	st4	{v0.16b-v3.16b}, [x0]
     dac:	00000000 	udf	#0
     db0:	01000000 	.inst	0x01000000 ; undefined
     db4:	0006db9c 	.inst	0x0006db9c ; undefined
     db8:	6c650c00 	ldnp	d0, d3, [x0, #-432]
     dbc:	aa13c200 	orr	x0, x16, x19, lsl #48
     dc0:	02000000 	.inst	0x02000000 ; undefined
     dc4:	0e007891 	zip2	v17.8b, v4.8b, v0.8b
     dc8:	0000061c 	udf	#1564
     dcc:	080ed88f 	stlxrb	w14, w15, [x4]
     dd0:	00000000 	udf	#0
     dd4:	00017000 	.inst	0x00017000 ; undefined
     dd8:	00000000 	udf	#0
     ddc:	5b9c0100 	.inst	0x5b9c0100 ; undefined
     de0:	10000007 	adr	x7, de0 <_start-0x7f220>
     de4:	00000320 	udf	#800
     de8:	007b198f 	.inst	0x007b198f ; undefined
     dec:	91020000 	add	x0, x0, #0x80
     df0:	03a01058 	.inst	0x03a01058 ; undefined
     df4:	2c8f0000 	stp	s0, s0, [x0], #120
     df8:	00000089 	udf	#137
     dfc:	0d549102 	.inst	0x0d549102 ; undefined
     e00:	0000088e 	udf	#2190
     e04:	04880f91 	smax	z17.s, p3/m, z17.s, z28.s
     e08:	91020000 	add	x0, x0, #0x80
     e0c:	74690c70 	.inst	0x74690c70 ; undefined
     e10:	880f9900 	stlxr	w15, w0, [x8]
     e14:	02000004 	.inst	0x02000004 ; undefined
     e18:	a01f7891 	.inst	0xa01f7891 ; undefined
     e1c:	0000080f 	udf	#2063
     e20:	74000000 	.inst	0x74000000 ; undefined
     e24:	00000000 	udf	#0
     e28:	0d000000 	st1	{v0.b}[0], [x0]
     e2c:	00000624 	udf	#1572
     e30:	007b0fb3 	.inst	0x007b0fb3 ; undefined
     e34:	91020000 	add	x0, x0, #0x80
     e38:	006e0c68 	.inst	0x006e0c68 ; undefined
     e3c:	048813b5 	smax	z21.s, p4/m, z21.s, z29.s
     e40:	91020000 	add	x0, x0, #0x80
     e44:	17000060 	b	fffffffffc000fc4 <_end+0xfffffffff960f834>
     e48:	000004c8 	udf	#1224
     e4c:	080ecc8b 	stlxrb	w14, w11, [x4]
     e50:	00000000 	udf	#0
     e54:	00000c00 	udf	#3072
     e58:	00000000 	udf	#0
     e5c:	179c0100 	b	fffffffffe70125c <_end+0xfffffffffbd0facc>
     e60:	00000586 	udf	#1414
     e64:	080ec087 	stlxrb	w14, w7, [x4]
     e68:	00000000 	udf	#0
     e6c:	00000c00 	udf	#3072
     e70:	00000000 	udf	#0
     e74:	209c0100 	.inst	0x209c0100 ; undefined
     e78:	000005f8 	udf	#1528
     e7c:	70068001 	adr	x1, de7f <_start-0x72181>
     e80:	0000080e 	udf	#2062
     e84:	50000000 	adr	x0, e86 <_start-0x7f17a>
     e88:	00000000 	udf	#0
     e8c:	01000000 	.inst	0x01000000 ; undefined
     e90:	0007c59c 	.inst	0x0007c59c ; undefined
     e94:	088e1000 	stllrb	w0, [x0]
     e98:	26800000 	.inst	0x26800000 ; undefined
     e9c:	00000488 	udf	#1160
     ea0:	0f789102 	.inst	0x0f789102 ; undefined
     ea4:	80007469 	.inst	0x80007469 ; undefined
     ea8:	00048836 	.inst	0x00048836 ; undefined
     eac:	70910200 	adr	x0, fffffffffff22eef <_end+0xfffffffffd53175f>
     eb0:	059b1100 	mov	z0.s, p11/z, #-120
     eb4:	0c7a0000 	.inst	0x0c7a0000 ; undefined
     eb8:	0000080e 	udf	#2062
     ebc:	64000000 	.inst	0x64000000 ; undefined
     ec0:	00000000 	udf	#0
     ec4:	01000000 	.inst	0x01000000 ; undefined
     ec8:	04af0e9c 	.inst	0x04af0e9c ; undefined
     ecc:	c8700000 	ldxp	x0, x0, [x0]
     ed0:	0000080d 	udf	#2061
     ed4:	44000000 	.inst	0x44000000 ; undefined
     ed8:	00000000 	udf	#0
     edc:	01000000 	.inst	0x01000000 ; undefined
     ee0:	0008239c 	.inst	0x0008239c ; undefined
     ee4:	6f6e0f00 	.inst	0x6f6e0f00 ; undefined
     ee8:	90237000 	adrp	x0, 46e00000 <_end+0x4440e870>
     eec:	02000000 	.inst	0x02000000 ; undefined
     ef0:	650c6c91 	.inst	0x650c6c91 ; undefined
     ef4:	72007273 	ands	w19, w19, #0x1fffffff
     ef8:	0000aa13 	udf	#43539
     efc:	78910200 	ldursh	x0, [x16, #-240]
     f00:	726c650c 	.inst	0x726c650c ; undefined
     f04:	aa187200 	orr	x0, x16, x24, lsl #28
     f08:	02000000 	.inst	0x02000000 ; undefined
     f0c:	0e007091 	tbx	v17.8b, {v4.16b-v7.16b}, v0.8b
     f10:	00000568 	udf	#1384
     f14:	080ccc51 	stlxrb	w12, w17, [x2]
     f18:	00000000 	udf	#0
     f1c:	0000fc00 	udf	#64512
     f20:	00000000 	udf	#0
     f24:	4e9c0100 	.inst	0x4e9c0100 ; undefined
     f28:	0f000008 	.inst	0x0f000008 ; undefined
     f2c:	00667074 	.inst	0x00667074 ; undefined
     f30:	04fc2251 	.inst	0x04fc2251 ; undefined
     f34:	91020000 	add	x0, x0, #0x80
     f38:	790e0078 	strh	w24, [x3, #1792]
     f3c:	1a000004 	adc	w4, w0, w0
     f40:	00080a74 	.inst	0x00080a74 ; undefined
     f44:	00000000 	udf	#0
     f48:	00000258 	udf	#600
     f4c:	00000000 	udf	#0
     f50:	08879c01 	stlrb	w1, [x0]
     f54:	740f0000 	.inst	0x740f0000 ; undefined
     f58:	1a006670 	.inst	0x1a006670 ; undefined
     f5c:	0004fc22 	.inst	0x0004fc22 ; undefined
     f60:	68910200 	stgp	x0, x0, [x16], #544
     f64:	0005350d 	.inst	0x0005350d ; undefined
     f68:	90092500 	adrp	x0, 124a0000 <_end+0xfaae870>
     f6c:	02000000 	.inst	0x02000000 ; undefined
     f70:	11007c91 	add	w17, w4, #0x1f
     f74:	00000561 	udf	#1377
     f78:	080a2c14 	stxrb	w10, w20, [x0]
     f7c:	00000000 	udf	#0
     f80:	00004800 	udf	#18432
     f84:	00000000 	udf	#0
     f88:	119c0100 	.inst	0x119c0100 ; undefined
     f8c:	00000563 	udf	#1379
     f90:	0809f80f 	stlxrb	w9, w15, [x0]
     f94:	00000000 	udf	#0
     f98:	00003400 	udf	#13312
     f9c:	00000000 	udf	#0
     fa0:	009c0100 	.inst	0x009c0100 ; undefined
     fa4:	000001ce 	udf	#462
     fa8:	08010005 	stxrb	w1, w5, [x0]
     fac:	000004b8 	udf	#1208
     fb0:	00012207 	.inst	0x00012207 ; undefined
     fb4:	00e21d00 	.inst	0x00e21d00 ; undefined
     fb8:	00000000 	udf	#0
     fbc:	10940000 	adr	x0, fffffffffff28fbc <_end+0xfffffffffd53782c>
     fc0:	00000008 	udf	#8
     fc4:	00a00000 	.inst	0x00a00000 ; undefined
     fc8:	00000000 	udf	#0
     fcc:	062d0000 	.inst	0x062d0000 ; undefined
     fd0:	1c080000 	ldr	s0, 10fd0 <_start-0x6f030>
     fd4:	08000003 	stxrb	w0, w3, [x0]
     fd8:	003a100f 	.inst	0x003a100f ; NYI
     fdc:	3f060000 	.inst	0x3f060000 ; undefined
     fe0:	09000000 	.inst	0x09000000 ; undefined
     fe4:	00000059 	udf	#89
     fe8:	00005901 	udf	#22785
     fec:	00600100 	.inst	0x00600100 ; undefined
     ff0:	6c010000 	stnp	d0, d0, [x0, #16]
     ff4:	01000000 	.inst	0x01000000 ; undefined
     ff8:	00000059 	udf	#89
     ffc:	07040500 	.inst	0x07040500 ; undefined
    1000:	00000051 	udf	#81
    1004:	00006506 	udf	#25862
    1008:	08010500 	stxrb	w1, w0, [x8]
    100c:	00000522 	udf	#1314
    1010:	0805080a 	stxrb	w5, w10, [x0]
    1014:	00004707 	udf	#18183
    1018:	05040b00 	.inst	0x05040b00 ; undefined
    101c:	00746e69 	.inst	0x00746e69 ; undefined
    1020:	0000650c 	udf	#25868
    1024:	00008c00 	udf	#35840
    1028:	008c0d00 	.inst	0x008c0d00 ; undefined
    102c:	007f0000 	.inst	0x007f0000 ; undefined
    1030:	4c070805 	.inst	0x4c070805 ; undefined
    1034:	0e000000 	tbl	v0.8b, {v0.16b}, v0.8b
    1038:	000002c8 	udf	#712
    103c:	600e0a01 	.inst	0x600e0a01 ; undefined
    1040:	0f000000 	.inst	0x0f000000 ; undefined
    1044:	000006b9 	udf	#1721
    1048:	7c060b01 	.inst	0x7c060b01 ; undefined
    104c:	09000000 	.inst	0x09000000 ; undefined
    1050:	08887003 	stllrb	w3, [x0]
    1054:	00000000 	udf	#0
    1058:	06c60400 	.inst	0x06c60400 ; undefined
    105c:	10020000 	adr	x0, 505c <_start-0x7afa4>
    1060:	000000c6 	udf	#198
    1064:	00006001 	udf	#24577
    1068:	d3040000 	.inst	0xd3040000 ; undefined
    106c:	02000006 	.inst	0x02000006 ; undefined
    1070:	0000d70f 	udf	#55055
    1074:	00600100 	.inst	0x00600100 ; undefined
    1078:	04000000 	add	z0.b, p0/m, z0.b, z0.b
    107c:	000006ab 	udf	#1707
    1080:	00ed0e02 	.inst	0x00ed0e02 ; undefined
    1084:	60010000 	.inst	0x60010000 ; undefined
    1088:	01000000 	.inst	0x01000000 ; undefined
    108c:	00000075 	udf	#117
    1090:	064b0300 	.inst	0x064b0300 ; undefined
    1094:	35030000 	cbnz	w0, 7094 <_start-0x78f6c>
    1098:	000000fa 	udf	#250
    109c:	8b030002 	add	x2, x0, x3
    10a0:	04000006 	add	z6.b, p0/m, z6.b, z0.b
    10a4:	00010724 	.inst	0x00010724 ; undefined
    10a8:	03000200 	.inst	0x03000200 ; undefined
    10ac:	0000069a 	udf	#1690
    10b0:	01141102 	.inst	0x01141102 ; undefined
    10b4:	00020000 	.inst	0x00020000 ; undefined
    10b8:	0001bf10 	.inst	0x0001bf10 ; undefined
    10bc:	05080500 	.inst	0x05080500 ; undefined
    10c0:	00000075 	udf	#117
    10c4:	0000012b 	udf	#299
    10c8:	00006001 	udf	#24577
    10cc:	03000200 	.inst	0x03000200 ; undefined
    10d0:	00000667 	udf	#1639
    10d4:	01380405 	.inst	0x01380405 ; undefined
    10d8:	00020000 	.inst	0x00020000 ; undefined
    10dc:	00059b03 	.inst	0x00059b03 ; undefined
    10e0:	45190600 	.inst	0x45190600 ; undefined
    10e4:	02000001 	.inst	0x02000001 ; undefined
    10e8:	06570300 	.inst	0x06570300 ; undefined
    10ec:	10070000 	adr	x0, f0ec <_start-0x70f14>
    10f0:	00000152 	udf	#338
    10f4:	71030002 	subs	w2, w0, #0xc0
    10f8:	07000006 	.inst	0x07000006 ; undefined
    10fc:	00015f0c 	.inst	0x00015f0c ; undefined
    1100:	04000200 	add	z0.b, p0/m, z0.b, z16.b
    1104:	000001a8 	udf	#424
    1108:	017f1608 	.inst	0x017f1608 ; undefined
    110c:	59010000 	stlurh	w0, [x0, #16]
    1110:	01000000 	.inst	0x01000000 ; undefined
    1114:	00000060 	udf	#96
    1118:	00006c01 	udf	#27649
    111c:	00590100 	.inst	0x00590100 ; undefined
    1120:	04000000 	add	z0.b, p0/m, z0.b, z0.b
    1124:	000002ed 	udf	#749
    1128:	01951408 	.inst	0x01951408 ; undefined
    112c:	6c010000 	stnp	d0, d0, [x0, #16]
    1130:	01000000 	.inst	0x01000000 ; undefined
    1134:	0000002e 	udf	#46
    1138:	05541100 	mov	z0.h, p4/z, #-120
    113c:	32060000 	orr	w0, w0, #0x4000000
    1140:	00007505 	udf	#29957
    1144:	0001a700 	.inst	0x0001a700 ; undefined
    1148:	12000200 	and	w0, w16, #0x1
    114c:	00000686 	udf	#1670
    1150:	94060d01 	bl	184554 <thread_list+0xfbb34>
    1154:	00000810 	udf	#2064
    1158:	a0000000 	.inst	0xa0000000 ; undefined
    115c:	00000000 	udf	#0
    1160:	01000000 	.inst	0x01000000 ; undefined
    1164:	7261139c 	.inst	0x7261139c ; undefined
    1168:	0d010067 	.inst	0x0d010067 ; undefined
    116c:	00006011 	udf	#24593
    1170:	78910200 	ldursh	x0, [x16, #-240]
    1174:	017c0000 	.inst	0x017c0000 ; undefined
    1178:	00050000 	.inst	0x00050000 ; undefined
    117c:	05cf0801 	.inst	0x05cf0801 ; undefined
    1180:	22070000 	.inst	0x22070000 ; undefined
    1184:	1d000001 	.inst	0x1d000001 ; undefined
    1188:	000000f5 	udf	#245
    118c:	00000000 	udf	#0
    1190:	00081134 	.inst	0x00081134 ; undefined
    1194:	00000000 	udf	#0
    1198:	000000bc 	udf	#188
    119c:	00000000 	udf	#0
    11a0:	000006cf 	udf	#1743
    11a4:	00005108 	udf	#20744
    11a8:	00003e00 	udf	#15872
    11ac:	00430900 	.inst	0x00430900 ; undefined
    11b0:	003f0000 	.inst	0x003f0000 ; NYI
    11b4:	00002e04 	udf	#11780
    11b8:	07080300 	.inst	0x07080300 ; undefined
    11bc:	0000004c 	udf	#76
    11c0:	51070403 	sub	w3, w0, #0x1c1
    11c4:	04000000 	add	z0.b, p0/m, z0.b, z0.b
    11c8:	0000004a 	udf	#74
    11cc:	0074700a 	.inst	0x0074700a ; undefined
    11d0:	3e1e0402 	.inst	0x3e1e0402 ; undefined
    11d4:	0b000000 	add	w0, w0, w0
    11d8:	004a0407 	.inst	0x004a0407 ; undefined
    11dc:	07020000 	.inst	0x07020000 ; undefined
    11e0:	0000ac0e 	udf	#44046
    11e4:	06e00100 	.inst	0x06e00100 ; undefined
    11e8:	01000000 	.inst	0x01000000 ; undefined
    11ec:	00000797 	udf	#1943
    11f0:	07fa0101 	.inst	0x07fa0101 ; undefined
    11f4:	01020000 	.inst	0x01020000 ; undefined
    11f8:	00000764 	udf	#1892
    11fc:	081d0103 	stxrb	w29, w3, [x8]
    1200:	01040000 	.inst	0x01040000 ; undefined
    1204:	00000827 	udf	#2087
    1208:	080c0105 	stxrb	w12, w5, [x8]
    120c:	01060000 	.inst	0x01060000 ; undefined
    1210:	000007da 	udf	#2010
    1214:	06f60107 	.inst	0x06f60107 ; undefined
    1218:	01080000 	.inst	0x01080000 ; undefined
    121c:	0000073d 	udf	#1853
    1220:	2b0c0009 	adds	w9, w0, w12
    1224:	02000007 	.inst	0x02000007 ; undefined
    1228:	00610312 	.inst	0x00610312 ; undefined
    122c:	a8050000 	stnp	x0, x0, [x0, #80]
    1230:	4a000007 	eor	w7, w0, w0
    1234:	15000000 	b	4001234 <_end+0x160faa4>
    1238:	000000e2 	udf	#226
    123c:	00075102 	.inst	0x00075102 ; undefined
    1240:	00000000 	udf	#0
    1244:	07830280 	.inst	0x07830280 ; undefined
    1248:	00000000 	udf	#0
    124c:	e6024000 	.inst	0xe6024000 ; undefined
    1250:	ff000007 	.inst	0xff000007 ; undefined
    1254:	00400000 	.inst	0x00400000 ; undefined
    1258:	00083405 	.inst	0x00083405 ; undefined
    125c:	00004a00 	udf	#18944
    1260:	01091b00 	.inst	0x01091b00 ; undefined
    1264:	bd010000 	str	s0, [x0, #256]
    1268:	00000007 	udf	#7
    126c:	00070a02 	.inst	0x00070a02 ; undefined
    1270:	00000000 	udf	#0
    1274:	076f0280 	.inst	0x076f0280 ; undefined
    1278:	00010000 	.inst	0x00010000 ; undefined
    127c:	0d008000 	st1	{v0.s}[0], [x0]
    1280:	00000056 	udf	#86
    1284:	09340601 	.inst	0x09340601 ; undefined
    1288:	0888f003 	stlrb	w3, [x0]
    128c:	00000000 	udf	#0
    1290:	01bf0e00 	.inst	0x01bf0e00 ; undefined
    1294:	08030000 	stxrb	w3, w0, [x0]
    1298:	00013205 	.inst	0x00013205 ; undefined
    129c:	00013200 	.inst	0x00013200 ; undefined
    12a0:	01390f00 	.inst	0x01390f00 ; undefined
    12a4:	00100000 	.inst	0x00100000 ; undefined
    12a8:	69050411 	stgp	x17, x1, [x0, #160]
    12ac:	1200746e 	and	w14, w3, #0x3fffffff
    12b0:	00013f08 	.inst	0x00013f08 ; undefined
    12b4:	08010300 	stxrb	w1, w0, [x24]
    12b8:	00000522 	udf	#1314
    12bc:	00071f13 	.inst	0x00071f13 ; undefined
    12c0:	05080100 	.inst	0x05080100 ; undefined
    12c4:	00000132 	udf	#306
    12c8:	00081134 	.inst	0x00081134 ; undefined
    12cc:	00000000 	udf	#0
    12d0:	000000bc 	udf	#188
    12d4:	00000000 	udf	#0
    12d8:	d2069c01 	eor	x1, x0, #0xfc03fc03fc03fc03
    12dc:	23000007 	.inst	0x23000007 ; undefined
    12e0:	000000ac 	udf	#172
    12e4:	067c9102 	.inst	0x067c9102 ; undefined
    12e8:	000001cd 	udf	#461
    12ec:	00004a39 	udf	#19001
    12f0:	78910200 	ldursh	x0, [x16, #-240]
    12f4:	078a0000 	.inst	0x078a0000 ; undefined
    12f8:	00050000 	.inst	0x00050000 ; undefined
    12fc:	06db0801 	.inst	0x06db0801 ; undefined
    1300:	22160000 	.inst	0x22160000 ; undefined
    1304:	1d000001 	.inst	0x1d000001 ; undefined
    1308:	00000107 	udf	#263
    130c:	00000000 	udf	#0
    1310:	000811f0 	.inst	0x000811f0 ; undefined
    1314:	00000000 	udf	#0
    1318:	00000f1c 	udf	#3868
    131c:	00000000 	udf	#0
    1320:	00000771 	udf	#1905
    1324:	0008e60e 	.inst	0x0008e60e ; undefined
    1328:	821a2000 	.inst	0x821a2000 ; undefined
    132c:	06000000 	.inst	0x06000000 ; undefined
    1330:	0000063a 	udf	#1594
    1334:	0082131b 	.inst	0x0082131b ; undefined
    1338:	06000000 	.inst	0x06000000 ; undefined
    133c:	00000617 	udf	#1559
    1340:	0082131c 	.inst	0x0082131c ; undefined
    1344:	0f080000 	.inst	0x0f080000 ; undefined
    1348:	00786469 	.inst	0x00786469 ; undefined
    134c:	0087121d 	.inst	0x0087121d ; undefined
    1350:	06100000 	.inst	0x06100000 ; undefined
    1354:	000005e5 	udf	#1509
    1358:	008e091e 	.inst	0x008e091e ; undefined
    135c:	0f140000 	.inst	0x0f140000 ; undefined
    1360:	006c6176 	.inst	0x006c6176 ; undefined
    1364:	008e091f 	.inst	0x008e091f ; undefined
    1368:	06180000 	.inst	0x06180000 ; undefined
    136c:	000008d4 	udf	#2260
    1370:	008e0920 	.inst	0x008e0920 ; undefined
    1374:	001c0000 	.inst	0x001c0000 ; undefined
    1378:	00002e07 	udf	#11783
    137c:	07040a00 	.inst	0x07040a00 ; undefined
    1380:	00000051 	udf	#81
    1384:	69050417 	stgp	x23, x1, [x0, #160]
    1388:	1000746e 	adr	x14, 2214 <_start-0x7ddec>
    138c:	000008e6 	udf	#2278
    1390:	00002e21 	udf	#11809
    1394:	08710e00 	.inst	0x08710e00 ; undefined
    1398:	31100000 	adds	w0, w0, #0x400
    139c:	000000c3 	udf	#195
    13a0:	00063a06 	.inst	0x00063a06 ; undefined
    13a4:	c3183200 	.inst	0xc3183200 ; undefined
    13a8:	00000000 	udf	#0
    13ac:	00061706 	.inst	0x00061706 ; undefined
    13b0:	c3183300 	.inst	0xc3183300 ; undefined
    13b4:	08000000 	stxrb	w0, w0, [x0]
    13b8:	009f0700 	.inst	0x009f0700 ; undefined
    13bc:	71100000 	subs	w0, w0, #0x400
    13c0:	34000008 	cbz	w8, 13c0 <_start-0x7ec40>
    13c4:	0000009f 	udf	#159
    13c8:	0000d707 	udf	#55047
    13cc:	08010a00 	stxrb	w1, w0, [x16]
    13d0:	00000522 	udf	#1314
    13d4:	2d190818 	stp	s24, s2, [x0, #200]
    13d8:	01000009 	.inst	0x01000009 ; undefined
    13dc:	00d70d05 	.inst	0x00d70d05 ; undefined
    13e0:	37010000 	tbnz	w0, #0, 33e0 <_start-0x7cc20>
    13e4:	06000009 	.inst	0x06000009 ; undefined
    13e8:	0000d20e 	udf	#53774
    13ec:	48030900 	stxrh	w3, w0, [x8]
    13f0:	00000888 	udf	#2184
    13f4:	01000000 	.inst	0x01000000 ; undefined
    13f8:	00000921 	udf	#2337
    13fc:	01160f26 	.inst	0x01160f26 ; undefined
    1400:	03090000 	.inst	0x03090000 ; undefined
    1404:	000889f0 	.inst	0x000889f0 ; undefined
    1408:	00000000 	udf	#0
    140c:	00009507 	udf	#38151
    1410:	09740100 	.inst	0x09740100 ; undefined
    1414:	0f270000 	.inst	0x0f270000 ; undefined
    1418:	00000116 	udf	#278
    141c:	89f80309 	.inst	0x89f80309 ; undefined
    1420:	00000008 	udf	#8
    1424:	f9010000 	str	x0, [x0, #512]
    1428:	28000008 	stnp	w8, w0, [x0]
    142c:	00014514 	.inst	0x00014514 ; undefined
    1430:	00030900 	.inst	0x00030900 ; undefined
    1434:	0000088a 	udf	#2186
    1438:	07000000 	.inst	0x07000000 ; undefined
    143c:	000000c8 	udf	#200
    1440:	0001bf1a 	.inst	0x0001bf1a ; undefined
    1444:	05080300 	.inst	0x05080300 ; undefined
    1448:	0000008e 	udf	#142
    144c:	00000161 	udf	#353
    1450:	0000d21b 	udf	#53787
    1454:	11001c00 	add	w0, w0, #0x7
    1458:	000001d3 	udf	#467
    145c:	1ea0014e 	.inst	0x1ea0014e ; undefined
    1460:	00000008 	udf	#8
    1464:	026c0000 	.inst	0x026c0000 ; undefined
    1468:	00000000 	udf	#0
    146c:	9c010000 	ldr	q0, 346c <_start-0x7cb94>
    1470:	0000023e 	udf	#574
    1474:	000d9212 	.inst	0x000d9212 ; undefined
    1478:	28014e00 	stnp	w0, w19, [x16, #8]
    147c:	0000023e 	udf	#574
    1480:	0b489102 	.inst	0x0b489102 ; undefined
    1484:	00646e65 	.inst	0x00646e65 ; undefined
    1488:	3e42014e 	.inst	0x3e42014e ; undefined
    148c:	02000002 	.inst	0x02000002 ; undefined
    1490:	e8024091 	.inst	0xe8024091 ; undefined
    1494:	0000081e 	udf	#2078
    1498:	14000000 	b	1498 <_start-0x7eb68>
    149c:	00000002 	udf	#2
    14a0:	03000000 	.inst	0x03000000 ; undefined
    14a4:	0000091c 	udf	#2332
    14a8:	8e0e0155 	.inst	0x8e0e0155 ; undefined
    14ac:	02000000 	.inst	0x02000000 ; undefined
    14b0:	f4027c91 	.inst	0xf4027c91 ; undefined
    14b4:	0000081e 	udf	#2078
    14b8:	f0000000 	adrp	x0, 4000 <_start-0x7c000>
    14bc:	00000001 	udf	#1
    14c0:	08000000 	stxrb	w0, w0, [x0]
    14c4:	57007469 	.inst	0x57007469 ; undefined
    14c8:	01161501 	.inst	0x01161501 ; undefined
    14cc:	91020000 	add	x0, x0, #0x80
    14d0:	1f180270 	fmadd	s16, s19, s24, s0
    14d4:	00000008 	udf	#8
    14d8:	01a80000 	.inst	0x01a80000 ; undefined
    14dc:	00000000 	udf	#0
    14e0:	af030000 	.inst	0xaf030000 ; undefined
    14e4:	59000008 	stlurh	w8, [x0]
    14e8:	008e1101 	.inst	0x008e1101 ; undefined
    14ec:	91020000 	add	x0, x0, #0x80
    14f0:	0912036c 	.inst	0x0912036c ; undefined
    14f4:	01590000 	.inst	0x01590000 ; undefined
    14f8:	00008e28 	udf	#36392
    14fc:	68910200 	stgp	x0, x0, [x16], #544
    1500:	081fd802 	stlxrb	wzr, w2, [x0]
    1504:	00000000 	udf	#0
    1508:	0000e800 	udf	#59392
    150c:	00000000 	udf	#0
    1510:	08590300 	ldxrb	w0, [x24]
    1514:	016c0000 	.inst	0x016c0000 ; undefined
    1518:	00011618 	.inst	0x00011618 ; undefined
    151c:	60910200 	.inst	0x60910200 ; undefined
    1520:	706d7408 	adr	x8, dc3a3 <thread_list+0x53983>
    1524:	18017000 	ldr	w0, 4324 <_start-0x7bcdc>
    1528:	00000116 	udf	#278
    152c:	00589102 	.inst	0x00589102 ; undefined
    1530:	00000000 	udf	#0
    1534:	4707080a 	.inst	0x4707080a ; undefined
    1538:	11000000 	add	w0, w0, #0x0
    153c:	00000893 	udf	#2195
    1540:	1e440144 	.inst	0x1e440144 ; undefined
    1544:	00000008 	udf	#8
    1548:	005c0000 	.inst	0x005c0000 ; undefined
    154c:	00000000 	udf	#0
    1550:	9c010000 	ldr	q0, 3550 <_start-0x7cab0>
    1554:	00000281 	udf	#641
    1558:	7274700b 	.inst	0x7274700b ; undefined
    155c:	12014400 	and	w0, w0, #0x8001ffff
    1560:	000000de 	udf	#222
    1564:	03689102 	.inst	0x03689102 ; undefined
    1568:	00000999 	udf	#2457
    156c:	160c0146 	b	fffffffff8301a84 <_end+0xfffffffff59102f4>
    1570:	02000001 	.inst	0x02000001 ; undefined
    1574:	1d007891 	.inst	0x1d007891 ; undefined
    1578:	000008ec 	udf	#2284
    157c:	07013b01 	.inst	0x07013b01 ; undefined
    1580:	000000de 	udf	#222
    1584:	00081e04 	.inst	0x00081e04 ; undefined
    1588:	00000000 	udf	#0
    158c:	00000040 	udf	#64
    1590:	00000000 	udf	#0
    1594:	02c39c01 	.inst	0x02c39c01 ; undefined
    1598:	b5120000 	cbnz	x0, 25598 <_start-0x5aa68>
    159c:	3b00000d 	.inst	0x3b00000d ; undefined
    15a0:	00871c01 	.inst	0x00871c01 ; undefined
    15a4:	91020000 	add	x0, x0, #0x80
    15a8:	08c5036c 	ldlarb	w12, [x27]
    15ac:	013c0000 	.inst	0x013c0000 ; undefined
    15b0:	0000de0b 	udf	#56843
    15b4:	78910200 	ldursh	x0, [x16, #-240]
    15b8:	08f41e00 	.inst	0x08f41e00 ; undefined
    15bc:	2c010000 	stnp	s0, s0, [x0, #8]
    15c0:	1d280601 	.inst	0x1d280601 ; undefined
    15c4:	00000008 	udf	#8
    15c8:	00dc0000 	.inst	0x00dc0000 ; undefined
    15cc:	00000000 	udf	#0
    15d0:	9c010000 	ldr	q0, 35d0 <_start-0x7ca30>
    15d4:	00000331 	udf	#817
    15d8:	081d4802 	stxrb	w29, w2, [x0]
    15dc:	00000000 	udf	#0
    15e0:	0000a400 	udf	#41984
    15e4:	00000000 	udf	#0
    15e8:	00690800 	.inst	0x00690800 ; undefined
    15ec:	8e0e012f 	.inst	0x8e0e012f ; undefined
    15f0:	02000000 	.inst	0x02000000 ; undefined
    15f4:	50027c91 	adr	x17, 6586 <_start-0x79a7a>
    15f8:	0000081d 	udf	#2077
    15fc:	84000000 	ld1sb	{z0.s}, p0/z, [x0, z0.s, uxtw]
    1600:	00000000 	udf	#0
    1604:	08000000 	stxrb	w0, w0, [x0]
    1608:	30007469 	adr	x9, 2495 <_start-0x7db6b>
    160c:	01451501 	.inst	0x01451501 ; undefined
    1610:	91020000 	add	x0, x0, #0x80
    1614:	656c0870 	fmla	z16.h, p2/m, z3.h, z12.h
    1618:	0131006e 	.inst	0x0131006e ; undefined
    161c:	00008e0d 	udf	#36365
    1620:	6c910200 	stp	d0, d0, [x16], #272
    1624:	1f000000 	fmadd	s0, s0, s0, s0
    1628:	0000084c 	udf	#2124
    162c:	06011b01 	.inst	0x06011b01 ; undefined
    1630:	00081c84 	.inst	0x00081c84 ; undefined
    1634:	00000000 	udf	#0
    1638:	000000a4 	udf	#164
    163c:	00000000 	udf	#0
    1640:	037e9c01 	.inst	0x037e9c01 ; undefined
    1644:	700b0000 	adr	x0, 17647 <_start-0x689b9>
    1648:	1b007274 	madd	w20, w19, w0, w28
    164c:	00de1901 	.inst	0x00de1901 ; undefined
    1650:	91020000 	add	x0, x0, #0x80
    1654:	091c0368 	.inst	0x091c0368 ; undefined
    1658:	011d0000 	.inst	0x011d0000 ; undefined
    165c:	00008e09 	udf	#36361
    1660:	7c910200 	.inst	0x7c910200 ; undefined
    1664:	00087703 	.inst	0x00087703 ; undefined
    1668:	11011f00 	add	w0, w24, #0x47
    166c:	00000145 	udf	#325
    1670:	00709102 	.inst	0x00709102 ; undefined
    1674:	00094013 	.inst	0x00094013 ; undefined
    1678:	00defe00 	.inst	0x00defe00 ; undefined
    167c:	1b640000 	.inst	0x1b640000 ; undefined
    1680:	00000008 	udf	#8
    1684:	01200000 	.inst	0x01200000 ; undefined
    1688:	00000000 	udf	#0
    168c:	9c010000 	ldr	q0, 368c <_start-0x7c974>
    1690:	000003e8 	udf	#1000
    1694:	000db505 	.inst	0x000db505 ; undefined
    1698:	8723fe00 	.inst	0x8723fe00 ; undefined
    169c:	02000000 	.inst	0x02000000 ; undefined
    16a0:	84035c91 	ld1b	{z17.s}, p7/z, [x4, z3.s, uxtw]
    16a4:	00000009 	udf	#9
    16a8:	008e0901 	.inst	0x008e0901 ; undefined
    16ac:	91020000 	add	x0, x0, #0x80
    16b0:	091c0378 	.inst	0x091c0378 ; undefined
    16b4:	01050000 	.inst	0x01050000 ; undefined
    16b8:	00008e09 	udf	#36361
    16bc:	7c910200 	.inst	0x7c910200 ; undefined
    16c0:	0008ca03 	.inst	0x0008ca03 ; undefined
    16c4:	0b010f00 	add	w0, w24, w1, lsl #3
    16c8:	000000de 	udf	#222
    16cc:	08709102 	.inst	0x08709102 ; undefined
    16d0:	11007469 	add	w9, w3, #0x1d
    16d4:	01451101 	.inst	0x01451101 ; undefined
    16d8:	91020000 	add	x0, x0, #0x80
    16dc:	4f0c0068 	.inst	0x4f0c0068 ; undefined
    16e0:	e9000009 	.inst	0xe9000009 ; undefined
    16e4:	00081a68 	.inst	0x00081a68 ; undefined
    16e8:	00000000 	udf	#0
    16ec:	000000fc 	udf	#252
    16f0:	00000000 	udf	#0
    16f4:	047b9c01 	lsl	z1.s, z0.s, #27
    16f8:	1c050000 	ldr	s0, b6f8 <_start-0x74908>
    16fc:	e9000009 	.inst	0xe9000009 ; undefined
    1700:	00008e1b 	udf	#36379
    1704:	4c910200 	st4	{v0.16b-v3.16b}, [x16], x17
    1708:	0008c501 	.inst	0x0008c501 ; undefined
    170c:	d20beb00 	eor	x0, x24, #0xeeeeeeeeeeeeeeee
    1710:	02000000 	.inst	0x02000000 ; undefined
    1714:	7c017091 	stur	h17, [x4, #23]
    1718:	ec000008 	.inst	0xec000008 ; undefined
    171c:	0001160c 	.inst	0x0001160c ; undefined
    1720:	68910200 	stgp	x0, x0, [x16], #544
    1724:	00090801 	.inst	0x00090801 ; undefined
    1728:	8e09f000 	.inst	0x8e09f000 ; undefined
    172c:	02000000 	.inst	0x02000000 ; undefined
    1730:	bc026491 	str	s17, [x4], #38
    1734:	0000081a 	udf	#2074
    1738:	98000000 	ldrsw	x0, 1738 <_start-0x7e8c8>
    173c:	00000000 	udf	#0
    1740:	04000000 	add	z0.b, p0/m, z0.b, z0.b
    1744:	0ef10069 	.inst	0x0ef10069 ; undefined
    1748:	0000008e 	udf	#142
    174c:	027c9102 	.inst	0x027c9102 ; undefined
    1750:	00081ac4 	.inst	0x00081ac4 ; undefined
    1754:	00000000 	udf	#0
    1758:	00000074 	udf	#116
    175c:	00000000 	udf	#0
    1760:	00087701 	.inst	0x00087701 ; undefined
    1764:	4515f400 	sli	z0.h, z0.h, #5
    1768:	02000001 	.inst	0x02000001 ; undefined
    176c:	00005891 	udf	#22673
    1770:	096f1400 	.inst	0x096f1400 ; undefined
    1774:	88d80000 	ldlar	w0, [x0]
    1778:	00000819 	udf	#2073
    177c:	e0000000 	ld1b	{za0h.b[w12, 0]}, p0/z, [x0, x0]
    1780:	00000000 	udf	#0
    1784:	01000000 	.inst	0x01000000 ; undefined
    1788:	0004e39c 	.inst	0x0004e39c ; undefined
    178c:	19a80200 	.inst	0x19a80200 ; undefined
    1790:	00000008 	udf	#8
    1794:	00a80000 	.inst	0x00a80000 ; undefined
    1798:	00000000 	udf	#0
    179c:	69040000 	stgp	x0, x0, [x0, #128]
    17a0:	8e0edb00 	.inst	0x8e0edb00 ; undefined
    17a4:	02000000 	.inst	0x02000000 ; undefined
    17a8:	b0027c91 	adrp	x17, 4f92000 <_end+0x25a0870>
    17ac:	00000819 	udf	#2073
    17b0:	88000000 	stxr	w0, w0, [x0]
    17b4:	00000000 	udf	#0
    17b8:	04000000 	add	z0.b, p0/m, z0.b, z0.b
    17bc:	dc007469 	.inst	0xdc007469 ; undefined
    17c0:	00011610 	.inst	0x00011610 ; undefined
    17c4:	70910200 	adr	x0, fffffffffff23807 <_end+0xfffffffffd532077>
    17c8:	6e656c04 	umin	v4.8h, v0.8h, v5.8h
    17cc:	8e0ddd00 	.inst	0x8e0ddd00 ; undefined
    17d0:	02000000 	.inst	0x02000000 ; undefined
    17d4:	00006c91 	udf	#27793
    17d8:	09902000 	.inst	0x09902000 ; undefined
    17dc:	bb010000 	.inst	0xbb010000 ; undefined
    17e0:	00008e05 	udf	#36357
    17e4:	08189800 	stlxrb	w24, w0, [x0]
    17e8:	00000000 	udf	#0
    17ec:	0000f000 	udf	#61440
    17f0:	00000000 	udf	#0
    17f4:	309c0100 	adr	x0, fffffffffff39815 <_end+0xfffffffffd548085>
    17f8:	09000005 	.inst	0x09000005 ; undefined
    17fc:	00727470 	.inst	0x00727470 ; undefined
    1800:	053016bb 	ext	z27.b, z27.b, z21.b, #133
    1804:	91020000 	add	x0, x0, #0x80
    1808:	09650168 	.inst	0x09650168 ; undefined
    180c:	0cbc0000 	.inst	0x0cbc0000 ; undefined
    1810:	00000116 	udf	#278
    1814:	01789102 	.inst	0x01789102 ; undefined
    1818:	00000859 	udf	#2137
    181c:	01160cbe 	.inst	0x01160cbe ; undefined
    1820:	91020000 	add	x0, x0, #0x80
    1824:	16070070 	b	fffffffff81c19e4 <_end+0xfffffffff57d0254>
    1828:	0c000001 	st4	{v1.8b-v4.8b}, [x0]
    182c:	00000899 	udf	#2201
    1830:	081810a7 	stxrb	w24, w7, [x5]
    1834:	00000000 	udf	#0
    1838:	00008800 	udf	#34816
    183c:	00000000 	udf	#0
    1840:	6e9c0100 	.inst	0x6e9c0100 ; undefined
    1844:	09000005 	.inst	0x09000005 ; undefined
    1848:	00727470 	.inst	0x00727470 ; undefined
    184c:	00de16a7 	.inst	0x00de16a7 ; undefined
    1850:	91020000 	add	x0, x0, #0x80
    1854:	09600168 	.inst	0x09600168 ; undefined
    1858:	0ca90000 	.inst	0x0ca90000 ; undefined
    185c:	00000116 	udf	#278
    1860:	00789102 	.inst	0x00789102 ; undefined
    1864:	00085f0c 	.inst	0x00085f0c ; undefined
    1868:	17349300 	b	fffffffffcd26468 <_end+0xfffffffffa334cd8>
    186c:	00000008 	udf	#8
    1870:	00dc0000 	.inst	0x00dc0000 ; undefined
    1874:	00000000 	udf	#0
    1878:	9c010000 	ldr	q0, 3878 <_start-0x7c788>
    187c:	000005c7 	udf	#1479
    1880:	00088e05 	.inst	0x00088e05 ; undefined
    1884:	161f9300 	b	fffffffff87e6484 <_end+0xfffffffff5df4cf4>
    1888:	02000001 	.inst	0x02000001 ; undefined
    188c:	b5056891 	cbnz	x17, c59c <_start-0x73a64>
    1890:	9300000d 	.inst	0x9300000d ; undefined
    1894:	00008732 	udf	#34610
    1898:	64910200 	fcmla	z0.s, p0/m, z16.s, z17.s, #0
    189c:	08174802 	stxrb	w23, w2, [x0]
    18a0:	00000000 	udf	#0
    18a4:	00008800 	udf	#34816
    18a8:	00000000 	udf	#0
    18ac:	08590100 	ldxrb	w0, [x8]
    18b0:	109a0000 	adr	x0, fffffffffff358b0 <_end+0xfffffffffd544120>
    18b4:	00000116 	udf	#278
    18b8:	00789102 	.inst	0x00789102 ; undefined
    18bc:	08a31300 	.inst	0x08a31300 ; undefined
    18c0:	de620000 	.inst	0xde620000 ; undefined
    18c4:	c8000000 	stxr	w0, x0, [x0]
    18c8:	00000815 	udf	#2069
    18cc:	6c000000 	stnp	d0, d0, [x0]
    18d0:	00000001 	udf	#1
    18d4:	01000000 	.inst	0x01000000 ; undefined
    18d8:	0006509c 	.inst	0x0006509c ; undefined
    18dc:	0db50500 	st2	{v0.b, v1.b}[1], [x8], x21
    18e0:	20620000 	.inst	0x20620000 ; undefined
    18e4:	00000087 	udf	#135
    18e8:	015c9102 	.inst	0x015c9102 ; undefined
    18ec:	000008df 	udf	#2271
    18f0:	008e0964 	.inst	0x008e0964 ; undefined
    18f4:	91020000 	add	x0, x0, #0x80
    18f8:	08bb0170 	.inst	0x08bb0170 ; undefined
    18fc:	0b680000 	.inst	0x0b680000 ; undefined
    1900:	000000de 	udf	#222
    1904:	02789102 	.inst	0x02789102 ; undefined
    1908:	00081604 	.inst	0x00081604 ; undefined
    190c:	00000000 	udf	#0
    1910:	00000124 	udf	#292
    1914:	00000000 	udf	#0
    1918:	6b006904 	subs	w4, w8, w0, lsl #26
    191c:	00008e0e 	udf	#36366
    1920:	74910200 	.inst	0x74910200 ; undefined
    1924:	08167c02 	stxrb	w22, w2, [x0]
    1928:	00000000 	udf	#0
    192c:	00009c00 	udf	#39936
    1930:	00000000 	udf	#0
    1934:	088e0100 	stllrb	w0, [x8]
    1938:	14750000 	b	1d41938 <_heap_stack_size+0x1541938>
    193c:	00000116 	udf	#278
    1940:	00689102 	.inst	0x00689102 ; undefined
    1944:	8b140000 	add	x0, x0, x20
    1948:	32000006 	orr	w6, w0, #0x1
    194c:	000812c0 	.inst	0x000812c0 ; undefined
    1950:	00000000 	udf	#0
    1954:	00000308 	udf	#776
    1958:	00000000 	udf	#0
    195c:	06f19c01 	.inst	0x06f19c01 ; undefined
    1960:	e00d0000 	ld1b	{za0h.b[w12, 0]}, p0/z, [x0, x13]
    1964:	00000812 	udf	#2066
    1968:	04000000 	add	z0.b, p0/m, z0.b, z0.b
    196c:	00000001 	udf	#1
    1970:	8e000000 	.inst	0x8e000000 ; undefined
    1974:	04000006 	add	z6.b, p0/m, z6.b, z0.b
    1978:	0e350069 	saddl	v9.8h, v3.8b, v21.8b
    197c:	0000008e 	udf	#142
    1980:	007c9102 	.inst	0x007c9102 ; undefined
    1984:	0813fc0d 	stlxrb	w19, w13, [x0]
    1988:	00000000 	udf	#0
    198c:	0000a800 	udf	#43008
    1990:	00000000 	udf	#0
    1994:	0006b000 	.inst	0x0006b000 ; undefined
    1998:	00690400 	.inst	0x00690400 ; undefined
    199c:	008e0e40 	.inst	0x008e0e40 ; undefined
    19a0:	91020000 	add	x0, x0, #0x80
    19a4:	a40d0078 	ld1rqb	{z24.b}, p0/z, [x3, x13]
    19a8:	00000814 	udf	#2068
    19ac:	74000000 	.inst	0x74000000 ; undefined
    19b0:	00000000 	udf	#0
    19b4:	d2000000 	eor	x0, x0, #0x100000001
    19b8:	04000006 	add	z6.b, p0/m, z6.b, z0.b
    19bc:	0e460069 	.inst	0x0e460069 ; undefined
    19c0:	0000008e 	udf	#142
    19c4:	00749102 	.inst	0x00749102 ; undefined
    19c8:	08153002 	stxrb	w21, w2, [x0]
    19cc:	00000000 	udf	#0
    19d0:	00008800 	udf	#34816
    19d4:	00000000 	udf	#0
    19d8:	00690400 	.inst	0x00690400 ; undefined
    19dc:	008e0e4d 	.inst	0x008e0e4d ; undefined
    19e0:	91020000 	add	x0, x0, #0x80
    19e4:	15000070 	b	4001ba4 <_end+0x1610414>
    19e8:	00000881 	udf	#2177
    19ec:	08126c2a 	stxrb	w18, w10, [x1]
    19f0:	00000000 	udf	#0
    19f4:	00005400 	udf	#21504
    19f8:	00000000 	udf	#0
    19fc:	299c0100 	stp	w0, w0, [x8, #224]!
    1a00:	05000007 	orr	z7.s, z7.s, #0x1
    1a04:	0000088e 	udf	#2190
    1a08:	01161f2a 	.inst	0x01161f2a ; undefined
    1a0c:	91020000 	add	x0, x0, #0x80
    1a10:	74690978 	.inst	0x74690978 ; undefined
    1a14:	162c2a00 	b	fffffffff8b0c214 <_end+0xfffffffff611aa84>
    1a18:	02000001 	.inst	0x02000001 ; undefined
    1a1c:	15007091 	b	401dc60 <_end+0x162c4d0>
    1a20:	00000854 	udf	#2132
    1a24:	0812581d 	stxrb	w18, w29, [x0]
    1a28:	00000000 	udf	#0
    1a2c:	00001400 	udf	#5120
    1a30:	00000000 	udf	#0
    1a34:	549c0100 	b.eq	fffffffffff39a54 <_end+0xfffffffffd5482c4>  // b.none
    1a38:	09000007 	.inst	0x09000007 ; undefined
    1a3c:	00727470 	.inst	0x00727470 ; undefined
    1a40:	00de111d 	.inst	0x00de111d ; undefined
    1a44:	91020000 	add	x0, x0, #0x80
    1a48:	7a210078 	.inst	0x7a210078 ; undefined
    1a4c:	0100000c 	.inst	0x0100000c ; undefined
    1a50:	00de0709 	.inst	0x00de0709 ; undefined
    1a54:	11f00000 	.inst	0x11f00000 ; undefined
    1a58:	00000008 	udf	#8
    1a5c:	00680000 	.inst	0x00680000 ; undefined
    1a60:	00000000 	udf	#0
    1a64:	9c010000 	ldr	q0, 3a64 <_start-0x7c59c>
    1a68:	000db505 	.inst	0x000db505 ; undefined
    1a6c:	87220900 	.inst	0x87220900 ; undefined
    1a70:	02000000 	.inst	0x02000000 ; undefined
    1a74:	72046c91 	ands	w17, w4, #0xf0ffffff
    1a78:	d20b1100 	eor	x0, x8, #0x3e0000003e00000
    1a7c:	02000000 	.inst	0x02000000 ; undefined
    1a80:	00007891 	udf	#30865
    1a84:	00001031 	udf	#4145
    1a88:	08010005 	stxrb	w1, w5, [x0]
    1a8c:	00000952 	udf	#2386
    1a90:	00012227 	.inst	0x00012227 ; undefined
    1a94:	01141d00 	.inst	0x01141d00 ; undefined
    1a98:	00000000 	udf	#0
    1a9c:	210c0000 	.inst	0x210c0000 ; undefined
    1aa0:	00000008 	udf	#8
    1aa4:	10c40000 	adr	x0, fffffffffff89aa4 <_end+0xfffffffffd598314>
    1aa8:	00000000 	udf	#0
    1aac:	0e350000 	saddl	v0.8h, v0.8b, v21.8b
    1ab0:	041e0000 	.inst	0x041e0000 ; undefined
    1ab4:	0000000d 	udf	#13
    1ab8:	56080201 	.inst	0x56080201 ; undefined
    1abc:	03000000 	.inst	0x03000000 ; undefined
    1ac0:	00000aa7 	udf	#2727
    1ac4:	560a0902 	.inst	0x560a0902 ; undefined
    1ac8:	00000000 	udf	#0
    1acc:	000a3703 	.inst	0x000a3703 ; undefined
    1ad0:	0a0a0200 	and	w0, w16, w10
    1ad4:	00000056 	udf	#86
    1ad8:	6d100080 	stp	d0, d0, [x4, #256]
    1adc:	66000000 	.inst	0x66000000 ; undefined
    1ae0:	11000000 	add	w0, w0, #0x0
    1ae4:	00000066 	udf	#102
    1ae8:	080e007f 	stxrb	w14, wzr, [x3]
    1aec:	00004c07 	udf	#19463
    1af0:	08010e00 	stxrb	w1, w0, [x16]
    1af4:	00000522 	udf	#1314
    1af8:	00006d1f 	udf	#27935
    1afc:	00172000 	.inst	0x00172000 ; undefined
    1b00:	036e0000 	.inst	0x036e0000 ; undefined
    1b04:	013d080f 	.inst	0x013d080f ; undefined
    1b08:	28030000 	stnp	w0, w0, [x0, #24]
    1b0c:	03000000 	.inst	0x03000000 ; undefined
    1b10:	013d0710 	.inst	0x013d0710 ; undefined
    1b14:	03000000 	.inst	0x03000000 ; undefined
    1b18:	000000c0 	udf	#192
    1b1c:	4d071103 	.inst	0x4d071103 ; undefined
    1b20:	06000001 	.inst	0x06000001 ; undefined
    1b24:	0000dd03 	udf	#56579
    1b28:	07120300 	.inst	0x07120300 ; undefined
    1b2c:	0000014d 	udf	#333
    1b30:	0008030e 	.inst	0x0008030e ; undefined
    1b34:	13030000 	sbfiz	w0, w0, #29, #1
    1b38:	00014d07 	.inst	0x00014d07 ; undefined
    1b3c:	f8031600 	str	x0, [x16], #49
    1b40:	03000000 	.inst	0x03000000 ; undefined
    1b44:	014d0714 	.inst	0x014d0714 ; undefined
    1b48:	031e0000 	.inst	0x031e0000 ; undefined
    1b4c:	000000fe 	udf	#254
    1b50:	4d071503 	.inst	0x4d071503 ; undefined
    1b54:	26000001 	.inst	0x26000001 ; undefined
    1b58:	00000003 	udf	#3
    1b5c:	07160300 	.inst	0x07160300 ; undefined
    1b60:	0000014d 	udf	#333
    1b64:	005e032e 	.inst	0x005e032e ; undefined
    1b68:	17030000 	b	fffffffffc0c1b68 <_end+0xfffffffff96d03d8>
    1b6c:	00014d07 	.inst	0x00014d07 ; undefined
    1b70:	92033600 	and	x0, x16, #0xe00007ffe00007ff
    1b74:	03000000 	.inst	0x03000000 ; undefined
    1b78:	014d0718 	.inst	0x014d0718 ; undefined
    1b7c:	033e0000 	.inst	0x033e0000 ; undefined
    1b80:	0000003c 	udf	#60
    1b84:	4d071903 	.inst	0x4d071903 ; undefined
    1b88:	46000001 	.inst	0x46000001 ; undefined
    1b8c:	00003003 	udf	#12291
    1b90:	071a0300 	.inst	0x071a0300 ; undefined
    1b94:	0000014d 	udf	#333
    1b98:	00e4034e 	.inst	0x00e4034e ; undefined
    1b9c:	1b030000 	madd	w0, w0, w3, w0
    1ba0:	00014d07 	.inst	0x00014d07 ; undefined
    1ba4:	b5035600 	cbnz	x0, 8664 <_start-0x7799c>
    1ba8:	03000000 	.inst	0x03000000 ; undefined
    1bac:	014d071c 	.inst	0x014d071c ; undefined
    1bb0:	035e0000 	.inst	0x035e0000 ; undefined
    1bb4:	0000011a 	udf	#282
    1bb8:	4d071d03 	.inst	0x4d071d03 ; undefined
    1bbc:	66000001 	.inst	0x66000001 ; undefined
    1bc0:	006d1000 	.inst	0x006d1000 ; undefined
    1bc4:	014d0000 	.inst	0x014d0000 ; undefined
    1bc8:	66110000 	.inst	0x66110000 ; undefined
    1bcc:	05000000 	orr	z0.s, z0.s, #0x1
    1bd0:	006d1000 	.inst	0x006d1000 ; undefined
    1bd4:	015d0000 	.inst	0x015d0000 ; undefined
    1bd8:	66110000 	.inst	0x66110000 ; undefined
    1bdc:	07000000 	.inst	0x07000000 ; undefined
    1be0:	031c1400 	.inst	0x031c1400 ; undefined
    1be4:	0f040000 	.inst	0x0f040000 ; undefined
    1be8:	00016910 	.inst	0x00016910 ; undefined
    1bec:	016e0500 	.inst	0x016e0500 ; undefined
    1bf0:	88280000 	stxp	w8, w0, w0, [x0]
    1bf4:	01000001 	.inst	0x01000001 ; undefined
    1bf8:	00000188 	udf	#392
    1bfc:	00019401 	.inst	0x00019401 ; undefined
    1c00:	01990100 	.inst	0x01990100 ; undefined
    1c04:	88010000 	stxr	w1, w0, [x0]
    1c08:	00000001 	udf	#1
    1c0c:	5107040e 	sub	w14, w0, #0x1c1
    1c10:	21000000 	.inst	0x21000000 ; undefined
    1c14:	00000188 	udf	#392
    1c18:	00006d05 	udf	#27909
    1c1c:	0e082900 	trn1	v0.8b, v8.8b, v8.8b
    1c20:	00470708 	.inst	0x00470708 ; undefined
    1c24:	8f100000 	.inst	0x8f100000 ; undefined
    1c28:	b2000001 	orr	x1, x0, #0x100000001
    1c2c:	11000001 	add	w1, w0, #0x0
    1c30:	00000066 	udf	#102
    1c34:	a221003f 	.inst	0xa221003f ; undefined
    1c38:	2a000001 	orr	w1, w0, w0
    1c3c:	05007470 	orr	z16.h, z16.h, #0x3c
    1c40:	01b21e04 	.inst	0x01b21e04 ; undefined
    1c44:	88220000 	stxp	w2, w0, w0, [x0]
    1c48:	07000001 	.inst	0x07000001 ; undefined
    1c4c:	00000209 	udf	#521
    1c50:	0006e008 	.inst	0x0006e008 ; undefined
    1c54:	97080000 	bl	fffffffffc201c54 <_end+0xfffffffff98104c4>
    1c58:	01000007 	.inst	0x01000007 ; undefined
    1c5c:	0007fa08 	.inst	0x0007fa08 ; undefined
    1c60:	64080200 	.inst	0x64080200 ; undefined
    1c64:	03000007 	.inst	0x03000007 ; undefined
    1c68:	00081d08 	.inst	0x00081d08 ; undefined
    1c6c:	27080400 	.inst	0x27080400 ; undefined
    1c70:	05000008 	orr	z8.s, z8.s, #0x1
    1c74:	00080c08 	.inst	0x00080c08 ; undefined
    1c78:	da080600 	.inst	0xda080600 ; undefined
    1c7c:	07000007 	.inst	0x07000007 ; undefined
    1c80:	0006f608 	.inst	0x0006f608 ; undefined
    1c84:	3d080800 	str	b0, [x0, #514]
    1c88:	09000007 	.inst	0x09000007 ; undefined
    1c8c:	072b1400 	.inst	0x072b1400 ; undefined
    1c90:	12050000 	and	w0, w0, #0x8000000
    1c94:	0001c203 	.inst	0x0001c203 ; undefined
    1c98:	08342b00 	.inst	0x08342b00 ; undefined
    1c9c:	04070000 	.inst	0x04070000 ; undefined
    1ca0:	00000188 	udf	#392
    1ca4:	40061b05 	.inst	0x40061b05 ; undefined
    1ca8:	08000002 	stxrb	w0, w2, [x0]
    1cac:	000007bd 	udf	#1981
    1cb0:	070a0d00 	.inst	0x070a0d00 ; undefined
    1cb4:	00000000 	udf	#0
    1cb8:	6f0d8000 	.inst	0x6f0d8000 ; undefined
    1cbc:	01000007 	.inst	0x01000007 ; undefined
    1cc0:	00800000 	.inst	0x00800000 ; undefined
    1cc4:	00018822 	.inst	0x00018822 ; undefined
    1cc8:	02902300 	.inst	0x02902300 ; undefined
    1ccc:	ca080000 	eor	x0, x0, x8
    1cd0:	0100000c 	.inst	0x0100000c ; undefined
    1cd4:	000a740d 	.inst	0x000a740d ; undefined
    1cd8:	01000100 	.inst	0x01000100 ; undefined
    1cdc:	0ce80d00 	.inst	0x0ce80d00 ; undefined
    1ce0:	00020000 	.inst	0x00020000 ; undefined
    1ce4:	c90d0001 	.inst	0xc90d0001 ; undefined
    1ce8:	0300000b 	.inst	0x0300000b ; undefined
    1cec:	0d000100 	st1	{v0.b}[0], [x8]
    1cf0:	00000a4f 	udf	#2639
    1cf4:	00010004 	.inst	0x00010004 ; undefined
    1cf8:	000ca30d 	.inst	0x000ca30d ; undefined
    1cfc:	01000500 	.inst	0x01000500 ; undefined
    1d00:	09b00d00 	.inst	0x09b00d00 ; undefined
    1d04:	00060000 	.inst	0x00060000 ; undefined
    1d08:	c70d0001 	.inst	0xc70d0001 ; undefined
    1d0c:	07000009 	.inst	0x07000009 ; undefined
    1d10:	00000100 	udf	#256
    1d14:	6905042c 	stgp	x12, x1, [x1, #160]
    1d18:	0e00746e 	.inst	0x0e00746e ; undefined
    1d1c:	04550508 	.inst	0x04550508 ; undefined
    1d20:	b2140000 	orr	x0, x0, #0x100000001000
    1d24:	06000003 	.inst	0x06000003 ; undefined
    1d28:	006617d1 	.inst	0x006617d1 ; undefined
    1d2c:	080e0000 	stxrb	w14, w0, [x0]
    1d30:	00045005 	.inst	0x00045005 ; undefined
    1d34:	04100e00 	mul	z0.b, p3/m, z0.b, z16.b
    1d38:	000004e9 	udf	#1257
    1d3c:	0003d120 	.inst	0x0003d120 ; undefined
    1d40:	09076800 	.inst	0x09076800 ; undefined
    1d44:	00035f10 	.inst	0x00035f10 ; undefined
    1d48:	31780400 	adds	w0, w0, #0xe01, lsl #12
    1d4c:	130d0039 	sbfiz	w25, w1, #19, #1
    1d50:	00000066 	udf	#102
    1d54:	32780400 	.inst	0x32780400 ; undefined
    1d58:	130e0030 	sbfiz	w16, w1, #18, #1
    1d5c:	00000066 	udf	#102
    1d60:	32780408 	.inst	0x32780408 ; undefined
    1d64:	130f0031 	sbfiz	w17, w1, #17, #1
    1d68:	00000066 	udf	#102
    1d6c:	32780410 	.inst	0x32780410 ; undefined
    1d70:	13100032 	sbfiz	w18, w1, #16, #1
    1d74:	00000066 	udf	#102
    1d78:	32780418 	.inst	0x32780418 ; undefined
    1d7c:	13110033 	sbfiz	w19, w1, #15, #1
    1d80:	00000066 	udf	#102
    1d84:	32780420 	.inst	0x32780420 ; undefined
    1d88:	13120034 	sbfiz	w20, w1, #14, #1
    1d8c:	00000066 	udf	#102
    1d90:	32780428 	.inst	0x32780428 ; undefined
    1d94:	13130035 	sbfiz	w21, w1, #13, #1
    1d98:	00000066 	udf	#102
    1d9c:	32780430 	.inst	0x32780430 ; undefined
    1da0:	13140036 	sbfiz	w22, w1, #12, #1
    1da4:	00000066 	udf	#102
    1da8:	32780438 	.inst	0x32780438 ; undefined
    1dac:	13150037 	sbfiz	w23, w1, #11, #1
    1db0:	00000066 	udf	#102
    1db4:	32780440 	.inst	0x32780440 ; undefined
    1db8:	13160038 	sbfiz	w24, w1, #10, #1
    1dbc:	00000066 	udf	#102
    1dc0:	70660448 	adr	x8, cde4b <thread_list+0x4542b>
    1dc4:	66131800 	.inst	0x66131800 ; undefined
    1dc8:	50000000 	adr	x0, 1dca <_start-0x7e236>
    1dcc:	00726c04 	.inst	0x00726c04 ; undefined
    1dd0:	00661319 	.inst	0x00661319 ; undefined
    1dd4:	04580000 	orr	z0.h, p0/m, z0.h, z0.h
    1dd8:	1a007073 	.inst	0x1a007073 ; undefined
    1ddc:	00006613 	udf	#26131
    1de0:	14006000 	b	19de0 <_start-0x66220>
    1de4:	000003d1 	udf	#977
    1de8:	b8031b07 	sttr	w7, [x24, #49]
    1dec:	1e000002 	.inst	0x1e000002 ; undefined
    1df0:	00000e1b 	udf	#3611
    1df4:	1d070430 	cpyp	[x16]!, [x7]!, x1!
    1df8:	0000043b 	udf	#1083
    1dfc:	0003d803 	.inst	0x0003d803 ; undefined
    1e00:	141e0700 	b	783a00 <_bss_size+0x356818>
    1e04:	0000035f 	udf	#863
    1e08:	063a0300 	.inst	0x063a0300 ; undefined
    1e0c:	1f070000 	fmadd	s0, s0, s7, s0
    1e10:	00043b14 	.inst	0x00043b14 ; undefined
    1e14:	17036800 	b	fffffffffc0dbe14 <_end+0xfffffffff96ea684>
    1e18:	07000006 	.inst	0x07000006 ; undefined
    1e1c:	043b1420 	uqadd	z0.b, z1.b, z27.b
    1e20:	04700000 	add	z0.h, z0.h, z16.h
    1e24:	00646970 	.inst	0x00646970 ; undefined
    1e28:	02900921 	.inst	0x02900921 ; undefined
    1e2c:	03780000 	.inst	0x03780000 ; undefined
    1e30:	00000847 	udf	#2119
    1e34:	940b2207 	bl	2ca650 <thread_list+0x241c30>
    1e38:	80000001 	.inst	0x80000001 ; undefined
    1e3c:	0003fd03 	.inst	0x0003fd03 ; undefined
    1e40:	12230700 	and	w0, w24, #0x60000000
    1e44:	00000188 	udf	#392
    1e48:	05e30388 	.inst	0x05e30388 ; undefined
    1e4c:	24070000 	cmphs	p0.b, p0/z, z0.b, z7.b
    1e50:	00029009 	.inst	0x00029009 ; undefined
    1e54:	a9038c00 	stp	x0, x3, [x0, #56]
    1e58:	07000003 	.inst	0x07000003 ; undefined
    1e5c:	02900925 	.inst	0x02900925 ; undefined
    1e60:	03900000 	.inst	0x03900000 ; undefined
    1e64:	00000496 	udf	#1174
    1e68:	940b2607 	bl	2cb684 <thread_list+0x242c64>
    1e6c:	98000001 	ldrsw	x1, 1e6c <_start-0x7e194>
    1e70:	00062903 	.inst	0x00062903 ; undefined
    1e74:	0b270700 	add	w0, w24, w7, uxtb #1
    1e78:	00000194 	udf	#404
    1e7c:	05d303a0 	mov	z0.d, p3/z, #29
    1e80:	29070000 	stp	w0, w0, [x0, #56]
    1e84:	00044009 	.inst	0x00044009 ; undefined
    1e88:	bb16a800 	.inst	0xbb16a800 ; undefined
    1e8c:	2a000005 	orr	w5, w0, w0
    1e90:	0004500c 	.inst	0x0004500c ; undefined
    1e94:	1601b000 	b	fffffffff806de94 <_end+0xfffffffff567c704>
    1e98:	000005b6 	udf	#1462
    1e9c:	04600c2b 	.inst	0x04600c2b ; undefined
    1ea0:	03b80000 	.inst	0x03b80000 ; undefined
    1ea4:	00046816 	.inst	0x00046816 ; undefined
    1ea8:	90092c00 	adrp	x0, 12581000 <_end+0xfb8f870>
    1eac:	c0000002 	mov	za0h.b[w12, 2], p0/m, z0.b
    1eb0:	05401603 	eor	z3.b, z3.b, #0x40
    1eb4:	142d0000 	b	b41eb4 <_heap_stack_size+0x341eb4>
    1eb8:	0000035f 	udf	#863
    1ebc:	050003c8 	orr	z8.s, z8.s, #0x7fffffff
    1ec0:	0000036b 	udf	#875
    1ec4:	00029010 	.inst	0x00029010 ; undefined
    1ec8:	00045000 	.inst	0x00045000 ; undefined
    1ecc:	00661100 	.inst	0x00661100 ; undefined
    1ed0:	00400000 	.inst	0x00400000 ; undefined
    1ed4:	00046010 	.inst	0x00046010 ; undefined
    1ed8:	00046000 	.inst	0x00046000 ; undefined
    1edc:	00661100 	.inst	0x00661100 ; undefined
    1ee0:	00400000 	.inst	0x00400000 ; undefined
    1ee4:	00046505 	.inst	0x00046505 ; undefined
    1ee8:	046c2d00 	.inst	0x046c2d00 ; undefined
    1eec:	00120000 	.inst	0x00120000 ; undefined
    1ef0:	000e1b14 	.inst	0x000e1b14 ; undefined
    1ef4:	032e0700 	.inst	0x032e0700 ; undefined
    1ef8:	0000036b 	udf	#875
    1efc:	0002c823 	.inst	0x0002c823 ; undefined
    1f00:	940e0e00 	bl	385700 <thread_list+0x2fcce0>
    1f04:	23000001 	.inst	0x23000001 ; undefined
    1f08:	00000b37 	udf	#2871
    1f0c:	02900c0f 	.inst	0x02900c0f ; undefined
    1f10:	d0180000 	adrp	x0, 30003000 <_end+0x2d611870>
    1f14:	11000002 	add	w2, w0, #0x0
    1f18:	00019907 	.inst	0x00019907 ; undefined
    1f1c:	08030900 	stxrb	w3, w0, [x8]
    1f20:	0000088a 	udf	#2186
    1f24:	18000000 	ldr	w0, 1f24 <_start-0x7e0dc>
    1f28:	00000377 	udf	#887
    1f2c:	01990712 	.inst	0x01990712 ; undefined
    1f30:	03090000 	.inst	0x03090000 ; undefined
    1f34:	00088a10 	.inst	0x00088a10 ; undefined
    1f38:	00000000 	udf	#0
    1f3c:	00002e10 	udf	#11792
    1f40:	0004c800 	.inst	0x0004c800 ; undefined
    1f44:	00661100 	.inst	0x00661100 ; undefined
    1f48:	000e0000 	.inst	0x000e0000 ; undefined
    1f4c:	000aeb18 	.inst	0x000aeb18 ; undefined
    1f50:	b8111400 	str	w0, [x0], #-239
    1f54:	09000004 	.inst	0x09000004 ; undefined
    1f58:	0878a803 	.inst	0x0878a803 ; undefined
    1f5c:	00000000 	udf	#0
    1f60:	0a970b00 	and	w0, w24, w23, asr #2
    1f64:	3e070000 	.inst	0x3e070000 ; undefined
    1f68:	000004ee 	udf	#1262
    1f6c:	0004ee01 	.inst	0x0004ee01 ; undefined
    1f70:	6c050000 	stnp	d0, d0, [x0, #80]
    1f74:	19000004 	stlurb	w4, [x0]
    1f78:	00000c58 	udf	#3160
    1f7c:	ee103107 	.inst	0xee103107 ; undefined
    1f80:	05000004 	orr	z4.s, z4.s, #0x1
    1f84:	12000005 	and	w5, w0, #0x1
    1f88:	0b992e00 	add	w0, w16, w25, asr #11
    1f8c:	38070000 	sturb	w0, [x0, #112]
    1f90:	00051306 	.inst	0x00051306 ; undefined
    1f94:	2f001200 	.inst	0x2f001200 ; undefined
    1f98:	006f6f66 	.inst	0x006f6f66 ; undefined
    1f9c:	21063d07 	.inst	0x21063d07 ; undefined
    1fa0:	12000005 	and	w5, w0, #0x1
    1fa4:	0c4a0c00 	.inst	0x0c4a0c00 ; undefined
    1fa8:	36070000 	tbz	w0, #0, ffffffffffffffa8 <_end+0xfffffffffd60e818>
    1fac:	0004ee09 	.inst	0x0004ee09 ; undefined
    1fb0:	00053700 	.inst	0x00053700 ; undefined
    1fb4:	01990100 	.inst	0x01990100 ; undefined
    1fb8:	0b000000 	add	w0, w0, w0
    1fbc:	00000893 	udf	#2195
    1fc0:	05480a08 	.inst	0x05480a08 ; undefined
    1fc4:	99010000 	stlur	w0, [x0, #16]
    1fc8:	00000001 	udf	#1
    1fcc:	0008ec0c 	.inst	0x0008ec0c ; undefined
    1fd0:	07090800 	.inst	0x07090800 ; undefined
    1fd4:	00000199 	udf	#409
    1fd8:	0000055e 	udf	#1374
    1fdc:	00018801 	.inst	0x00018801 ; undefined
    1fe0:	930b0000 	.inst	0x930b0000 ; undefined
    1fe4:	0900000c 	.inst	0x0900000c ; undefined
    1fe8:	00056f18 	.inst	0x00056f18 ; undefined
    1fec:	01940100 	.inst	0x01940100 ; undefined
    1ff0:	0b000000 	add	w0, w0, w0
    1ff4:	00000a1a 	udf	#2586
    1ff8:	058a1309 	.inst	0x058a1309 ; undefined
    1ffc:	99010000 	stlur	w0, [x0, #16]
    2000:	01000001 	.inst	0x01000001 ; undefined
    2004:	00000194 	udf	#404
    2008:	00019b01 	.inst	0x00019b01 ; undefined
    200c:	a3190000 	.inst	0xa3190000 ; undefined
    2010:	09000009 	.inst	0x09000009 ; undefined
    2014:	02aa0f19 	.inst	0x02aa0f19 ; undefined
    2018:	059c0000 	mov	z0.s, p12/z, #0
    201c:	00120000 	.inst	0x00120000 ; undefined
    2020:	000a3c0c 	.inst	0x000a3c0c ; undefined
    2024:	070c0a00 	.inst	0x070c0a00 ; undefined
    2028:	00000194 	udf	#404
    202c:	000005bc 	udf	#1468
    2030:	00019901 	.inst	0x00019901 ; undefined
    2034:	05bc0100 	zip1	z0.q, z8.q, z28.q
    2038:	9b010000 	madd	x0, x0, x1, x0
    203c:	00000001 	udf	#1
    2040:	0005c105 	.inst	0x0005c105 ; undefined
    2044:	7a0c3000 	.inst	0x7a0c3000 ; undefined
    2048:	0800000c 	stxrb	w0, w12, [x0]
    204c:	01990705 	.inst	0x01990705 ; undefined
    2050:	05d80000 	mov	z0.d, p8/z, #0
    2054:	88010000 	stxr	w1, w0, [x0]
    2058:	00000001 	udf	#1
    205c:	0004a50b 	.inst	0x0004a50b ; undefined
    2060:	e90b0b00 	.inst	0xe90b0b00 ; undefined
    2064:	01000005 	.inst	0x01000005 ; undefined
    2068:	00000188 	udf	#392
    206c:	071f0c00 	.inst	0x071f0c00 ; undefined
    2070:	35050000 	cbnz	w0, c070 <_start-0x73f90>
    2074:	00029005 	.inst	0x00029005 ; undefined
    2078:	00060400 	.inst	0x00060400 ; undefined
    207c:	02090100 	.inst	0x02090100 ; undefined
    2080:	88010000 	stxr	w1, w0, [x0]
    2084:	00000001 	udf	#1
    2088:	0001f00b 	.inst	0x0001f00b ; undefined
    208c:	24150400 	cmphs	p0.b, p1/z, z0.b, z21.b
    2090:	01000006 	.inst	0x01000006 ; undefined
    2094:	00000188 	udf	#392
    2098:	00019401 	.inst	0x00019401 ; undefined
    209c:	01990100 	.inst	0x01990100 ; undefined
    20a0:	88010000 	stxr	w1, w0, [x0]
    20a4:	00000001 	udf	#1
    20a8:	0002ed0b 	.inst	0x0002ed0b ; undefined
    20ac:	3a140400 	.inst	0x3a140400 ; undefined
    20b0:	01000006 	.inst	0x01000006 ; undefined
    20b4:	00000199 	udf	#409
    20b8:	00015d01 	.inst	0x00015d01 ; undefined
    20bc:	4b0b0000 	sub	w0, w0, w11
    20c0:	0b00000b 	add	w11, w0, w0
    20c4:	00064b0a 	.inst	0x00064b0a ; undefined
    20c8:	006d0100 	.inst	0x006d0100 ; undefined
    20cc:	0c000000 	st4	{v0.8b-v3.8b}, [x0]
    20d0:	00000bf2 	udf	#3058
    20d4:	9005100a 	adrp	x10, a202000 <_end+0x7810870>
    20d8:	61000002 	.inst	0x61000002 ; undefined
    20dc:	01000006 	.inst	0x01000006 ; undefined
    20e0:	00000194 	udf	#404
    20e4:	0aaf0c00 	bic	w0, w0, w15, asr #3
    20e8:	0f0a0000 	.inst	0x0f0a0000 ; undefined
    20ec:	00019407 	.inst	0x00019407 ; undefined
    20f0:	00067700 	.inst	0x00067700 ; undefined
    20f4:	01940100 	.inst	0x01940100 ; undefined
    20f8:	0b000000 	add	w0, w0, w0
    20fc:	00000c40 	udf	#3136
    2100:	0688070b 	.inst	0x0688070b ; undefined
    2104:	6d010000 	stp	d0, d0, [x0, #16]
    2108:	00000000 	udf	#0
    210c:	000ac819 	.inst	0x000ac819 ; undefined
    2110:	06090b00 	.inst	0x06090b00 ; undefined
    2114:	0000006d 	udf	#109
    2118:	0000069a 	udf	#1690
    211c:	430b0012 	.inst	0x430b0012 ; undefined
    2120:	0700000a 	.inst	0x0700000a ; undefined
    2124:	0006b03b 	.inst	0x0006b03b ; undefined
    2128:	01940100 	.inst	0x01940100 ; undefined
    212c:	88010000 	stxr	w1, w0, [x0]
    2130:	00000001 	udf	#1
    2134:	000c6c0c 	.inst	0x000c6c0c ; undefined
    2138:	050a0a00 	.inst	0x050a0a00 ; undefined
    213c:	00000290 	udf	#656
    2140:	000006cb 	udf	#1739
    2144:	0006cb01 	.inst	0x0006cb01 ; undefined
    2148:	06cb0100 	.inst	0x06cb0100 ; undefined
    214c:	05000000 	orr	z0.s, z0.s, #0x1
    2150:	00000074 	udf	#116
    2154:	0001bf0c 	.inst	0x0001bf0c ; undefined
    2158:	05080b00 	.inst	0x05080b00 ; undefined
    215c:	00000290 	udf	#656
    2160:	000006e7 	udf	#1767
    2164:	00019401 	.inst	0x00019401 ; undefined
    2168:	0c001200 	.inst	0x0c001200 ; undefined
    216c:	000000c6 	udf	#198
    2170:	90052103 	adrp	x3, a422000 <_end+0x7a30870>
    2174:	11000002 	add	w2, w0, #0x0
    2178:	01000007 	.inst	0x01000007 ; undefined
    217c:	00000711 	udf	#1809
    2180:	00071601 	.inst	0x00071601 ; undefined
    2184:	071b0100 	.inst	0x071b0100 ; undefined
    2188:	16010000 	b	fffffffff8042188 <_end+0xfffffffff56509f8>
    218c:	01000007 	.inst	0x01000007 ; undefined
    2190:	00000720 	udf	#1824
    2194:	00790500 	.inst	0x00790500 ; undefined
    2198:	94050000 	bl	142198 <thread_list+0xb9778>
    219c:	05000001 	orr	z1.s, z1.s, #0x1
    21a0:	00000188 	udf	#392
    21a4:	00071105 	.inst	0x00071105 ; undefined
    21a8:	0be81500 	.inst	0x0be81500 ; undefined
    21ac:	01d00000 	.inst	0x01d00000 ; undefined
    21b0:	00083034 	.inst	0x00083034 ; undefined
    21b4:	00000000 	udf	#0
    21b8:	0000019c 	udf	#412
    21bc:	00000000 	udf	#0
    21c0:	07b29c01 	.inst	0x07b29c01 ; undefined
    21c4:	62020000 	.inst	0x62020000 ; undefined
    21c8:	d5006675 	msr	s0_0_c6_c6_3, x21
    21cc:	00560a01 	.inst	0x00560a01 ; undefined
    21d0:	91030000 	add	x0, x0, #0xc0
    21d4:	63027ef0 	.inst	0x63027ef0 ; undefined
    21d8:	dc00746e 	.inst	0xdc00746e ; undefined
    21dc:	02900901 	.inst	0x02900901 ; undefined
    21e0:	91030000 	add	x0, x0, #0xc0
    21e4:	72027eec 	.inst	0x72027eec ; undefined
    21e8:	dd007465 	.inst	0xdd007465 ; undefined
    21ec:	02900901 	.inst	0x02900901 ; undefined
    21f0:	91020000 	add	x0, x0, #0x80
    21f4:	30a00978 	adr	x24, fffffffffff42321 <_end+0xfffffffffd550b91>
    21f8:	00000008 	udf	#8
    21fc:	01080000 	.inst	0x01080000 ; undefined
    2200:	00000000 	udf	#0
    2204:	09060000 	.inst	0x09060000 ; undefined
    2208:	df00000c 	.inst	0xdf00000c ; undefined
    220c:	02aa1301 	.inst	0x02aa1301 ; undefined
    2210:	91020000 	add	x0, x0, #0x80
    2214:	31600970 	adds	w16, w11, #0x802, lsl #12
    2218:	00000008 	udf	#8
    221c:	002c0000 	.inst	0x002c0000 ; NYI
    2220:	00000000 	udf	#0
    2224:	69020000 	stgp	x0, x0, [x0, #64]
    2228:	1a01eb00 	.inst	0x1a01eb00 ; undefined
    222c:	00000290 	udf	#656
    2230:	007c9102 	.inst	0x007c9102 ; undefined
    2234:	8d310000 	.inst	0x8d310000 ; undefined
    2238:	0100000a 	.inst	0x0100000a ; undefined
    223c:	100601c9 	adr	x9, e274 <_start-0x71d8c>
    2240:	00000830 	udf	#2096
    2244:	24000000 	cmphs	p0.b, p0/z, z0.b, z0.b
    2248:	00000000 	udf	#0
    224c:	01000000 	.inst	0x01000000 ; undefined
    2250:	0007e19c 	.inst	0x0007e19c ; undefined
    2254:	69700f00 	ldpsw	x0, x3, [x24, #-128]
    2258:	01c90064 	.inst	0x01c90064 ; undefined
    225c:	00029014 	.inst	0x00029014 ; undefined
    2260:	7c910200 	.inst	0x7c910200 ; undefined
    2264:	0cbb1a00 	.inst	0x0cbb1a00 ; undefined
    2268:	01bf0000 	.inst	0x01bf0000 ; undefined
    226c:	00029005 	.inst	0x00029005 ; undefined
    2270:	082fd400 	.inst	0x082fd400 ; undefined
    2274:	00000000 	udf	#0
    2278:	00003c00 	udf	#15360
    227c:	00000000 	udf	#0
    2280:	309c0100 	adr	x0, fffffffffff3a2a1 <_end+0xfffffffffd548b11>
    2284:	0f000008 	.inst	0x0f000008 ; undefined
    2288:	bf006863 	.inst	0xbf006863 ; undefined
    228c:	08302201 	.inst	0x08302201 ; undefined
    2290:	91020000 	add	x0, x0, #0x80
    2294:	0bbe1b6f 	.inst	0x0bbe1b6f ; undefined
    2298:	01bf0000 	.inst	0x01bf0000 ; undefined
    229c:	00071b34 	.inst	0x00071b34 ; undefined
    22a0:	60910200 	.inst	0x60910200 ; undefined
    22a4:	74657202 	.inst	0x74657202 ; undefined
    22a8:	0901c000 	.inst	0x0901c000 ; undefined
    22ac:	00000290 	udf	#656
    22b0:	007c9102 	.inst	0x007c9102 ; undefined
    22b4:	1908010e 	stlurb	w14, [x8, #128]
    22b8:	1f000005 	fmadd	s5, s0, s0, s0
    22bc:	00000830 	udf	#2096
    22c0:	0009ec32 	.inst	0x0009ec32 ; undefined
    22c4:	01ba0100 	.inst	0x01ba0100 ; undefined
    22c8:	082fc406 	.inst	0x082fc406 ; undefined
    22cc:	00000000 	udf	#0
    22d0:	00001000 	udf	#4096
    22d4:	00000000 	udf	#0
    22d8:	249c0100 	cmphs	p0.s, p0/z, z8.s, z28.s
    22dc:	00000b67 	udf	#2919
    22e0:	029001b2 	.inst	0x029001b2 ; undefined
    22e4:	2fa00000 	mla	v0.2s, v0.2s, v0.s[1]
    22e8:	00000008 	udf	#8
    22ec:	00240000 	.inst	0x00240000 ; NYI
    22f0:	00000000 	udf	#0
    22f4:	9c010000 	ldr	q0, 42f4 <_start-0x7bd0c>
    22f8:	00000888 	udf	#2184
    22fc:	74657202 	.inst	0x74657202 ; undefined
    2300:	0901b300 	.inst	0x0901b300 ; undefined
    2304:	00000290 	udf	#656
    2308:	007c9102 	.inst	0x007c9102 ; undefined
    230c:	000bae1a 	.inst	0x000bae1a ; undefined
    2310:	0801a800 	stlxrb	w1, w0, [x0]
    2314:	0000029e 	udf	#670
    2318:	00082f64 	.inst	0x00082f64 ; undefined
    231c:	00000000 	udf	#0
    2320:	0000003c 	udf	#60
    2324:	00000000 	udf	#0
    2328:	08d89c01 	.inst	0x08d89c01 ; undefined
    232c:	620f0000 	.inst	0x620f0000 ; undefined
    2330:	a8006675 	stnp	x21, x25, [x19]
    2334:	06cb2401 	.inst	0x06cb2401 ; undefined
    2338:	91020000 	add	x0, x0, #0x80
    233c:	0db51b68 	st2	{v8.b, v9.b}[6], [x27], x21
    2340:	01a80000 	.inst	0x01a80000 ; undefined
    2344:	00029e30 	.inst	0x00029e30 ; undefined
    2348:	60910200 	.inst	0x60910200 ; undefined
    234c:	74657202 	.inst	0x74657202 ; undefined
    2350:	0901a900 	.inst	0x0901a900 ; undefined
    2354:	00000290 	udf	#656
    2358:	007c9102 	.inst	0x007c9102 ; undefined
    235c:	000b841a 	.inst	0x000b841a ; undefined
    2360:	08019e00 	stlxrb	w1, w0, [x16]
    2364:	0000029e 	udf	#670
    2368:	00082f28 	.inst	0x00082f28 ; undefined
    236c:	00000000 	udf	#0
    2370:	0000003c 	udf	#60
    2374:	00000000 	udf	#0
    2378:	09289c01 	.inst	0x09289c01 ; undefined
    237c:	620f0000 	.inst	0x620f0000 ; undefined
    2380:	9e006675 	.inst	0x9e006675 ; undefined
    2384:	01941d01 	.inst	0x01941d01 ; undefined
    2388:	91020000 	add	x0, x0, #0x80
    238c:	0db51b68 	st2	{v8.b, v9.b}[6], [x27], x21
    2390:	019e0000 	.inst	0x019e0000 ; undefined
    2394:	00029e29 	.inst	0x00029e29 ; undefined
    2398:	60910200 	.inst	0x60910200 ; undefined
    239c:	74657202 	.inst	0x74657202 ; undefined
    23a0:	09019f00 	.inst	0x09019f00 ; undefined
    23a4:	00000290 	udf	#656
    23a8:	007c9102 	.inst	0x007c9102 ; undefined
    23ac:	000b5b24 	.inst	0x000b5b24 ; undefined
    23b0:	90019600 	adrp	x0, 32c2000 <_end+0x8d0870>
    23b4:	04000002 	add	z2.b, p0/m, z2.b, z0.b
    23b8:	0000082f 	udf	#2095
    23bc:	24000000 	cmphs	p0.b, p0/z, z0.b, z0.b
    23c0:	00000000 	udf	#0
    23c4:	01000000 	.inst	0x01000000 ; undefined
    23c8:	0009599c 	.inst	0x0009599c ; undefined
    23cc:	65720200 	fmla	z0.h, p0/m, z16.h, z18.h
    23d0:	01970074 	.inst	0x01970074 ; undefined
    23d4:	00029009 	.inst	0x00029009 ; undefined
    23d8:	7c910200 	.inst	0x7c910200 ; undefined
    23dc:	0b1a3300 	add	w0, w24, w26, lsl #12
    23e0:	91010000 	add	x0, x0, #0x40
    23e4:	2ee00601 	.inst	0x2ee00601 ; undefined
    23e8:	00000008 	udf	#8
    23ec:	00240000 	.inst	0x00240000 ; NYI
    23f0:	00000000 	udf	#0
    23f4:	9c010000 	ldr	q0, 43f4 <_start-0x7bc0c>
    23f8:	000b7115 	.inst	0x000b7115 ; undefined
    23fc:	88018900 	stlxr	w1, w0, [x8]
    2400:	0000082e 	udf	#2094
    2404:	58000000 	ldr	x0, 2404 <_start-0x7dbfc>
    2408:	00000000 	udf	#0
    240c:	01000000 	.inst	0x01000000 ; undefined
    2410:	0009b19c 	.inst	0x0009b19c ; undefined
    2414:	2e900900 	.inst	0x2e900900 ; undefined
    2418:	00000008 	udf	#8
    241c:	00400000 	.inst	0x00400000 ; undefined
    2420:	00000000 	udf	#0
    2424:	69020000 	stgp	x0, x0, [x0, #64]
    2428:	0e018a00 	.inst	0x0e018a00 ; undefined
    242c:	00000290 	udf	#656
    2430:	007c9102 	.inst	0x007c9102 ; undefined
    2434:	0b0a1500 	add	w0, w8, w10, lsl #5
    2438:	01530000 	.inst	0x01530000 ; undefined
    243c:	00082ca4 	.inst	0x00082ca4 ; undefined
    2440:	00000000 	udf	#0
    2444:	000001e4 	udf	#484
    2448:	00000000 	udf	#0
    244c:	0aeb9c01 	.inst	0x0aeb9c01 ; undefined
    2450:	70020000 	adr	x0, 6453 <_start-0x79bad>
    2454:	01540031 	.inst	0x01540031 ; undefined
    2458:	0001940b 	.inst	0x0001940b ; undefined
    245c:	78910200 	ldursh	x0, [x16, #-240]
    2460:	00327002 	.inst	0x00327002 ; NYI
    2464:	940b0155 	bl	2c29b8 <thread_list+0x239f98>
    2468:	02000001 	.inst	0x02000001 ; undefined
    246c:	70027091 	adr	x17, 727f <_start-0x78d81>
    2470:	01560033 	.inst	0x01560033 ; undefined
    2474:	0001940b 	.inst	0x0001940b ; undefined
    2478:	68910200 	stgp	x0, x0, [x16], #544
    247c:	00347002 	.inst	0x00347002 ; NYI
    2480:	940b0157 	bl	2c29dc <thread_list+0x239fbc>
    2484:	02000001 	.inst	0x02000001 ; undefined
    2488:	61026091 	.inst	0x61026091 ; undefined
    248c:	0b015c00 	add	w0, w0, w1, lsl #23
    2490:	00000194 	udf	#404
    2494:	02589102 	.inst	0x02589102 ; undefined
    2498:	015d0062 	.inst	0x015d0062 ; undefined
    249c:	0001940b 	.inst	0x0001940b ; undefined
    24a0:	50910200 	adr	x0, fffffffffff244e2 <_end+0xfffffffffd532d52>
    24a4:	5e006302 	sha256su1	v2.4s, v24.4s, v0.4s
    24a8:	01940b01 	.inst	0x01940b01 ; undefined
    24ac:	91020000 	add	x0, x0, #0x80
    24b0:	61610248 	.inst	0x61610248 ; undefined
    24b4:	0b016500 	add	w0, w8, w1, lsl #25
    24b8:	00000194 	udf	#404
    24bc:	02409102 	.inst	0x02409102 ; undefined
    24c0:	67006262 	.inst	0x67006262 ; undefined
    24c4:	01940b01 	.inst	0x01940b01 ; undefined
    24c8:	91030000 	add	x0, x0, #0xc0
    24cc:	63027fb8 	.inst	0x63027fb8 ; undefined
    24d0:	01690063 	.inst	0x01690063 ; undefined
    24d4:	0001940b 	.inst	0x0001940b ; undefined
    24d8:	b0910300 	adrp	x0, ffffffff22063000 <_end+0xffffffff1f671870>
    24dc:	0064027f 	.inst	0x0064027f ; undefined
    24e0:	940b016a 	bl	2c2a88 <thread_list+0x23a068>
    24e4:	03000001 	.inst	0x03000001 ; undefined
    24e8:	027fa891 	.inst	0x027fa891 ; undefined
    24ec:	6b006464 	subs	w4, w3, w0, lsl #25
    24f0:	01940b01 	.inst	0x01940b01 ; undefined
    24f4:	91030000 	add	x0, x0, #0xc0
    24f8:	65027fa0 	.inst	0x65027fa0 ; undefined
    24fc:	0b016c00 	add	w0, w0, w1, lsl #27
    2500:	00000194 	udf	#404
    2504:	7f989103 	fmulx	s3, s8, v24.s[0]
    2508:	00656502 	.inst	0x00656502 ; undefined
    250c:	940b016d 	bl	2c2ac0 <thread_list+0x23a0a0>
    2510:	03000001 	.inst	0x03000001 ; undefined
    2514:	027f9091 	.inst	0x027f9091 ; undefined
    2518:	016f0066 	.inst	0x016f0066 ; undefined
    251c:	0001940b 	.inst	0x0001940b ; undefined
    2520:	88910300 	stllr	w0, [x24]
    2524:	6666027f 	.inst	0x6666027f ; undefined
    2528:	0b017000 	add	w0, w0, w1, lsl #28
    252c:	00000194 	udf	#404
    2530:	7f809103 	fmulx	s3, s8, v0.s[0]
    2534:	71006702 	subs	w2, w24, #0x19
    2538:	01940b01 	.inst	0x01940b01 ; undefined
    253c:	91030000 	add	x0, x0, #0xc0
    2540:	67027ef8 	.inst	0x67027ef8 ; undefined
    2544:	01720067 	.inst	0x01720067 ; undefined
    2548:	0001940b 	.inst	0x0001940b ; undefined
    254c:	f0910300 	adrp	x0, ffffffff22065000 <_end+0xffffffff1f673870>
    2550:	0068027e 	.inst	0x0068027e ; undefined
    2554:	940b0173 	bl	2c2b20 <thread_list+0x23a100>
    2558:	03000001 	.inst	0x03000001 ; undefined
    255c:	027ee891 	.inst	0x027ee891 ; undefined
    2560:	74006868 	.inst	0x74006868 ; undefined
    2564:	01940b01 	.inst	0x01940b01 ; undefined
    2568:	91030000 	add	x0, x0, #0xc0
    256c:	1c007ee0 	ldr	s0, 3548 <_start-0x7cab8>
    2570:	00000b9e 	udf	#2974
    2574:	2c60014f 	ldnp	s15, s0, [x10, #-256]
    2578:	00000008 	udf	#8
    257c:	00440000 	.inst	0x00440000 ; undefined
    2580:	00000000 	udf	#0
    2584:	9c010000 	ldr	q0, 4584 <_start-0x7ba7c>
    2588:	00000b27 	udf	#2855
    258c:	67736d0f 	.inst	0x67736d0f ; undefined
    2590:	1c014f00 	ldr	s0, 4f70 <_start-0x7b090>
    2594:	00000194 	udf	#404
    2598:	0f789102 	.inst	0x0f789102 ; undefined
    259c:	00636573 	.inst	0x00636573 ; undefined
    25a0:	9025014f 	adrp	x15, 4a02a000 <_end+0x47638870>
    25a4:	02000002 	.inst	0x02000002 ; undefined
    25a8:	1c007491 	ldr	s17, 3438 <_start-0x7cbc8>
    25ac:	00000bf7 	udf	#3063
    25b0:	2bfc0145 	.inst	0x2bfc0145 ; undefined
    25b4:	00000008 	udf	#8
    25b8:	00640000 	.inst	0x00640000 ; undefined
    25bc:	00000000 	udf	#0
    25c0:	9c010000 	ldr	q0, 45c0 <_start-0x7ba40>
    25c4:	00000b72 	udf	#2930
    25c8:	67736d0f 	.inst	0x67736d0f ; undefined
    25cc:	1e014500 	.inst	0x1e014500 ; undefined
    25d0:	00000194 	udf	#404
    25d4:	06689102 	.inst	0x06689102 ; undefined
    25d8:	00000c2a 	udf	#3114
    25dc:	aa130147 	orr	x7, x10, x19
    25e0:	02000002 	.inst	0x02000002 ; undefined
    25e4:	35067891 	cbnz	w17, f4f4 <_start-0x70b0c>
    25e8:	4700000c 	.inst	0x4700000c ; undefined
    25ec:	02aa1f01 	.inst	0x02aa1f01 ; undefined
    25f0:	91020000 	add	x0, x0, #0x80
    25f4:	1c150070 	ldr	s16, 2c600 <_start-0x53a00>
    25f8:	3d00000c 	str	b12, [x0]
    25fc:	082ba401 	.inst	0x082ba401 ; undefined
    2600:	00000000 	udf	#0
    2604:	00005800 	udf	#22528
    2608:	00000000 	udf	#0
    260c:	ae9c0100 	.inst	0xae9c0100 ; undefined
    2610:	0600000b 	.inst	0x0600000b ; undefined
    2614:	00000b2e 	udf	#2862
    2618:	ae1c013f 	.inst	0xae1c013f ; undefined
    261c:	0200000b 	.inst	0x0200000b ; undefined
    2620:	11067891 	add	w17, w4, #0x19e
    2624:	4100000a 	.inst	0x4100000a ; undefined
    2628:	0bae1c01 	.inst	0x0bae1c01 ; undefined
    262c:	91020000 	add	x0, x0, #0x80
    2630:	8f050070 	.inst	0x8f050070 ; undefined
    2634:	1c000001 	ldr	s1, 2634 <_start-0x7d9cc>
    2638:	00000abe 	udf	#2750
    263c:	2b10012a 	adds	w10, w9, w16
    2640:	00000008 	udf	#8
    2644:	00940000 	.inst	0x00940000 ; undefined
    2648:	00000000 	udf	#0
    264c:	9c010000 	ldr	q0, 464c <_start-0x7b9b4>
    2650:	00000c3d 	udf	#3133
    2654:	7269640f 	.inst	0x7269640f ; undefined
    2658:	16012a00 	b	fffffffff804ce58 <_end+0xfffffffff565b6c8>
    265c:	00000194 	udf	#404
    2660:	06489102 	.inst	0x06489102 ; undefined
    2664:	00000c88 	udf	#3208
    2668:	940b012b 	bl	2c2b14 <thread_list+0x23a0f4>
    266c:	02000001 	.inst	0x02000001 ; undefined
    2670:	db067091 	.inst	0xdb067091 ; undefined
    2674:	2c000009 	stnp	s9, s0, [x0]
    2678:	01940b01 	.inst	0x01940b01 ; undefined
    267c:	91020000 	add	x0, x0, #0x80
    2680:	005e0668 	.inst	0x005e0668 ; undefined
    2684:	012d0000 	.inst	0x012d0000 ; undefined
    2688:	00018812 	.inst	0x00018812 ; undefined
    268c:	64910200 	fcmla	z0.s, p0/m, z16.s, z17.s, #0
    2690:	000a6906 	.inst	0x000a6906 ; undefined
    2694:	1e012e00 	.inst	0x1e012e00 ; undefined
    2698:	00000711 	udf	#1809
    269c:	09589102 	.inst	0x09589102 ; undefined
    26a0:	00082b30 	.inst	0x00082b30 ; undefined
    26a4:	00000000 	udf	#0
    26a8:	00000058 	udf	#88
    26ac:	00000000 	udf	#0
    26b0:	000bc306 	.inst	0x000bc306 ; undefined
    26b4:	0d013100 	.inst	0x0d013100 ; undefined
    26b8:	00000290 	udf	#656
    26bc:	007c9102 	.inst	0x007c9102 ; undefined
    26c0:	0c731500 	.inst	0x0c731500 ; undefined
    26c4:	011c0000 	.inst	0x011c0000 ; undefined
    26c8:	00082a6c 	.inst	0x00082a6c ; undefined
    26cc:	00000000 	udf	#0
    26d0:	000000a4 	udf	#164
    26d4:	00000000 	udf	#0
    26d8:	0c889c01 	.inst	0x0c889c01 ; undefined
    26dc:	e6060000 	.inst	0xe6060000 ; undefined
    26e0:	1d000009 	.inst	0x1d000009 ; undefined
    26e4:	01940b01 	.inst	0x01940b01 ; undefined
    26e8:	91020000 	add	x0, x0, #0x80
    26ec:	0b930678 	add	w24, w19, w19, asr #1
    26f0:	01210000 	.inst	0x01210000 ; undefined
    26f4:	0001940b 	.inst	0x0001940b ; undefined
    26f8:	70910200 	adr	x0, fffffffffff2473b <_end+0xfffffffffd532fab>
    26fc:	0009f606 	.inst	0x0009f606 ; undefined
    2700:	0b012500 	add	w0, w8, w1, lsl #9
    2704:	00000194 	udf	#404
    2708:	00689102 	.inst	0x00689102 ; undefined
    270c:	000c1017 	.inst	0x000c1017 ; undefined
    2710:	28b8f700 	stp	w0, w29, [x24], #-60
    2714:	00000008 	udf	#8
    2718:	01b40000 	.inst	0x01b40000 ; undefined
    271c:	00000000 	udf	#0
    2720:	9c010000 	ldr	q0, 4720 <_start-0x7b8e0>
    2724:	000ad817 	.inst	0x000ad817 ; undefined
    2728:	2898f300 	stp	w0, w28, [x24], #196
    272c:	00000008 	udf	#8
    2730:	00200000 	.inst	0x00200000 ; NYI
    2734:	00000000 	udf	#0
    2738:	9c010000 	ldr	q0, 4738 <_start-0x7b8c8>
    273c:	000a3025 	.inst	0x000a3025 ; undefined
    2740:	2814ea00 	stnp	w0, w26, [x16, #164]
    2744:	00000008 	udf	#8
    2748:	00840000 	.inst	0x00840000 ; undefined
    274c:	00000000 	udf	#0
    2750:	9c010000 	ldr	q0, 4750 <_start-0x7b8b0>
    2754:	00000cf3 	udf	#3315
    2758:	08281c09 	.inst	0x08281c09 ; undefined
    275c:	00000000 	udf	#0
    2760:	00006c00 	udf	#27648
    2764:	00000000 	udf	#0
    2768:	00690700 	.inst	0x00690700 ; undefined
    276c:	02900eeb 	.inst	0x02900eeb ; undefined
    2770:	91020000 	add	x0, x0, #0x80
    2774:	1700007c 	b	fffffffffc002964 <_end+0xfffffffff96111d4>
    2778:	00000af4 	udf	#2804
    277c:	0827e4e6 	.inst	0x0827e4e6 ; undefined
    2780:	00000000 	udf	#0
    2784:	00003000 	udf	#12288
    2788:	00000000 	udf	#0
    278c:	1d9c0100 	.inst	0x1d9c0100 ; undefined
    2790:	00000aff 	udf	#2815
    2794:	082720ca 	.inst	0x082720ca ; undefined
    2798:	00000000 	udf	#0
    279c:	0000c400 	udf	#50176
    27a0:	00000000 	udf	#0
    27a4:	8e9c0100 	.inst	0x8e9c0100 ; undefined
    27a8:	1300000d 	sbfx	w13, w0, #0, #1
    27ac:	00000c8a 	udf	#3210
    27b0:	019417ca 	.inst	0x019417ca ; undefined
    27b4:	91020000 	add	x0, x0, #0x80
    27b8:	0c880a48 	st4	{v8.2s-v11.2s}, [x18], x8
    27bc:	0bcb0000 	.inst	0x0bcb0000 ; undefined
    27c0:	00000194 	udf	#404
    27c4:	0a709102 	.inst	0x0a709102 ; undefined
    27c8:	000009db 	udf	#2523
    27cc:	01940bcc 	.inst	0x01940bcc ; undefined
    27d0:	91020000 	add	x0, x0, #0x80
    27d4:	005e0a68 	.inst	0x005e0a68 ; undefined
    27d8:	12cd0000 	.inst	0x12cd0000 ; undefined
    27dc:	00000188 	udf	#392
    27e0:	0a649102 	.inst	0x0a649102 ; undefined
    27e4:	00000a69 	udf	#2665
    27e8:	07111ece 	.inst	0x07111ece ; undefined
    27ec:	91020000 	add	x0, x0, #0x80
    27f0:	27400958 	.inst	0x27400958 ; undefined
    27f4:	00000008 	udf	#8
    27f8:	00800000 	.inst	0x00800000 ; undefined
    27fc:	00000000 	udf	#0
    2800:	c30a0000 	.inst	0xc30a0000 ; undefined
    2804:	d300000b 	.inst	0xd300000b ; undefined
    2808:	0002900d 	.inst	0x0002900d ; undefined
    280c:	7c910200 	.inst	0x7c910200 ; undefined
    2810:	9a170000 	adc	x0, x0, x23
    2814:	c4000006 	ld1sb	{z6.d}, p0/z, [x0, z0.d, uxtw]
    2818:	000826e8 	.inst	0x000826e8 ; undefined
    281c:	00000000 	udf	#0
    2820:	00000038 	udf	#56
    2824:	00000000 	udf	#0
    2828:	fc259c01 	.inst	0xfc259c01 ; undefined
    282c:	af000009 	.inst	0xaf000009 ; undefined
    2830:	0008261c 	.inst	0x0008261c ; undefined
    2834:	00000000 	udf	#0
    2838:	000000cc 	udf	#204
    283c:	00000000 	udf	#0
    2840:	0e269c01 	mul	v1.8b, v0.8b, v6.8b
    2844:	24090000 	cmphs	p0.b, p0/z, z0.b, z9.b
    2848:	00000826 	udf	#2086
    284c:	b4000000 	cbz	x0, 284c <_start-0x7d7b4>
    2850:	00000000 	udf	#0
    2854:	0a000000 	and	w0, w0, w0
    2858:	000006bf 	udf	#1727
    285c:	00560eb2 	.inst	0x00560eb2 ; undefined
    2860:	91030000 	add	x0, x0, #0xc0
    2864:	69077ef0 	stgp	x16, xzr, [x23, #224]
    2868:	b3007864 	.inst	0xb3007864 ; undefined
    286c:	0002900d 	.inst	0x0002900d ; undefined
    2870:	7c910200 	.inst	0x7c910200 ; undefined
    2874:	00000c34 	udf	#3124
    2878:	000e0600 	.inst	0x000e0600 ; undefined
    287c:	00630700 	.inst	0x00630700 ; undefined
    2880:	006d12b5 	.inst	0x006d12b5 ; undefined
    2884:	91020000 	add	x0, x0, #0x80
    2888:	94090077 	bl	242a64 <thread_list+0x1ba044>
    288c:	00000826 	udf	#2086
    2890:	34000000 	cbz	w0, 2890 <_start-0x7d770>
    2894:	00000000 	udf	#0
    2898:	07000000 	.inst	0x07000000 ; undefined
    289c:	12bc0069 	mov	w9, #0x1ffcffff            	// #536674303
    28a0:	00000290 	udf	#656
    28a4:	00789102 	.inst	0x00789102 ; undefined
    28a8:	c61d0000 	.inst	0xc61d0000 ; undefined
    28ac:	77000006 	.inst	0x77000006 ; undefined
    28b0:	00082378 	.inst	0x00082378 ; undefined
    28b4:	00000000 	udf	#0
    28b8:	000002a4 	udf	#676
    28bc:	00000000 	udf	#0
    28c0:	0e8d9c01 	usdot	v1.2s, v0.8b, v13.8b
    28c4:	bf130000 	.inst	0xbf130000 ; undefined
    28c8:	77000006 	.inst	0x77000006 ; undefined
    28cc:	00019419 	.inst	0x00019419 ; undefined
    28d0:	58910200 	ldr	x0, fffffffffff24910 <_end+0xfffffffffd533180>
    28d4:	646d6307 	.inst	0x646d6307 ; undefined
    28d8:	940b7b00 	bl	2e14d8 <thread_list+0x258ab8>
    28dc:	02000001 	.inst	0x02000001 ; undefined
    28e0:	e50a7091 	stnt1w	{z17.s}, p4, [x4, x10, lsl #2]
    28e4:	7c00000a 	stur	h10, [x0]
    28e8:	0001940b 	.inst	0x0001940b ; undefined
    28ec:	78910200 	ldursh	x0, [x16, #-240]
    28f0:	08255809 	.inst	0x08255809 ; undefined
    28f4:	00000000 	udf	#0
    28f8:	00002000 	udf	#8192
    28fc:	00000000 	udf	#0
    2900:	65730700 	fmla	z0.h, p1/m, z24.h, z19.h
    2904:	0fa00063 	fmlal	v3.2s, v3.2h, v0.h[2]
    2908:	00000194 	udf	#404
    290c:	00689102 	.inst	0x00689102 ; undefined
    2910:	06d31d00 	.inst	0x06d31d00 ; undefined
    2914:	a05b0000 	.inst	0xa05b0000 ; undefined
    2918:	00000822 	udf	#2082
    291c:	d8000000 	prfm	pldl1keep, 291c <_start-0x7d6e4>
    2920:	00000000 	udf	#0
    2924:	01000000 	.inst	0x01000000 ; undefined
    2928:	000ee49c 	.inst	0x000ee49c ; undefined
    292c:	06bf1300 	.inst	0x06bf1300 ; undefined
    2930:	195b0000 	ldapurb	w0, [x0, #-80]
    2934:	00000194 	udf	#404
    2938:	07689102 	.inst	0x07689102 ; undefined
    293c:	00786469 	.inst	0x00786469 ; undefined
    2940:	0290095c 	.inst	0x0290095c ; undefined
    2944:	91020000 	add	x0, x0, #0x80
    2948:	22b0097c 	.inst	0x22b0097c ; undefined
    294c:	00000008 	udf	#8
    2950:	00b80000 	.inst	0x00b80000 ; undefined
    2954:	00000000 	udf	#0
    2958:	63070000 	.inst	0x63070000 ; undefined
    295c:	6d0e5f00 	stp	d0, d23, [x24, #224]
    2960:	02000000 	.inst	0x02000000 ; undefined
    2964:	00007b91 	udf	#31633
    2968:	0006ab35 	.inst	0x0006ab35 ; undefined
    296c:	06550100 	.inst	0x06550100 ; undefined
    2970:	00082250 	.inst	0x00082250 ; undefined
    2974:	00000000 	udf	#0
    2978:	00000050 	udf	#80
    297c:	00000000 	udf	#0
    2980:	0f3d9c01 	sqrshrn	v1.2s, v0.2d, #3
    2984:	bf130000 	.inst	0xbf130000 ; undefined
    2988:	55000006 	.inst	0x55000006 ; undefined
    298c:	0001941a 	.inst	0x0001941a ; undefined
    2990:	68910200 	stgp	x0, x0, [x16], #544
    2994:	0000a613 	udf	#42515
    2998:	90265500 	adrp	x0, 4caa2000 <_end+0x4a0b0870>
    299c:	02000002 	.inst	0x02000002 ; undefined
    29a0:	5c096491 	ldr	d17, 15630 <_start-0x6a9d0>
    29a4:	00000822 	udf	#2082
    29a8:	34000000 	cbz	w0, 29a8 <_start-0x7d658>
    29ac:	00000000 	udf	#0
    29b0:	07000000 	.inst	0x07000000 ; undefined
    29b4:	0e560069 	.inst	0x0e560069 ; undefined
    29b8:	00000290 	udf	#656
    29bc:	007c9102 	.inst	0x007c9102 ; undefined
    29c0:	0c643600 	.inst	0x0c643600 ; undefined
    29c4:	47010000 	.inst	0x47010000 ; undefined
    29c8:	00029005 	.inst	0x00029005 ; undefined
    29cc:	0821cc00 	.inst	0x0821cc00 ; undefined
    29d0:	00000000 	udf	#0
    29d4:	00008400 	udf	#33792
    29d8:	00000000 	udf	#0
    29dc:	ae9c0100 	.inst	0xae9c0100 ; undefined
    29e0:	2600000f 	.inst	0x2600000f ; undefined
    29e4:	47003170 	.inst	0x47003170 ; undefined
    29e8:	0006cb20 	.inst	0x0006cb20 ; undefined
    29ec:	58910200 	ldr	x0, fffffffffff24a2c <_end+0xfffffffffd53329c>
    29f0:	00327026 	.inst	0x00327026 ; NYI
    29f4:	06cb3047 	.inst	0x06cb3047 ; undefined
    29f8:	91020000 	add	x0, x0, #0x80
    29fc:	31730750 	adds	w16, w26, #0xcc1, lsl #12
    2a00:	ae1a4800 	.inst	0xae1a4800 ; undefined
    2a04:	0200000f 	.inst	0x0200000f ; undefined
    2a08:	73077891 	.inst	0x73077891 ; undefined
    2a0c:	1a490032 	.inst	0x1a490032 ; undefined
    2a10:	00000fae 	udf	#4014
    2a14:	07709102 	.inst	0x07709102 ; undefined
    2a18:	4a003163 	eor	w3, w11, w0, lsl #12
    2a1c:	00083013 	.inst	0x00083013 ; undefined
    2a20:	6f910200 	mla	v0.4s, v16.4s, v17.s[0]
    2a24:	00326307 	.inst	0x00326307 ; NYI
    2a28:	0830174a 	.inst	0x0830174a ; undefined
    2a2c:	91020000 	add	x0, x0, #0x80
    2a30:	3705006e 	tbnz	w14, #0, ffffffffffffca3c <_end+0xfffffffffd60b2ac>
    2a34:	37000008 	tbnz	w8, #0, 2a34 <_start-0x7d5cc>
    2a38:	00000a24 	udf	#2596
    2a3c:	0c062601 	.inst	0x0c062601 ; undefined
    2a40:	00000821 	udf	#2081
    2a44:	c0000000 	mov	za0h.b[w12, 0], p0/m, z0.b
    2a48:	00000000 	udf	#0
    2a4c:	01000000 	.inst	0x01000000 ; undefined
    2a50:	0c8a139c 	.inst	0x0c8a139c ; undefined
    2a54:	18260000 	ldr	w0, 4ea54 <_start-0x315ac>
    2a58:	00000194 	udf	#404
    2a5c:	0a489102 	.inst	0x0a489102 ; undefined
    2a60:	00000c88 	udf	#3208
    2a64:	01940b27 	.inst	0x01940b27 ; undefined
    2a68:	91020000 	add	x0, x0, #0x80
    2a6c:	09db0a70 	.inst	0x09db0a70 ; undefined
    2a70:	0b280000 	add	w0, w0, w8, uxtb
    2a74:	00000194 	udf	#404
    2a78:	0a689102 	.inst	0x0a689102 ; undefined
    2a7c:	0000005e 	udf	#94
    2a80:	01881229 	.inst	0x01881229 ; undefined
    2a84:	91020000 	add	x0, x0, #0x80
    2a88:	0a690a64 	bic	w4, w19, w9, lsr #2
    2a8c:	1e2a0000 	.inst	0x1e2a0000 ; undefined
    2a90:	00000711 	udf	#1809
    2a94:	09589102 	.inst	0x09589102 ; undefined
    2a98:	0008212c 	.inst	0x0008212c ; undefined
    2a9c:	00000000 	udf	#0
    2aa0:	00000084 	udf	#132
    2aa4:	00000000 	udf	#0
    2aa8:	000bc30a 	.inst	0x000bc30a ; undefined
    2aac:	900d2f00 	adrp	x0, 1a5e2000 <_end+0x17bf0870>
    2ab0:	02000002 	.inst	0x02000002 ; undefined
    2ab4:	00007c91 	udf	#31889
    2ab8:	00053f00 	.inst	0x00053f00 ; undefined
    2abc:	01000500 	.inst	0x01000500 ; undefined
    2ac0:	000d1608 	.inst	0x000d1608 ; undefined
    2ac4:	01221100 	.inst	0x01221100 ; undefined
    2ac8:	201d0000 	.inst	0x201d0000 ; undefined
    2acc:	00000001 	udf	#1
    2ad0:	d0000000 	adrp	x0, 4000 <_start-0x7c000>
    2ad4:	00000831 	udf	#2097
    2ad8:	cc000000 	.inst	0xcc000000 ; undefined
    2adc:	00000001 	udf	#1
    2ae0:	43000000 	.inst	0x43000000 ; undefined
    2ae4:	03000013 	.inst	0x03000013 ; undefined
    2ae8:	04550508 	.inst	0x04550508 ; undefined
    2aec:	08030000 	stxrb	w3, w0, [x0]
    2af0:	00004c07 	udf	#19463
    2af4:	07040300 	.inst	0x07040300 ; undefined
    2af8:	00000051 	udf	#81
    2afc:	50050803 	adr	x3, cbfe <_start-0x73402>
    2b00:	03000004 	.inst	0x03000004 ; undefined
    2b04:	04e90410 	sub	z16.d, z0.d, z9.d
    2b08:	de0a0000 	.inst	0xde0a0000 ; undefined
    2b0c:	10000004 	adr	x4, 2b0c <_start-0x7d4f4>
    2b10:	11070201 	add	w1, w16, #0x1c0
    2b14:	01000002 	.inst	0x01000002 ; undefined
    2b18:	02003078 	.inst	0x02003078 ; undefined
    2b1c:	00351308 	.inst	0x00351308 ; NYI
    2b20:	01000000 	.inst	0x01000000 ; undefined
    2b24:	02003178 	.inst	0x02003178 ; undefined
    2b28:	00351309 	.inst	0x00351309 ; NYI
    2b2c:	01080000 	.inst	0x01080000 ; undefined
    2b30:	02003278 	.inst	0x02003278 ; undefined
    2b34:	0035130a 	.inst	0x0035130a ; NYI
    2b38:	01100000 	.inst	0x01100000 ; undefined
    2b3c:	02003378 	.inst	0x02003378 ; undefined
    2b40:	0035130b 	.inst	0x0035130b ; NYI
    2b44:	01180000 	.inst	0x01180000 ; undefined
    2b48:	02003478 	.inst	0x02003478 ; undefined
    2b4c:	0035130c 	.inst	0x0035130c ; NYI
    2b50:	01200000 	.inst	0x01200000 ; undefined
    2b54:	02003578 	.inst	0x02003578 ; undefined
    2b58:	0035130d 	.inst	0x0035130d ; NYI
    2b5c:	01280000 	.inst	0x01280000 ; undefined
    2b60:	02003678 	.inst	0x02003678 ; undefined
    2b64:	0035130e 	.inst	0x0035130e ; NYI
    2b68:	01300000 	.inst	0x01300000 ; undefined
    2b6c:	02003778 	.inst	0x02003778 ; undefined
    2b70:	0035130f 	.inst	0x0035130f ; NYI
    2b74:	01380000 	.inst	0x01380000 ; undefined
    2b78:	02003878 	.inst	0x02003878 ; undefined
    2b7c:	00351310 	.inst	0x00351310 ; NYI
    2b80:	01400000 	.inst	0x01400000 ; undefined
    2b84:	02003978 	.inst	0x02003978 ; undefined
    2b88:	00351311 	.inst	0x00351311 ; NYI
    2b8c:	01480000 	.inst	0x01480000 ; undefined
    2b90:	00303178 	.inst	0x00303178 ; NYI
    2b94:	35131202 	cbnz	w2, 28dd4 <_start-0x5722c>
    2b98:	50000000 	adr	x0, 2b9a <_start-0x7d466>
    2b9c:	31317801 	adds	w1, w0, #0xc5e
    2ba0:	13130200 	sbfiz	w0, w16, #13, #1
    2ba4:	00000035 	udf	#53
    2ba8:	31780158 	adds	w24, w10, #0xe00, lsl #12
    2bac:	14020032 	b	82c74 <do_cmd_setTimer+0x14>
    2bb0:	00003513 	udf	#13587
    2bb4:	78016000 	sturh	w0, [x0, #22]
    2bb8:	02003331 	.inst	0x02003331 ; undefined
    2bbc:	00351315 	.inst	0x00351315 ; NYI
    2bc0:	01680000 	.inst	0x01680000 ; undefined
    2bc4:	00343178 	.inst	0x00343178 ; NYI
    2bc8:	35131602 	cbnz	w2, 28e88 <_start-0x57178>
    2bcc:	70000000 	adr	x0, 2bcf <_start-0x7d431>
    2bd0:	35317801 	cbnz	w1, 65ad0 <_start-0x1a530>
    2bd4:	13170200 	sbfiz	w0, w16, #9, #1
    2bd8:	00000035 	udf	#53
    2bdc:	31780178 	adds	w24, w11, #0xe00, lsl #12
    2be0:	18020036 	ldr	w22, 6be4 <_start-0x7941c>
    2be4:	00003513 	udf	#13587
    2be8:	78018000 	sturh	w0, [x0, #24]
    2bec:	02003731 	.inst	0x02003731 ; undefined
    2bf0:	00351319 	.inst	0x00351319 ; NYI
    2bf4:	01880000 	.inst	0x01880000 ; undefined
    2bf8:	00383178 	.inst	0x00383178 ; NYI
    2bfc:	35131a02 	cbnz	w2, 28f3c <_start-0x570c4>
    2c00:	90000000 	adrp	x0, 2000 <_start-0x7e000>
    2c04:	39317801 	strb	w1, [x0, #3166]
    2c08:	131b0200 	sbfiz	w0, w16, #5, #1
    2c0c:	00000035 	udf	#53
    2c10:	32780198 	.inst	0x32780198 ; undefined
    2c14:	1c020030 	ldr	s16, 6c18 <_start-0x793e8>
    2c18:	00003513 	udf	#13587
    2c1c:	7801a000 	sturh	w0, [x0, #26]
    2c20:	02003132 	.inst	0x02003132 ; undefined
    2c24:	0035131d 	.inst	0x0035131d ; NYI
    2c28:	01a80000 	.inst	0x01a80000 ; undefined
    2c2c:	00323278 	.inst	0x00323278 ; NYI
    2c30:	35131e02 	cbnz	w2, 28ff0 <_start-0x57010>
    2c34:	b0000000 	adrp	x0, 3000 <_start-0x7d000>
    2c38:	33327801 	.inst	0x33327801 ; undefined
    2c3c:	131f0200 	sbfiz	w0, w16, #1, #1
    2c40:	00000035 	udf	#53
    2c44:	327801b8 	.inst	0x327801b8 ; undefined
    2c48:	20020034 	.inst	0x20020034 ; undefined
    2c4c:	00003513 	udf	#13587
    2c50:	7801c000 	sturh	w0, [x0, #28]
    2c54:	02003532 	.inst	0x02003532 ; undefined
    2c58:	00351321 	.inst	0x00351321 ; NYI
    2c5c:	01c80000 	.inst	0x01c80000 ; undefined
    2c60:	00363278 	.inst	0x00363278 ; NYI
    2c64:	35132202 	cbnz	w2, 290a4 <_start-0x56f5c>
    2c68:	d0000000 	adrp	x0, 4000 <_start-0x7c000>
    2c6c:	37327801 	tbnz	w1, #6, 7b6c <_start-0x78494>
    2c70:	13230200 	.inst	0x13230200 ; undefined
    2c74:	00000035 	udf	#53
    2c78:	327801d8 	.inst	0x327801d8 ; undefined
    2c7c:	24020038 	cmphi	p8.b, p0/z, z1.b, z2.b
    2c80:	00003513 	udf	#13587
    2c84:	7801e000 	sturh	w0, [x0, #30]
    2c88:	02003932 	.inst	0x02003932 ; undefined
    2c8c:	00351325 	.inst	0x00351325 ; NYI
    2c90:	01e80000 	.inst	0x01e80000 ; undefined
    2c94:	00303378 	.inst	0x00303378 ; NYI
    2c98:	35132602 	cbnz	w2, 29158 <_start-0x56ea8>
    2c9c:	f0000000 	adrp	x0, 5000 <_start-0x7b000>
    2ca0:	0005ad02 	.inst	0x0005ad02 ; undefined
    2ca4:	13270200 	.inst	0x13270200 ; undefined
    2ca8:	00000035 	udf	#53
    2cac:	039804f8 	.inst	0x039804f8 ; undefined
    2cb0:	28020000 	stnp	w0, w0, [x0, #16]
    2cb4:	00003513 	udf	#13587
    2cb8:	04010000 	sub	z0.b, p0/m, z0.b, z0.b
    2cbc:	000005dc 	udf	#1500
    2cc0:	35132902 	cbnz	w2, 291e0 <_start-0x56e20>
    2cc4:	08000000 	stxrb	w0, w0, [x0]
    2cc8:	de080001 	.inst	0xde080001 ; undefined
    2ccc:	02000004 	.inst	0x02000004 ; undefined
    2cd0:	0000512a 	udf	#20778
    2cd4:	07080300 	.inst	0x07080300 ; undefined
    2cd8:	00000047 	udf	#71
    2cdc:	04130812 	umulh	z18.b, p2/m, z18.b, z0.b
    2ce0:	746e6905 	.inst	0x746e6905 ; undefined
    2ce4:	03d11400 	.inst	0x03d11400 ; undefined
    2ce8:	03680000 	.inst	0x03680000 ; undefined
    2cec:	02e01009 	.inst	0x02e01009 ; undefined
    2cf0:	78010000 	sturh	w0, [x0, #16]
    2cf4:	03003931 	.inst	0x03003931 ; undefined
    2cf8:	0035130d 	.inst	0x0035130d ; NYI
    2cfc:	01000000 	.inst	0x01000000 ; undefined
    2d00:	00303278 	.inst	0x00303278 ; NYI
    2d04:	35130e03 	cbnz	w3, 28ec4 <_start-0x5713c>
    2d08:	08000000 	stxrb	w0, w0, [x0]
    2d0c:	31327801 	adds	w1, w0, #0xc9e
    2d10:	130f0300 	sbfiz	w0, w24, #17, #1
    2d14:	00000035 	udf	#53
    2d18:	32780110 	.inst	0x32780110 ; undefined
    2d1c:	10030032 	adr	x18, 8d20 <_start-0x772e0>
    2d20:	00003513 	udf	#13587
    2d24:	78011800 	sttrh	w0, [x0, #17]
    2d28:	03003332 	.inst	0x03003332 ; undefined
    2d2c:	00351311 	.inst	0x00351311 ; NYI
    2d30:	01200000 	.inst	0x01200000 ; undefined
    2d34:	00343278 	.inst	0x00343278 ; NYI
    2d38:	35131203 	cbnz	w3, 28f78 <_start-0x57088>
    2d3c:	28000000 	stnp	w0, w0, [x0]
    2d40:	35327801 	cbnz	w1, 67c40 <_start-0x183c0>
    2d44:	13130300 	sbfiz	w0, w24, #13, #1
    2d48:	00000035 	udf	#53
    2d4c:	32780130 	.inst	0x32780130 ; undefined
    2d50:	14030036 	b	c2e28 <thread_list+0x3a408>
    2d54:	00003513 	udf	#13587
    2d58:	78013800 	sttrh	w0, [x0, #19]
    2d5c:	03003732 	.inst	0x03003732 ; undefined
    2d60:	00351315 	.inst	0x00351315 ; NYI
    2d64:	01400000 	.inst	0x01400000 ; undefined
    2d68:	00383278 	.inst	0x00383278 ; NYI
    2d6c:	35131603 	cbnz	w3, 2902c <_start-0x56fd4>
    2d70:	48000000 	stxrh	w0, w0, [x0]
    2d74:	00706601 	.inst	0x00706601 ; undefined
    2d78:	35131803 	cbnz	w3, 29078 <_start-0x56f88>
    2d7c:	50000000 	adr	x0, 2d7e <_start-0x7d282>
    2d80:	00726c01 	.inst	0x00726c01 ; undefined
    2d84:	35131903 	cbnz	w3, 290a4 <_start-0x56f5c>
    2d88:	58000000 	ldr	x0, 2d88 <_start-0x7d278>
    2d8c:	00707301 	.inst	0x00707301 ; undefined
    2d90:	35131a03 	cbnz	w3, 290d0 <_start-0x56f30>
    2d94:	60000000 	.inst	0x60000000 ; undefined
    2d98:	03d10800 	.inst	0x03d10800 ; undefined
    2d9c:	1b030000 	madd	w0, w0, w3, w0
    2da0:	0000022c 	udf	#556
    2da4:	000e1b0a 	.inst	0x000e1b0a ; undefined
    2da8:	03043000 	.inst	0x03043000 ; undefined
    2dac:	0003c01d 	.inst	0x0003c01d ; undefined
    2db0:	03d80200 	.inst	0x03d80200 ; undefined
    2db4:	1e030000 	.inst	0x1e030000 ; undefined
    2db8:	0002e014 	.inst	0x0002e014 ; undefined
    2dbc:	3a020000 	adcs	w0, w0, w2
    2dc0:	03000006 	.inst	0x03000006 ; undefined
    2dc4:	03c0141f 	.inst	0x03c0141f ; undefined
    2dc8:	02680000 	.inst	0x02680000 ; undefined
    2dcc:	00000617 	udf	#1559
    2dd0:	c0142003 	.inst	0xc0142003 ; undefined
    2dd4:	70000003 	adr	x3, 2dd7 <_start-0x7d229>
    2dd8:	64697001 	.inst	0x64697001 ; undefined
    2ddc:	09210300 	.inst	0x09210300 ; undefined
    2de0:	00000225 	udf	#549
    2de4:	08470278 	ldxrb	w24, [x19]
    2de8:	22030000 	.inst	0x22030000 ; undefined
    2dec:	0003c50b 	.inst	0x0003c50b ; undefined
    2df0:	fd028000 	str	d0, [x0, #1280]
    2df4:	03000003 	.inst	0x03000003 ; undefined
    2df8:	003c1223 	.inst	0x003c1223 ; NYI
    2dfc:	02880000 	.inst	0x02880000 ; undefined
    2e00:	000005e3 	udf	#1507
    2e04:	25092403 	cmplt	p3.b, p1/z, z0.b, #9
    2e08:	8c000002 	.inst	0x8c000002 ; undefined
    2e0c:	0003a902 	.inst	0x0003a902 ; undefined
    2e10:	09250300 	.inst	0x09250300 ; undefined
    2e14:	00000225 	udf	#549
    2e18:	04960290 	sdivr	z16.s, p0/m, z16.s, z20.s
    2e1c:	26030000 	.inst	0x26030000 ; undefined
    2e20:	0003c50b 	.inst	0x0003c50b ; undefined
    2e24:	29029800 	stp	w0, w6, [x0, #20]
    2e28:	03000006 	.inst	0x03000006 ; undefined
    2e2c:	03c50b27 	.inst	0x03c50b27 ; undefined
    2e30:	02a00000 	.inst	0x02a00000 ; undefined
    2e34:	000005d3 	udf	#1491
    2e38:	d1092903 	sub	x3, x8, #0x24a
    2e3c:	a8000003 	stnp	x3, x0, [x0]
    2e40:	0005bb04 	.inst	0x0005bb04 ; undefined
    2e44:	0c2a0300 	.inst	0x0c2a0300 ; undefined
    2e48:	000003e1 	udf	#993
    2e4c:	b60401b0 	tbz	x16, #32, ffffffffffffae80 <_end+0xfffffffffd6096f0>
    2e50:	03000005 	.inst	0x03000005 ; undefined
    2e54:	03f10c2b 	.inst	0x03f10c2b ; undefined
    2e58:	03b80000 	.inst	0x03b80000 ; undefined
    2e5c:	00046804 	.inst	0x00046804 ; undefined
    2e60:	092c0300 	.inst	0x092c0300 ; undefined
    2e64:	00000225 	udf	#549
    2e68:	400403c0 	.inst	0x400403c0 ; undefined
    2e6c:	03000005 	.inst	0x03000005 ; undefined
    2e70:	02e0142d 	.inst	0x02e0142d ; undefined
    2e74:	03c80000 	.inst	0x03c80000 ; undefined
    2e78:	02eb0500 	.inst	0x02eb0500 ; undefined
    2e7c:	ca050000 	eor	x0, x0, x5
    2e80:	03000003 	.inst	0x03000003 ; undefined
    2e84:	05220801 	ext	z1.b, z1.b, z0.b, #18
    2e88:	250b0000 	cmpge	p0.b, p0/z, z0.b, #11
    2e8c:	e1000002 	ldr	za[w12, 2], [x0, #2, mul vl]
    2e90:	0c000003 	st4	{v3.8b-v6.8b}, [x0]
    2e94:	00000035 	udf	#53
    2e98:	f10b0040 	subs	x0, x2, #0x2c0
    2e9c:	f1000003 	subs	x3, x0, #0x0
    2ea0:	0c000003 	st4	{v3.8b-v6.8b}, [x0]
    2ea4:	00000035 	udf	#53
    2ea8:	f6050040 	.inst	0xf6050040 ; undefined
    2eac:	15000003 	b	4002eb8 <_end+0x1611728>
    2eb0:	000003fd 	udf	#1021
    2eb4:	1b080006 	madd	w6, w0, w8, w0
    2eb8:	0300000e 	.inst	0x0300000e ; undefined
    2ebc:	0002eb2e 	.inst	0x0002eb2e ; undefined
    2ec0:	08ec1600 	.inst	0x08ec1600 ; undefined
    2ec4:	09050000 	.inst	0x09050000 ; undefined
    2ec8:	00022307 	.inst	0x00022307 ; undefined
    2ecc:	00041e00 	.inst	0x00041e00 ; undefined
    2ed0:	003c0700 	.inst	0x003c0700 ; NYI
    2ed4:	0d000000 	st1	{v0.b}[0], [x0]
    2ed8:	00000d58 	udf	#3416
    2edc:	300d0701 	adr	x1, 1cfbd <_start-0x63043>
    2ee0:	07000004 	.inst	0x07000004 ; undefined
    2ee4:	00000430 	udf	#1072
    2ee8:	02e00500 	.inst	0x02e00500 ; undefined
    2eec:	610e0000 	.inst	0x610e0000 ; undefined
    2ef0:	31000005 	adds	w5, w0, #0x0
    2ef4:	00000441 	udf	#1089
    2ef8:	630e0006 	.inst	0x630e0006 ; undefined
    2efc:	30000005 	adr	x5, 2efd <_start-0x7d103>
    2f00:	0000044d 	udf	#1101
    2f04:	460d0006 	.inst	0x460d0006 ; undefined
    2f08:	02000006 	.inst	0x02000006 ; undefined
    2f0c:	04640634 	sub	z20.h, z17.h, z4.h
    2f10:	64070000 	.inst	0x64070000 ; undefined
    2f14:	07000004 	.inst	0x07000004 ; undefined
    2f18:	00000225 	udf	#549
    2f1c:	02110500 	.inst	0x02110500 ; undefined
    2f20:	58170000 	ldr	x0, 30f20 <_start-0x4f0e0>
    2f24:	0300000c 	.inst	0x0300000c ; undefined
    2f28:	047b1031 	sqadd	z17.h, z1.h, z27.h
    2f2c:	047b0000 	add	z0.h, z0.h, z27.h
    2f30:	00060000 	.inst	0x00060000 ; undefined
    2f34:	0003fd05 	.inst	0x0003fd05 ; undefined
    2f38:	0d0d0f00 	.inst	0x0d0d0f00 ; undefined
    2f3c:	74350000 	.inst	0x74350000 ; undefined
    2f40:	00000833 	udf	#2099
    2f44:	28000000 	stnp	w0, w0, [x0]
    2f48:	00000000 	udf	#0
    2f4c:	01000000 	.inst	0x01000000 ; undefined
    2f50:	0d4d109c 	.inst	0x0d4d109c ; undefined
    2f54:	e0240000 	st1b	{za0h.b[w12, 0]}, p0, [x0, x4]
    2f58:	00000832 	udf	#2098
    2f5c:	94000000 	bl	2f5c <_start-0x7d0a4>
    2f60:	00000000 	udf	#0
    2f64:	01000000 	.inst	0x01000000 ; undefined
    2f68:	0004e09c 	.inst	0x0004e09c ; undefined
    2f6c:	70740900 	adr	x0, eb08f <thread_list+0x6266f>
    2f70:	1d240066 	.inst	0x1d240066 ; undefined
    2f74:	00000464 	udf	#1124
    2f78:	09689102 	.inst	0x09689102 ; undefined
    2f7c:	00786469 	.inst	0x00786469 ; undefined
    2f80:	02252624 	.inst	0x02252624 ; undefined
    2f84:	91020000 	add	x0, x0, #0x80
    2f88:	0d3b1864 	.inst	0x0d3b1864 ; undefined
    2f8c:	2e010000 	ext	v0.8b, v0.8b, v1.8b, #0
    2f90:	0003c50b 	.inst	0x0003c50b ; undefined
    2f94:	78910200 	ldursh	x0, [x16, #-240]
    2f98:	04891000 	umax	z0.s, p4/m, z0.s, z0.s
    2f9c:	f80d0000 	stur	x0, [x0, #208]
    2fa0:	00000831 	udf	#2097
    2fa4:	e8000000 	.inst	0xe8000000 ; undefined
    2fa8:	00000000 	udf	#0
    2fac:	01000000 	.inst	0x01000000 ; undefined
    2fb0:	00052a9c 	.inst	0x00052a9c ; undefined
    2fb4:	70740900 	adr	x0, eb0d7 <thread_list+0x626b7>
    2fb8:	1f0d0066 	fmadd	s6, s3, s13, s0
    2fbc:	00000464 	udf	#1124
    2fc0:	19689102 	.inst	0x19689102 ; undefined
    2fc4:	0008322c 	.inst	0x0008322c ; undefined
    2fc8:	00000000 	udf	#0
    2fcc:	00000094 	udf	#148
    2fd0:	00000000 	udf	#0
    2fd4:	0100691a 	.inst	0x0100691a ; undefined
    2fd8:	02250e15 	.inst	0x02250e15 ; undefined
    2fdc:	91020000 	add	x0, x0, #0x80
    2fe0:	0f00007c 	.inst	0x0f00007c ; undefined
    2fe4:	00000d24 	udf	#3364
    2fe8:	0831d009 	.inst	0x0831d009 ; undefined
    2fec:	00000000 	udf	#0
    2ff0:	00002800 	udf	#10240
    2ff4:	00000000 	udf	#0
    2ff8:	009c0100 	.inst	0x009c0100 ; undefined
    2ffc:	00000b52 	udf	#2898
    3000:	08010005 	stxrb	w1, w5, [x0]
    3004:	00000ea5 	udf	#3749
    3008:	0001221c 	.inst	0x0001221c ; undefined
    300c:	012d1d00 	.inst	0x012d1d00 ; undefined
    3010:	00000000 	udf	#0
    3014:	339c0000 	.inst	0x339c0000 ; undefined
    3018:	00000008 	udf	#8
    301c:	08280000 	.inst	0x08280000 ; undefined
    3020:	00000000 	udf	#0
    3024:	14520000 	b	1483024 <_heap_stack_size+0xc83024>
    3028:	08090000 	stxrb	w9, w0, [x0]
    302c:	00045505 	.inst	0x00045505 ; undefined
    3030:	03b21200 	.inst	0x03b21200 ; undefined
    3034:	d1030000 	sub	x0, x0, #0xc0
    3038:	00004117 	udf	#16663
    303c:	07080900 	.inst	0x07080900 ; undefined
    3040:	0000004c 	udf	#76
    3044:	51070409 	sub	w9, w0, #0x1c1
    3048:	09000000 	.inst	0x09000000 ; undefined
    304c:	04500508 	mul	z8.h, p1/m, z8.h, z8.h
    3050:	10090000 	adr	x0, 15050 <_start-0x6afb0>
    3054:	0004e904 	.inst	0x0004e904 ; undefined
    3058:	04de1600 	.inst	0x04de1600 ; undefined
    305c:	01100000 	.inst	0x01100000 ; undefined
    3060:	021d0702 	.inst	0x021d0702 ; undefined
    3064:	78010000 	sturh	w0, [x0, #16]
    3068:	08020030 	stxrb	w2, w16, [x1]
    306c:	00004113 	udf	#16659
    3070:	78010000 	sturh	w0, [x0, #16]
    3074:	09020031 	.inst	0x09020031 ; undefined
    3078:	00004113 	udf	#16659
    307c:	78010800 	sttrh	w0, [x0, #16]
    3080:	0a020032 	and	w18, w1, w2
    3084:	00004113 	udf	#16659
    3088:	78011000 	sturh	w0, [x0, #17]
    308c:	0b020033 	add	w19, w1, w2
    3090:	00004113 	udf	#16659
    3094:	78011800 	sttrh	w0, [x0, #17]
    3098:	0c020034 	.inst	0x0c020034 ; undefined
    309c:	00004113 	udf	#16659
    30a0:	78012000 	sturh	w0, [x0, #18]
    30a4:	0d020035 	.inst	0x0d020035 ; undefined
    30a8:	00004113 	udf	#16659
    30ac:	78012800 	sttrh	w0, [x0, #18]
    30b0:	0e020036 	tbl	v22.8b, {v1.16b}, v2.8b
    30b4:	00004113 	udf	#16659
    30b8:	78013000 	sturh	w0, [x0, #19]
    30bc:	0f020037 	.inst	0x0f020037 ; undefined
    30c0:	00004113 	udf	#16659
    30c4:	78013800 	sttrh	w0, [x0, #19]
    30c8:	10020038 	adr	x24, 70cc <_start-0x78f34>
    30cc:	00004113 	udf	#16659
    30d0:	78014000 	sturh	w0, [x0, #20]
    30d4:	11020039 	add	w25, w1, #0x80
    30d8:	00004113 	udf	#16659
    30dc:	78014800 	sttrh	w0, [x0, #20]
    30e0:	02003031 	.inst	0x02003031 ; undefined
    30e4:	00411312 	.inst	0x00411312 ; undefined
    30e8:	01500000 	.inst	0x01500000 ; undefined
    30ec:	00313178 	.inst	0x00313178 ; NYI
    30f0:	41131302 	.inst	0x41131302 ; undefined
    30f4:	58000000 	ldr	x0, 30f4 <_start-0x7cf0c>
    30f8:	32317801 	orr	w1, w0, #0xffffbfff
    30fc:	13140200 	sbfiz	w0, w16, #12, #1
    3100:	00000041 	udf	#65
    3104:	31780160 	adds	w0, w11, #0xe00, lsl #12
    3108:	15020033 	b	40831d4 <_end+0x1691a44>
    310c:	00004113 	udf	#16659
    3110:	78016800 	sttrh	w0, [x0, #22]
    3114:	02003431 	.inst	0x02003431 ; undefined
    3118:	00411316 	.inst	0x00411316 ; undefined
    311c:	01700000 	.inst	0x01700000 ; undefined
    3120:	00353178 	.inst	0x00353178 ; NYI
    3124:	41131702 	.inst	0x41131702 ; undefined
    3128:	78000000 	sturh	w0, [x0]
    312c:	36317801 	tbz	w1, #6, 602c <_start-0x79fd4>
    3130:	13180200 	sbfiz	w0, w16, #8, #1
    3134:	00000041 	udf	#65
    3138:	31780180 	adds	w0, w12, #0xe00, lsl #12
    313c:	19020037 	stlurb	w23, [x1, #32]
    3140:	00004113 	udf	#16659
    3144:	78018800 	sttrh	w0, [x0, #24]
    3148:	02003831 	.inst	0x02003831 ; undefined
    314c:	0041131a 	.inst	0x0041131a ; undefined
    3150:	01900000 	.inst	0x01900000 ; undefined
    3154:	00393178 	.inst	0x00393178 ; NYI
    3158:	41131b02 	.inst	0x41131b02 ; undefined
    315c:	98000000 	ldrsw	x0, 315c <_start-0x7cea4>
    3160:	30327801 	adr	x1, 68061 <_start-0x17f9f>
    3164:	131c0200 	sbfiz	w0, w16, #4, #1
    3168:	00000041 	udf	#65
    316c:	327801a0 	.inst	0x327801a0 ; undefined
    3170:	1d020031 	.inst	0x1d020031 ; undefined
    3174:	00004113 	udf	#16659
    3178:	7801a800 	sttrh	w0, [x0, #26]
    317c:	02003232 	.inst	0x02003232 ; undefined
    3180:	0041131e 	.inst	0x0041131e ; undefined
    3184:	01b00000 	.inst	0x01b00000 ; undefined
    3188:	00333278 	.inst	0x00333278 ; NYI
    318c:	41131f02 	.inst	0x41131f02 ; undefined
    3190:	b8000000 	stur	w0, [x0]
    3194:	34327801 	cbz	w1, 68094 <_start-0x17f6c>
    3198:	13200200 	.inst	0x13200200 ; undefined
    319c:	00000041 	udf	#65
    31a0:	327801c0 	.inst	0x327801c0 ; undefined
    31a4:	21020035 	.inst	0x21020035 ; undefined
    31a8:	00004113 	udf	#16659
    31ac:	7801c800 	sttrh	w0, [x0, #28]
    31b0:	02003632 	.inst	0x02003632 ; undefined
    31b4:	00411322 	.inst	0x00411322 ; undefined
    31b8:	01d00000 	.inst	0x01d00000 ; undefined
    31bc:	00373278 	.inst	0x00373278 ; NYI
    31c0:	41132302 	.inst	0x41132302 ; undefined
    31c4:	d8000000 	prfm	pldl1keep, 31c4 <_start-0x7ce3c>
    31c8:	38327801 	strb	w1, [x0, x18, lsl #0]
    31cc:	13240200 	.inst	0x13240200 ; undefined
    31d0:	00000041 	udf	#65
    31d4:	327801e0 	.inst	0x327801e0 ; undefined
    31d8:	25020039 	cmpgt	p9.b, p0/z, z1.b, #2
    31dc:	00004113 	udf	#16659
    31e0:	7801e800 	sttrh	w0, [x0, #30]
    31e4:	02003033 	.inst	0x02003033 ; undefined
    31e8:	00411326 	.inst	0x00411326 ; undefined
    31ec:	02f00000 	.inst	0x02f00000 ; undefined
    31f0:	000005ad 	udf	#1453
    31f4:	41132702 	.inst	0x41132702 ; undefined
    31f8:	f8000000 	stur	x0, [x0]
    31fc:	0003980b 	.inst	0x0003980b ; undefined
    3200:	13280200 	.inst	0x13280200 ; undefined
    3204:	00000041 	udf	#65
    3208:	dc0b0100 	.inst	0xdc0b0100 ; undefined
    320c:	02000005 	.inst	0x02000005 ; undefined
    3210:	00411329 	.inst	0x00411329 ; undefined
    3214:	01080000 	.inst	0x01080000 ; undefined
    3218:	04de1200 	.inst	0x04de1200 ; undefined
    321c:	2a020000 	orr	w0, w0, w2
    3220:	00005d03 	udf	#23811
    3224:	00171700 	.inst	0x00171700 ; undefined
    3228:	046e0000 	add	z0.h, z0.h, z14.h
    322c:	02ed080f 	.inst	0x02ed080f ; undefined
    3230:	28020000 	stnp	w0, w0, [x0, #16]
    3234:	04000000 	add	z0.b, p0/m, z0.b, z0.b
    3238:	02ed0710 	.inst	0x02ed0710 ; undefined
    323c:	02000000 	.inst	0x02000000 ; undefined
    3240:	000000c0 	udf	#192
    3244:	09071104 	.inst	0x09071104 ; undefined
    3248:	06000003 	.inst	0x06000003 ; undefined
    324c:	0000dd02 	udf	#56578
    3250:	07120400 	.inst	0x07120400 ; undefined
    3254:	00000309 	udf	#777
    3258:	0008020e 	.inst	0x0008020e ; undefined
    325c:	13040000 	sbfiz	w0, w0, #28, #1
    3260:	00030907 	.inst	0x00030907 ; undefined
    3264:	f8021600 	str	x0, [x16], #33
    3268:	04000000 	add	z0.b, p0/m, z0.b, z0.b
    326c:	03090714 	.inst	0x03090714 ; undefined
    3270:	021e0000 	.inst	0x021e0000 ; undefined
    3274:	000000fe 	udf	#254
    3278:	09071504 	.inst	0x09071504 ; undefined
    327c:	26000003 	.inst	0x26000003 ; undefined
    3280:	00000002 	udf	#2
    3284:	07160400 	.inst	0x07160400 ; undefined
    3288:	00000309 	udf	#777
    328c:	005e022e 	.inst	0x005e022e ; undefined
    3290:	17040000 	b	fffffffffc103290 <_end+0xfffffffff9711b00>
    3294:	00030907 	.inst	0x00030907 ; undefined
    3298:	92023600 	and	x0, x16, #0xc0000fffc0000fff
    329c:	04000000 	add	z0.b, p0/m, z0.b, z0.b
    32a0:	03090718 	.inst	0x03090718 ; undefined
    32a4:	023e0000 	.inst	0x023e0000 ; undefined
    32a8:	0000003c 	udf	#60
    32ac:	09071904 	.inst	0x09071904 ; undefined
    32b0:	46000003 	.inst	0x46000003 ; undefined
    32b4:	00003002 	udf	#12290
    32b8:	071a0400 	.inst	0x071a0400 ; undefined
    32bc:	00000309 	udf	#777
    32c0:	00e4024e 	.inst	0x00e4024e ; undefined
    32c4:	1b040000 	madd	w0, w0, w4, w0
    32c8:	00030907 	.inst	0x00030907 ; undefined
    32cc:	b5025600 	cbnz	x0, 7d8c <_start-0x78274>
    32d0:	04000000 	add	z0.b, p0/m, z0.b, z0.b
    32d4:	0309071c 	.inst	0x0309071c ; undefined
    32d8:	025e0000 	.inst	0x025e0000 ; undefined
    32dc:	0000011a 	udf	#282
    32e0:	09071d04 	.inst	0x09071d04 ; undefined
    32e4:	66000003 	.inst	0x66000003 ; undefined
    32e8:	02fd0c00 	.inst	0x02fd0c00 ; undefined
    32ec:	02fd0000 	.inst	0x02fd0000 ; undefined
    32f0:	41130000 	.inst	0x41130000 ; undefined
    32f4:	05000000 	orr	z0.s, z0.s, #0x1
    32f8:	08010900 	stxrb	w1, w0, [x8]
    32fc:	00000522 	udf	#1314
    3300:	0002fd18 	.inst	0x0002fd18 ; undefined
    3304:	02fd0c00 	.inst	0x02fd0c00 ; undefined
    3308:	03190000 	.inst	0x03190000 ; undefined
    330c:	41130000 	.inst	0x41130000 ; undefined
    3310:	07000000 	.inst	0x07000000 ; undefined
    3314:	07080900 	.inst	0x07080900 ; undefined
    3318:	00000047 	udf	#71
    331c:	a819081d 	stnp	x29, x2, [x0, #400]
    3320:	48000007 	stxrh	w0, w7, [x0]
    3324:	15000000 	b	4003324 <_end+0x1611b94>
    3328:	0000034c 	udf	#844
    332c:	0007510d 	.inst	0x0007510d ; undefined
    3330:	00000000 	udf	#0
    3334:	07830d80 	.inst	0x07830d80 ; undefined
    3338:	00000000 	udf	#0
    333c:	e60d4000 	.inst	0xe60d4000 ; undefined
    3340:	ff000007 	.inst	0xff000007 ; undefined
    3344:	00400000 	.inst	0x00400000 ; undefined
    3348:	00083419 	.inst	0x00083419 ; undefined
    334c:	00004800 	udf	#18432
    3350:	03731b00 	.inst	0x03731b00 ; undefined
    3354:	bd1e0000 	str	s0, [x0, #7680]
    3358:	00000007 	udf	#7
    335c:	00070a0d 	.inst	0x00070a0d ; undefined
    3360:	00000000 	udf	#0
    3364:	076f0d80 	.inst	0x076f0d80 ; undefined
    3368:	00010000 	.inst	0x00010000 ; undefined
    336c:	1f008000 	fmsub	s0, s0, s0, s0
    3370:	6e690504 	uhadd	v4.8h, v8.8h, v9.8h
    3374:	d1170074 	sub	x20, x3, #0x5c0
    3378:	68000003 	.inst	0x68000003 ; undefined
    337c:	2e100906 	ext	v6.8b, v8.8b, v16.8b, #1
    3380:	01000004 	.inst	0x01000004 ; undefined
    3384:	00393178 	.inst	0x00393178 ; NYI
    3388:	41130d06 	.inst	0x41130d06 ; undefined
    338c:	00000000 	udf	#0
    3390:	30327801 	adr	x1, 68291 <_start-0x17d6f>
    3394:	130e0600 	sbfiz	w0, w16, #18, #2
    3398:	00000041 	udf	#65
    339c:	32780108 	.inst	0x32780108 ; undefined
    33a0:	0f060031 	.inst	0x0f060031 ; undefined
    33a4:	00004113 	udf	#16659
    33a8:	78011000 	sturh	w0, [x0, #17]
    33ac:	06003232 	.inst	0x06003232 ; undefined
    33b0:	00411310 	.inst	0x00411310 ; undefined
    33b4:	01180000 	.inst	0x01180000 ; undefined
    33b8:	00333278 	.inst	0x00333278 ; NYI
    33bc:	41131106 	.inst	0x41131106 ; undefined
    33c0:	20000000 	.inst	0x20000000 ; undefined
    33c4:	34327801 	cbz	w1, 682c4 <_start-0x17d3c>
    33c8:	13120600 	sbfiz	w0, w16, #14, #2
    33cc:	00000041 	udf	#65
    33d0:	32780128 	.inst	0x32780128 ; undefined
    33d4:	13060035 	sbfiz	w21, w1, #26, #1
    33d8:	00004113 	udf	#16659
    33dc:	78013000 	sturh	w0, [x0, #19]
    33e0:	06003632 	.inst	0x06003632 ; undefined
    33e4:	00411314 	.inst	0x00411314 ; undefined
    33e8:	01380000 	.inst	0x01380000 ; undefined
    33ec:	00373278 	.inst	0x00373278 ; NYI
    33f0:	41131506 	.inst	0x41131506 ; undefined
    33f4:	40000000 	.inst	0x40000000 ; undefined
    33f8:	38327801 	strb	w1, [x0, x18, lsl #0]
    33fc:	13160600 	sbfiz	w0, w16, #10, #2
    3400:	00000041 	udf	#65
    3404:	70660148 	adr	x8, cf42f <thread_list+0x46a0f>
    3408:	13180600 	sbfiz	w0, w16, #8, #2
    340c:	00000041 	udf	#65
    3410:	726c0150 	.inst	0x726c0150 ; undefined
    3414:	13190600 	sbfiz	w0, w16, #7, #2
    3418:	00000041 	udf	#65
    341c:	70730158 	adr	x24, e9447 <thread_list+0x60a27>
    3420:	131a0600 	sbfiz	w0, w16, #6, #2
    3424:	00000041 	udf	#65
    3428:	d1120060 	sub	x0, x3, #0x480
    342c:	06000003 	.inst	0x06000003 ; undefined
    3430:	037a031b 	.inst	0x037a031b ; undefined
    3434:	1b160000 	madd	w0, w0, w22, w0
    3438:	3000000e 	adr	x14, 3439 <_start-0x7cbc7>
    343c:	0f1d0604 	sshr	v4.4h, v16.4h, #3
    3440:	02000005 	.inst	0x02000005 ; undefined
    3444:	000003d8 	udf	#984
    3448:	2e141e06 	.inst	0x2e141e06 ; undefined
    344c:	00000004 	udf	#4
    3450:	00063a02 	.inst	0x00063a02 ; undefined
    3454:	141f0600 	b	7c4c54 <_bss_size+0x397a6c>
    3458:	0000050f 	udf	#1295
    345c:	06170268 	.inst	0x06170268 ; undefined
    3460:	20060000 	.inst	0x20060000 ; undefined
    3464:	00050f14 	.inst	0x00050f14 ; undefined
    3468:	70017000 	adr	x0, 626b <_start-0x79d95>
    346c:	06006469 	.inst	0x06006469 ; undefined
    3470:	03730921 	.inst	0x03730921 ; undefined
    3474:	02780000 	.inst	0x02780000 ; undefined
    3478:	00000847 	udf	#2119
    347c:	140b2206 	b	2cbc94 <thread_list+0x243274>
    3480:	80000005 	.inst	0x80000005 ; undefined
    3484:	0003fd02 	.inst	0x0003fd02 ; undefined
    3488:	12230600 	and	w0, w16, #0x60000000
    348c:	00000048 	udf	#72
    3490:	05e30288 	.inst	0x05e30288 ; undefined
    3494:	24060000 	cmphs	p0.b, p0/z, z0.b, z6.b
    3498:	00037309 	.inst	0x00037309 ; undefined
    349c:	a9028c00 	stp	x0, x3, [x0, #40]
    34a0:	06000003 	.inst	0x06000003 ; undefined
    34a4:	03730925 	.inst	0x03730925 ; undefined
    34a8:	02900000 	.inst	0x02900000 ; undefined
    34ac:	00000496 	udf	#1174
    34b0:	140b2606 	b	2cccc8 <thread_list+0x2442a8>
    34b4:	98000005 	ldrsw	x5, 34b4 <_start-0x7cb4c>
    34b8:	00062902 	.inst	0x00062902 ; undefined
    34bc:	0b270600 	add	w0, w16, w7, uxtb #1
    34c0:	00000514 	udf	#1300
    34c4:	05d302a0 	mov	z0.d, p3/z, #21
    34c8:	29060000 	stp	w0, w0, [x0, #48]
    34cc:	00051e09 	.inst	0x00051e09 ; undefined
    34d0:	bb0ba800 	.inst	0xbb0ba800 ; undefined
    34d4:	06000005 	.inst	0x06000005 ; undefined
    34d8:	052e0c2a 	ext	z10.b, z10.b, z1.b, #115
    34dc:	01b00000 	.inst	0x01b00000 ; undefined
    34e0:	0005b60b 	.inst	0x0005b60b ; undefined
    34e4:	0c2b0600 	.inst	0x0c2b0600 ; undefined
    34e8:	0000053e 	udf	#1342
    34ec:	680b03b8 	.inst	0x680b03b8 ; undefined
    34f0:	06000004 	.inst	0x06000004 ; undefined
    34f4:	0373092c 	.inst	0x0373092c ; undefined
    34f8:	03c00000 	.inst	0x03c00000 ; undefined
    34fc:	0005400b 	.inst	0x0005400b ; undefined
    3500:	142d0600 	b	b44d00 <_heap_stack_size+0x344d00>
    3504:	0000042e 	udf	#1070
    3508:	060003c8 	.inst	0x060003c8 ; undefined
    350c:	0000043a 	udf	#1082
    3510:	0002fd06 	.inst	0x0002fd06 ; undefined
    3514:	05141800 	mov	z0.b, p4/z, #-64
    3518:	730c0000 	.inst	0x730c0000 ; undefined
    351c:	2e000003 	ext	v3.8b, v0.8b, v0.8b, #0
    3520:	13000005 	sbfx	w5, w0, #0, #1
    3524:	00000041 	udf	#65
    3528:	3e0c0040 	.inst	0x3e0c0040 ; undefined
    352c:	3e000005 	.inst	0x3e000005 ; undefined
    3530:	13000005 	sbfx	w5, w0, #0, #1
    3534:	00000041 	udf	#65
    3538:	43060040 	.inst	0x43060040 ; undefined
    353c:	20000005 	.inst	0x20000005 ; undefined
    3540:	0000054a 	udf	#1354
    3544:	1b120008 	madd	w8, w0, w18, w0
    3548:	0600000e 	.inst	0x0600000e ; undefined
    354c:	043a032e 	add	z14.b, z25.b, z26.b
    3550:	4a060000 	eor	w0, w0, w6
    3554:	0c000005 	st4	{v5.8b-v8.8b}, [x0]
    3558:	0000054a 	udf	#1354
    355c:	0000056c 	udf	#1388
    3560:	00004121 	udf	#16673
    3564:	007fa600 	.inst	0x007fa600 ; undefined
    3568:	000d661a 	.inst	0x000d661a ; undefined
    356c:	5b0f0d00 	.inst	0x5b0f0d00 ; undefined
    3570:	1a000005 	adc	w5, w0, w0
    3574:	000002d0 	udf	#720
    3578:	03200e0f 	.inst	0x03200e0f ; undefined
    357c:	6c0e0000 	stnp	d0, d0, [x0, #224]
    3580:	0700000c 	.inst	0x0700000c ; undefined
    3584:	0373050a 	.inst	0x0373050a ; undefined
    3588:	059d0000 	mov	z0.s, p13/z, #0
    358c:	9d030000 	.inst	0x9d030000 ; undefined
    3590:	03000005 	.inst	0x03000005 ; undefined
    3594:	0000059d 	udf	#1437
    3598:	03040600 	.inst	0x03040600 ; undefined
    359c:	bf0e0000 	.inst	0xbf0e0000 ; undefined
    35a0:	08000001 	stxrb	w0, w1, [x0]
    35a4:	03730508 	.inst	0x03730508 ; undefined
    35a8:	05b90000 	zip1	z0.q, z0.q, z25.q
    35ac:	14030000 	b	c35ac <thread_list+0x3ab8c>
    35b0:	08000005 	stxrb	w0, w5, [x0]
    35b4:	00c60e00 	.inst	0x00c60e00 ; undefined
    35b8:	21040000 	.inst	0x21040000 ; undefined
    35bc:	00037305 	.inst	0x00037305 ; undefined
    35c0:	0005e300 	.inst	0x0005e300 ; undefined
    35c4:	05e30300 	.inst	0x05e30300 ; undefined
    35c8:	e8030000 	.inst	0xe8030000 ; undefined
    35cc:	03000005 	.inst	0x03000005 ; undefined
    35d0:	000005ed 	udf	#1517
    35d4:	0005e803 	.inst	0x0005e803 ; undefined
    35d8:	05f20300 	.inst	0x05f20300 ; undefined
    35dc:	06000000 	.inst	0x06000000 ; undefined
    35e0:	00000229 	udf	#553
    35e4:	00051406 	.inst	0x00051406 ; undefined
    35e8:	00480600 	.inst	0x00480600 ; undefined
    35ec:	e3060000 	.inst	0xe3060000 ; undefined
    35f0:	14000005 	b	3604 <_start-0x7c9fc>
    35f4:	00000d98 	udf	#3480
    35f8:	090d3306 	.inst	0x090d3306 ; undefined
    35fc:	03000006 	.inst	0x03000006 ; undefined
    3600:	00000609 	udf	#1545
    3604:	042e0600 	sub	z0.b, z16.b, z14.b
    3608:	93140000 	.inst	0x93140000 ; undefined
    360c:	09000008 	.inst	0x09000008 ; undefined
    3610:	0620060a 	.inst	0x0620060a ; undefined
    3614:	20030000 	.inst	0x20030000 ; undefined
    3618:	00000003 	udf	#3
    361c:	0003f40f 	.inst	0x0003f40f ; undefined
    3620:	2d370600 	stp	s0, s1, [x16, #-72]
    3624:	08000006 	stxrb	w0, w6, [x0]
    3628:	0dba0f00 	st2	{v0.b, v1.b}[3], [x24], x26
    362c:	39060000 	strb	w0, [x0, #384]
    3630:	0000063a 	udf	#1594
    3634:	610f0008 	.inst	0x610f0008 ; undefined
    3638:	0a000005 	and	w5, w0, w0
    363c:	00064731 	.inst	0x00064731 ; undefined
    3640:	14000800 	b	5640 <_start-0x7a9c0>
    3644:	00000d58 	udf	#3416
    3648:	590d3206 	stlurh	w6, [x16, #211]
    364c:	03000006 	.inst	0x03000006 ; undefined
    3650:	00000609 	udf	#1545
    3654:	0c4a0e00 	.inst	0x0c4a0e00 ; undefined
    3658:	36060000 	tbz	w0, #0, fffffffffffff658 <_end+0xfffffffffd60dec8>
    365c:	00055609 	.inst	0x00055609 ; undefined
    3660:	00066f00 	.inst	0x00066f00 ; undefined
    3664:	03200300 	.inst	0x03200300 ; undefined
    3668:	0f000000 	.inst	0x0f000000 ; undefined
    366c:	00000563 	udf	#1379
    3670:	067c300a 	.inst	0x067c300a ; undefined
    3674:	00080000 	.inst	0x00080000 ; undefined
    3678:	000d240f 	.inst	0x000d240f ; undefined
    367c:	892a0b00 	.inst	0x892a0b00 ; undefined
    3680:	08000006 	stxrb	w0, w6, [x0]
    3684:	0a3c0e00 	bic	w0, w16, w28, lsl #3
    3688:	0c070000 	.inst	0x0c070000 ; undefined
    368c:	00051407 	.inst	0x00051407 ; undefined
    3690:	0006a900 	.inst	0x0006a900 ; undefined
    3694:	03200300 	.inst	0x03200300 ; undefined
    3698:	a9030000 	stp	x0, x0, [x0, #48]
    369c:	03000006 	.inst	0x03000006 ; undefined
    36a0:	00000319 	udf	#793
    36a4:	06ae0600 	.inst	0x06ae0600 ; undefined
    36a8:	14220000 	b	8836a8 <_heap_stack_size+0x836a8>
    36ac:	00000b4b 	udf	#2891
    36b0:	c1060a08 	.inst	0xc1060a08 ; undefined
    36b4:	03000006 	.inst	0x03000006 ; undefined
    36b8:	000002fd 	udf	#765
    36bc:	0ac81b00 	and	w0, w24, w8, ror #6
    36c0:	09080000 	.inst	0x09080000 ; undefined
    36c4:	0002fd06 	.inst	0x0002fd06 ; undefined
    36c8:	0006d300 	.inst	0x0006d300 ; undefined
    36cc:	1b000800 	madd	w0, w0, w0, w2
    36d0:	00000c58 	udf	#3160
    36d4:	56103106 	.inst	0x56103106 ; undefined
    36d8:	e5000005 	.inst	0xe5000005 ; undefined
    36dc:	08000006 	stxrb	w0, w6, [x0]
    36e0:	0d890a00 	st1	{v0.b}[2], [x16], x9
    36e4:	07c60000 	.inst	0x07c60000 ; undefined
    36e8:	00000514 	udf	#1300
    36ec:	00083b1c 	.inst	0x00083b1c ; undefined
    36f0:	00000000 	udf	#0
    36f4:	000000a8 	udf	#168
    36f8:	00000000 	udf	#0
    36fc:	076d9c01 	.inst	0x076d9c01 ; undefined
    3700:	8e070000 	.inst	0x8e070000 ; undefined
    3704:	c600000c 	.inst	0xc600000c ; undefined
    3708:	0005141c 	.inst	0x0005141c ; undefined
    370c:	48910200 	stllrh	w0, [x16]
    3710:	000c8a04 	.inst	0x000c8a04 ; undefined
    3714:	140bc700 	b	2f5314 <thread_list+0x26c8f4>
    3718:	02000005 	.inst	0x02000005 ; undefined
    371c:	dd047091 	.inst	0xdd047091 ; undefined
    3720:	c7000009 	.inst	0xc7000009 ; undefined
    3724:	00051416 	.inst	0x00051416 ; undefined
    3728:	68910200 	stgp	x0, x0, [x16], #544
    372c:	00006004 	udf	#24580
    3730:	4812c800 	stlxrh	w18, w0, [x0]
    3734:	02000000 	.inst	0x02000000 ; undefined
    3738:	ce046491 	eor3	v17.16b, v4.16b, v4.16b, v25.16b
    373c:	c9000005 	.inst	0xc9000005 ; undefined
    3740:	0005e31e 	.inst	0x0005e31e ; undefined
    3744:	58910200 	ldr	x0, fffffffffff25784 <_end+0xfffffffffd533ff4>
    3748:	083b3c15 	.inst	0x083b3c15 ; undefined
    374c:	00000000 	udf	#0
    3750:	00007000 	udf	#28672
    3754:	00000000 	udf	#0
    3758:	0bc30400 	.inst	0x0bc30400 ; undefined
    375c:	0dcd0000 	ld1	{v0.b}[0], [x0], x13
    3760:	00000373 	udf	#883
    3764:	007c9102 	.inst	0x007c9102 ; undefined
    3768:	0dac0a00 	st2	{v0.b, v1.b}[2], [x16], x12
    376c:	0eb00000 	saddl	v0.2d, v0.2s, v16.2s
    3770:	00000048 	udf	#72
    3774:	00083a70 	.inst	0x00083a70 ; undefined
    3778:	00000000 	udf	#0
    377c:	000000ac 	udf	#172
    3780:	00000000 	udf	#0
    3784:	07f59c01 	.inst	0x07f59c01 ; undefined
    3788:	8e070000 	.inst	0x8e070000 ; undefined
    378c:	b000000c 	adrp	x12, 4000 <_start-0x7c000>
    3790:	00051422 	.inst	0x00051422 ; undefined
    3794:	48910200 	stllrh	w0, [x16]
    3798:	000c8a04 	.inst	0x000c8a04 ; undefined
    379c:	140bb100 	b	2efb9c <thread_list+0x26717c>
    37a0:	02000005 	.inst	0x02000005 ; undefined
    37a4:	dd047091 	.inst	0xdd047091 ; undefined
    37a8:	b1000009 	adds	x9, x0, #0x0
    37ac:	00051416 	.inst	0x00051416 ; undefined
    37b0:	68910200 	stgp	x0, x0, [x16], #544
    37b4:	00006004 	udf	#24580
    37b8:	4812b200 	stlxrh	w18, w0, [x16]
    37bc:	02000000 	.inst	0x02000000 ; undefined
    37c0:	ce046491 	eor3	v17.16b, v4.16b, v4.16b, v25.16b
    37c4:	b3000005 	.inst	0xb3000005 ; undefined
    37c8:	0005e31e 	.inst	0x0005e31e ; undefined
    37cc:	58910200 	ldr	x0, fffffffffff2580c <_end+0xfffffffffd53407c>
    37d0:	083a9015 	.inst	0x083a9015 ; undefined
    37d4:	00000000 	udf	#0
    37d8:	00007400 	udf	#29696
    37dc:	00000000 	udf	#0
    37e0:	0bc30400 	.inst	0x0bc30400 ; undefined
    37e4:	0db70000 	st2	{v0.b, v1.b}[0], [x0], x23
    37e8:	00000373 	udf	#883
    37ec:	007c9102 	.inst	0x007c9102 ; undefined
    37f0:	05ea1000 	.inst	0x05ea1000 ; undefined
    37f4:	10a60000 	adr	x0, fffffffffff4f7f4 <_end+0xfffffffffd55e064>
    37f8:	0000083a 	udf	#2106
    37fc:	60000000 	.inst	0x60000000 ; undefined
    3800:	00000000 	udf	#0
    3804:	01000000 	.inst	0x01000000 ; undefined
    3808:	00082e9c 	.inst	0x00082e9c ; undefined
    380c:	70740500 	adr	x0, eb8af <thread_list+0x62e8f>
    3810:	20a60066 	.inst	0x20a60066 ; undefined
    3814:	0000082e 	udf	#2094
    3818:	04689102 	asr	z2.s, z8.s, #24
    381c:	00000d3b 	udf	#3387
    3820:	031918a8 	.inst	0x031918a8 ; undefined
    3824:	91020000 	add	x0, x0, #0x80
    3828:	1d060078 	.inst	0x1d060078 ; undefined
    382c:	10000002 	adr	x2, 382c <_start-0x7c7d4>
    3830:	0000063f 	udf	#1599
    3834:	0839689e 	.inst	0x0839689e ; undefined
    3838:	00000000 	udf	#0
    383c:	0000a800 	udf	#43008
    3840:	00000000 	udf	#0
    3844:	6c9c0100 	stp	d0, d0, [x8], #448
    3848:	05000008 	orr	z8.s, z8.s, #0x1
    384c:	00646970 	.inst	0x00646970 ; undefined
    3850:	0373169e 	.inst	0x0373169e ; undefined
    3854:	91020000 	add	x0, x0, #0x80
    3858:	048f077c 	.inst	0x048f077c ; undefined
    385c:	1f9e0000 	.inst	0x1f9e0000 ; undefined
    3860:	00000373 	udf	#883
    3864:	00789102 	.inst	0x00789102 ; undefined
    3868:	00050910 	.inst	0x00050910 ; undefined
    386c:	39189800 	strb	w0, [x0, #1574]
    3870:	00000008 	udf	#8
    3874:	00500000 	.inst	0x00500000 ; undefined
    3878:	00000000 	udf	#0
    387c:	9c010000 	ldr	q0, 587c <_start-0x7a784>
    3880:	000008a5 	udf	#2213
    3884:	00048f07 	.inst	0x00048f07 ; undefined
    3888:	731a9800 	.inst	0x731a9800 ; undefined
    388c:	02000003 	.inst	0x02000003 ; undefined
    3890:	c2077c91 	.inst	0xc2077c91 ; undefined
    3894:	98000005 	ldrsw	x5, 3894 <_start-0x7c76c>
    3898:	00053e29 	.inst	0x00053e29 ; undefined
    389c:	70910200 	adr	x0, fffffffffff258df <_end+0xfffffffffd53414f>
    38a0:	06461000 	.inst	0x06461000 ; undefined
    38a4:	6c8e0000 	stp	d0, d0, [x0], #224
    38a8:	00000838 	udf	#2104
    38ac:	ac000000 	stnp	q0, q0, [x0]
    38b0:	00000000 	udf	#0
    38b4:	01000000 	.inst	0x01000000 ; undefined
    38b8:	0008de9c 	.inst	0x0008de9c ; undefined
    38bc:	70740500 	adr	x0, eb95f <thread_list+0x62f3f>
    38c0:	178e0066 	b	fffffffffe383a58 <_end+0xfffffffffb9922c8>
    38c4:	0000082e 	udf	#2094
    38c8:	05789102 	.inst	0x05789102 ; undefined
    38cc:	00646970 	.inst	0x00646970 ; undefined
    38d0:	0373208e 	.inst	0x0373208e ; undefined
    38d4:	91020000 	add	x0, x0, #0x80
    38d8:	210a0074 	.inst	0x210a0074 ; undefined
    38dc:	78000007 	sturh	w7, [x0]
    38e0:	00037305 	.inst	0x00037305 ; undefined
    38e4:	08379000 	.inst	0x08379000 ; undefined
    38e8:	00000000 	udf	#0
    38ec:	0000dc00 	udf	#56320
    38f0:	00000000 	udf	#0
    38f4:	359c0100 	cbnz	w0, fffffffffff3b914 <_end+0xfffffffffd54a184>
    38f8:	05000009 	orr	z9.s, z9.s, #0x1
    38fc:	00667074 	.inst	0x00667074 ; undefined
    3900:	082e1b78 	.inst	0x082e1b78 ; undefined
    3904:	91020000 	add	x0, x0, #0x80
    3908:	68630568 	.inst	0x68630568 ; undefined
    390c:	352e7800 	cbnz	w0, 6080c <_start-0x1f7f4>
    3910:	02000009 	.inst	0x02000009 ; undefined
    3914:	be076791 	.inst	0xbe076791 ; undefined
    3918:	7800000b 	sturh	w11, [x0]
    391c:	0005ed40 	.inst	0x0005ed40 ; undefined
    3920:	58910200 	ldr	x0, fffffffffff25960 <_end+0xfffffffffd5341d0>
    3924:	7a007211 	.inst	0x7a007211 ; undefined
    3928:	00004812 	udf	#18450
    392c:	7c910200 	.inst	0x7c910200 ; undefined
    3930:	08010900 	stxrb	w1, w0, [x8]
    3934:	00000519 	udf	#1305
    3938:	000dc110 	.inst	0x000dc110 ; undefined
    393c:	37706d00 	tbnz	w0, #14, 46dc <_start-0x7b924>
    3940:	00000008 	udf	#8
    3944:	00200000 	.inst	0x00200000 ; NYI
    3948:	00000000 	udf	#0
    394c:	9c010000 	ldr	q0, 594c <_start-0x7a6b4>
    3950:	00000975 	udf	#2421
    3954:	66707405 	.inst	0x66707405 ; undefined
    3958:	2e176d00 	.inst	0x2e176d00 ; undefined
    395c:	02000008 	.inst	0x02000008 ; undefined
    3960:	a5077891 	ldff1sh	{z17.d}, p6/z, [x4, x7, lsl #1]
    3964:	6d00000d 	stp	d13, d0, [x0]
    3968:	00037320 	.inst	0x00037320 ; undefined
    396c:	74910200 	.inst	0x74910200 ; undefined
    3970:	0b6c0a00 	.inst	0x0b6c0a00 ; undefined
    3974:	05450000 	.inst	0x05450000 ; undefined
    3978:	00000373 	udf	#883
    397c:	00083578 	.inst	0x00083578 ; undefined
    3980:	00000000 	udf	#0
    3984:	000001f8 	udf	#504
    3988:	00000000 	udf	#0
    398c:	09fb9c01 	.inst	0x09fb9c01 ; undefined
    3990:	74050000 	.inst	0x74050000 ; undefined
    3994:	45006670 	.inst	0x45006670 ; undefined
    3998:	00082e16 	.inst	0x00082e16 ; undefined
    399c:	48910200 	stllrh	w0, [x16]
    39a0:	000dd004 	.inst	0x000dd004 ; undefined
    39a4:	560d4800 	.inst	0x560d4800 ; undefined
    39a8:	02000005 	.inst	0x02000005 ; undefined
    39ac:	82047091 	.inst	0x82047091 ; undefined
    39b0:	4900000d 	.inst	0x4900000d ; undefined
    39b4:	0005560d 	.inst	0x0005560d ; undefined
    39b8:	68910200 	stgp	x0, x0, [x16], #544
    39bc:	000dc604 	.inst	0x000dc604 ; undefined
    39c0:	73094a00 	.inst	0x73094a00 ; undefined
    39c4:	02000003 	.inst	0x02000003 ; undefined
    39c8:	69046491 	stgp	x17, x25, [x4, #128]
    39cc:	64000000 	.inst	0x64000000 ; undefined
    39d0:	00031918 	.inst	0x00031918 ; undefined
    39d4:	58910200 	ldr	x0, fffffffffff25a14 <_end+0xfffffffffd534284>
    39d8:	0835fc15 	.inst	0x0835fc15 ; undefined
    39dc:	00000000 	udf	#0
    39e0:	00004000 	udf	#16384
    39e4:	00000000 	udf	#0
    39e8:	00691100 	.inst	0x00691100 ; undefined
    39ec:	03730e50 	.inst	0x03730e50 ; undefined
    39f0:	91020000 	add	x0, x0, #0x80
    39f4:	0a00007c 	and	w28, w3, w0
    39f8:	00000a4a 	udf	#2634
    39fc:	03730535 	.inst	0x03730535 ; undefined
    3a00:	34a00000 	cbz	w0, fffffffffff43a00 <_end+0xfffffffffd552270>
    3a04:	00000008 	udf	#8
    3a08:	00d80000 	.inst	0x00d80000 ; undefined
    3a0c:	00000000 	udf	#0
    3a10:	9c010000 	ldr	q0, 5a10 <_start-0x7a5f0>
    3a14:	00000a73 	udf	#2675
    3a18:	66707405 	.inst	0x66707405 ; undefined
    3a1c:	2e163500 	.inst	0x2e163500 ; undefined
    3a20:	02000008 	.inst	0x02000008 ; undefined
    3a24:	12076891 	and	w17, w4, #0xfe0fffff
    3a28:	35000000 	cbnz	w0, 3a28 <_start-0x7c5d8>
    3a2c:	00059d27 	.inst	0x00059d27 ; undefined
    3a30:	60910200 	.inst	0x60910200 ; undefined
    3a34:	000d7d07 	.inst	0x000d7d07 ; undefined
    3a38:	73393500 	.inst	0x73393500 ; undefined
    3a3c:	0200000a 	.inst	0x0200000a ; undefined
    3a40:	72045891 	ands	w17, w4, #0xf007ffff
    3a44:	3600000d 	tbz	w13, #0, 3a44 <_start-0x7c5bc>
    3a48:	0005560d 	.inst	0x0005560d ; undefined
    3a4c:	70910200 	adr	x0, fffffffffff25a8f <_end+0xfffffffffd5342ff>
    3a50:	08350015 	.inst	0x08350015 ; undefined
    3a54:	00000000 	udf	#0
    3a58:	00003800 	udf	#14336
    3a5c:	00000000 	udf	#0
    3a60:	00691100 	.inst	0x00691100 ; undefined
    3a64:	03730e3b 	.inst	0x03730e3b ; undefined
    3a68:	91020000 	add	x0, x0, #0x80
    3a6c:	0600007c 	.inst	0x0600007c ; undefined
    3a70:	00000519 	udf	#1305
    3a74:	000bb30a 	.inst	0x000bb30a ; undefined
    3a78:	35082c00 	cbnz	w0, 13ff8 <_start-0x6c008>
    3a7c:	3c000000 	stur	b0, [x0]
    3a80:	00000834 	udf	#2100
    3a84:	64000000 	.inst	0x64000000 ; undefined
    3a88:	00000000 	udf	#0
    3a8c:	01000000 	.inst	0x01000000 ; undefined
    3a90:	000ad09c 	.inst	0x000ad09c ; undefined
    3a94:	70740500 	adr	x0, ebb37 <thread_list+0x63117>
    3a98:	1f2c0066 	fnmadd	s6, s3, s12, s0
    3a9c:	0000082e 	udf	#2094
    3aa0:	05689102 	clasta	z2.h, p4, z2.h, z8.h
    3aa4:	00667562 	.inst	0x00667562 ; undefined
    3aa8:	059d2f2c 	mov	z12.s, p13/z, #30976
    3aac:	91020000 	add	x0, x0, #0x80
    3ab0:	0db50760 	st2	{v0.b, v1.b}[1], [x27], x21
    3ab4:	3d2c0000 	str	b0, [x0, #2816]
    3ab8:	00000035 	udf	#53
    3abc:	11589102 	add	w2, w8, #0x624, lsl #12
    3ac0:	092d0069 	.inst	0x092d0069 ; undefined
    3ac4:	00000373 	udf	#883
    3ac8:	007c9102 	.inst	0x007c9102 ; undefined
    3acc:	000b890a 	.inst	0x000b890a ; undefined
    3ad0:	35082300 	cbnz	w0, 13f30 <_start-0x6c0d0>
    3ad4:	cc000000 	.inst	0xcc000000 ; undefined
    3ad8:	00000833 	udf	#2099
    3adc:	70000000 	adr	x0, 3adf <_start-0x7c521>
    3ae0:	00000000 	udf	#0
    3ae4:	01000000 	.inst	0x01000000 ; undefined
    3ae8:	000b289c 	.inst	0x000b289c ; undefined
    3aec:	70740500 	adr	x0, ebb8f <thread_list+0x6316f>
    3af0:	1e230066 	ucvtf	s6, w3
    3af4:	0000082e 	udf	#2094
    3af8:	05689102 	clasta	z2.h, p4, z2.h, z8.h
    3afc:	00667562 	.inst	0x00667562 ; undefined
    3b00:	05142823 	.inst	0x05142823 ; undefined
    3b04:	91020000 	add	x0, x0, #0x80
    3b08:	0db50760 	st2	{v0.b, v1.b}[1], [x27], x21
    3b0c:	36230000 	tbz	w0, #4, 9b0c <_start-0x764f4>
    3b10:	00000035 	udf	#53
    3b14:	11589102 	add	w2, w8, #0x624, lsl #12
    3b18:	09240069 	.inst	0x09240069 ; undefined
    3b1c:	00000373 	udf	#883
    3b20:	007c9102 	.inst	0x007c9102 ; undefined
    3b24:	000b6023 	.inst	0x000b6023 ; undefined
    3b28:	051d0100 	mov	z0.b, p13/z, #8
    3b2c:	00000373 	udf	#883
    3b30:	0008339c 	.inst	0x0008339c ; undefined
    3b34:	00000000 	udf	#0
    3b38:	00000030 	udf	#48
    3b3c:	00000000 	udf	#0
    3b40:	74059c01 	.inst	0x74059c01 ; undefined
    3b44:	1d006670 	cpyprtwn	[x16]!, [x0]!, x19!
    3b48:	00082e18 	.inst	0x00082e18 ; undefined
    3b4c:	78910200 	ldursh	x0, [x16, #-240]
    3b50:	05680000 	ext	z0.b, {z0.b, z1.b}, #64
    3b54:	00050000 	.inst	0x00050000 ; undefined
    3b58:	10ba0801 	adr	x1, fffffffffff77c58 <_end+0xfffffffffd5864c8>
    3b5c:	22160000 	.inst	0x22160000 ; undefined
    3b60:	1d000001 	.inst	0x1d000001 ; undefined
    3b64:	0000013b 	udf	#315
    3b68:	00000000 	udf	#0
    3b6c:	00083bc4 	.inst	0x00083bc4 ; undefined
    3b70:	00000000 	udf	#0
    3b74:	00000640 	udf	#1600
    3b78:	00000000 	udf	#0
    3b7c:	000017a5 	udf	#6053
    3b80:	0003d117 	.inst	0x0003d117 ; undefined
    3b84:	09026800 	.inst	0x09026800 ; undefined
    3b88:	0000d510 	udf	#54544
    3b8c:	31780100 	adds	w0, w8, #0xe00, lsl #12
    3b90:	130d0039 	sbfiz	w25, w1, #19, #1
    3b94:	000000d5 	udf	#213
    3b98:	32780100 	.inst	0x32780100 ; undefined
    3b9c:	130e0030 	sbfiz	w16, w1, #18, #1
    3ba0:	000000d5 	udf	#213
    3ba4:	32780108 	.inst	0x32780108 ; undefined
    3ba8:	130f0031 	sbfiz	w17, w1, #17, #1
    3bac:	000000d5 	udf	#213
    3bb0:	32780110 	.inst	0x32780110 ; undefined
    3bb4:	13100032 	sbfiz	w18, w1, #16, #1
    3bb8:	000000d5 	udf	#213
    3bbc:	32780118 	.inst	0x32780118 ; undefined
    3bc0:	13110033 	sbfiz	w19, w1, #15, #1
    3bc4:	000000d5 	udf	#213
    3bc8:	32780120 	.inst	0x32780120 ; undefined
    3bcc:	13120034 	sbfiz	w20, w1, #14, #1
    3bd0:	000000d5 	udf	#213
    3bd4:	32780128 	.inst	0x32780128 ; undefined
    3bd8:	13130035 	sbfiz	w21, w1, #13, #1
    3bdc:	000000d5 	udf	#213
    3be0:	32780130 	.inst	0x32780130 ; undefined
    3be4:	13140036 	sbfiz	w22, w1, #12, #1
    3be8:	000000d5 	udf	#213
    3bec:	32780138 	.inst	0x32780138 ; undefined
    3bf0:	13150037 	sbfiz	w23, w1, #11, #1
    3bf4:	000000d5 	udf	#213
    3bf8:	32780140 	.inst	0x32780140 ; undefined
    3bfc:	13160038 	sbfiz	w24, w1, #10, #1
    3c00:	000000d5 	udf	#213
    3c04:	70660148 	adr	x8, cfc2f <thread_list+0x4720f>
    3c08:	d5131800 	msr	s2_3_c1_c8_0, x0
    3c0c:	50000000 	adr	x0, 3c0e <_start-0x7c3f2>
    3c10:	00726c01 	.inst	0x00726c01 ; undefined
    3c14:	00d51319 	.inst	0x00d51319 ; undefined
    3c18:	01580000 	.inst	0x01580000 ; undefined
    3c1c:	1a007073 	.inst	0x1a007073 ; undefined
    3c20:	0000d513 	udf	#54547
    3c24:	04006000 	mls	z0.b, p0/m, z0.b, z0.b
    3c28:	004c0708 	.inst	0x004c0708 ; undefined
    3c2c:	d1120000 	sub	x0, x0, #0x480
    3c30:	1b000003 	madd	w3, w0, w0, w0
    3c34:	0000002e 	udf	#46
    3c38:	000e1b18 	.inst	0x000e1b18 ; undefined
    3c3c:	02043000 	.inst	0x02043000 ; undefined
    3c40:	01ad101d 	.inst	0x01ad101d ; undefined
    3c44:	d8030000 	prfm	pldl1keep, 9c44 <_start-0x763bc>
    3c48:	1e000003 	.inst	0x1e000003 ; undefined
    3c4c:	0000dc14 	udf	#56340
    3c50:	3a030000 	adcs	w0, w0, w3
    3c54:	1f000006 	fmadd	s6, s0, s0, s0
    3c58:	0001ad14 	.inst	0x0001ad14 ; undefined
    3c5c:	17036800 	b	fffffffffc0ddc5c <_end+0xfffffffff96ec4cc>
    3c60:	20000006 	.inst	0x20000006 ; undefined
    3c64:	0001ad14 	.inst	0x0001ad14 ; undefined
    3c68:	70017000 	adr	x0, 6a6b <_start-0x79595>
    3c6c:	21006469 	.inst	0x21006469 ; undefined
    3c70:	0001b209 	.inst	0x0001b209 ; undefined
    3c74:	47037800 	.inst	0x47037800 ; undefined
    3c78:	22000008 	.inst	0x22000008 ; undefined
    3c7c:	0001b90b 	.inst	0x0001b90b ; undefined
    3c80:	fd038000 	str	d0, [x0, #1792]
    3c84:	23000003 	.inst	0x23000003 ; undefined
    3c88:	0001c512 	.inst	0x0001c512 ; undefined
    3c8c:	e3038800 	.inst	0xe3038800 ; undefined
    3c90:	24000005 	cmphs	p5.b, p0/z, z0.b, z0.b
    3c94:	0001b209 	.inst	0x0001b209 ; undefined
    3c98:	a9038c00 	stp	x0, x3, [x0, #56]
    3c9c:	25000003 	cmpge	p3.b, p0/z, z0.b, #0
    3ca0:	0001b209 	.inst	0x0001b209 ; undefined
    3ca4:	96039000 	bl	fffffffff80e7ca4 <_end+0xfffffffff56f6514>
    3ca8:	26000004 	.inst	0x26000004 ; undefined
    3cac:	0001b90b 	.inst	0x0001b90b ; undefined
    3cb0:	29039800 	stp	w0, w6, [x0, #28]
    3cb4:	27000006 	.inst	0x27000006 ; undefined
    3cb8:	0001b90b 	.inst	0x0001b90b ; undefined
    3cbc:	d303a000 	.inst	0xd303a000 ; undefined
    3cc0:	29000005 	stp	w5, w0, [x0]
    3cc4:	0001cc09 	.inst	0x0001cc09 ; undefined
    3cc8:	bb08a800 	.inst	0xbb08a800 ; undefined
    3ccc:	2a000005 	orr	w5, w0, w0
    3cd0:	0001dc0c 	.inst	0x0001dc0c ; undefined
    3cd4:	0801b000 	stlxrb	w1, w0, [x0]
    3cd8:	000005b6 	udf	#1462
    3cdc:	01ec0c2b 	.inst	0x01ec0c2b ; undefined
    3ce0:	03b80000 	.inst	0x03b80000 ; undefined
    3ce4:	00046808 	.inst	0x00046808 ; undefined
    3ce8:	b2092c00 	orr	x0, x0, #0xff800007ff800007
    3cec:	c0000001 	mov	za0h.b[w12, 1], p0/m, z0.b
    3cf0:	05400803 	eor	z3.s, z3.s, #0x80000000
    3cf4:	142d0000 	b	b43cf4 <_heap_stack_size+0x343cf4>
    3cf8:	000000dc 	udf	#220
    3cfc:	070003c8 	.inst	0x070003c8 ; undefined
    3d00:	000000e6 	udf	#230
    3d04:	69050419 	stgp	x25, x1, [x0, #160]
    3d08:	0700746e 	.inst	0x0700746e ; undefined
    3d0c:	000001be 	udf	#446
    3d10:	22080104 	.inst	0x22080104 ; undefined
    3d14:	04000005 	add	z5.b, p0/m, z5.b, z0.b
    3d18:	00510704 	.inst	0x00510704 ; undefined
    3d1c:	b20a0000 	orr	x0, x0, #0x40000000400000
    3d20:	dc000001 	.inst	0xdc000001 ; undefined
    3d24:	13000001 	sbfx	w1, w0, #0, #1
    3d28:	000000d5 	udf	#213
    3d2c:	ec0a0040 	.inst	0xec0a0040 ; undefined
    3d30:	ec000001 	.inst	0xec000001 ; undefined
    3d34:	13000001 	sbfx	w1, w0, #0, #1
    3d38:	000000d5 	udf	#213
    3d3c:	f1070040 	subs	x0, x2, #0x1c0
    3d40:	1a000001 	adc	w1, w0, w0
    3d44:	000001f8 	udf	#504
    3d48:	1b120005 	madd	w5, w0, w18, w0
    3d4c:	2e00000e 	ext	v14.8b, v0.8b, v0.8b, #0
    3d50:	000000e6 	udf	#230
    3d54:	47070804 	.inst	0x47070804 ; undefined
    3d58:	1b000000 	madd	w0, w0, w0, w0
    3d5c:	05080408 	.inst	0x05080408 ; undefined
    3d60:	00000455 	udf	#1109
    3d64:	50050804 	adr	x4, de66 <_start-0x7219a>
    3d68:	04000004 	add	z4.b, p0/m, z4.b, z0.b
    3d6c:	04e90410 	sub	z16.d, z0.d, z9.d
    3d70:	5e0b0000 	sha1c	q0, s0, v11.4s
    3d74:	09000004 	.inst	0x09000004 ; undefined
    3d78:	00023509 	.inst	0x00023509 ; undefined
    3d7c:	18030900 	ldr	w0, 9e9c <_start-0x76164>
    3d80:	0000088a 	udf	#2186
    3d84:	07000000 	.inst	0x07000000 ; undefined
    3d88:	000001f8 	udf	#504
    3d8c:	0001f80a 	.inst	0x0001f80a ; undefined
    3d90:	00024b00 	.inst	0x00024b00 ; undefined
    3d94:	00d51c00 	.inst	0x00d51c00 ; undefined
    3d98:	7fa60000 	.inst	0x7fa60000 ; undefined
    3d9c:	0d660b00 	.inst	0x0d660b00 ; undefined
    3da0:	080a0000 	stxrb	w10, w0, [x0]
    3da4:	0000023a 	udf	#570
    3da8:	8a200309 	bic	x9, x24, x0
    3dac:	00000008 	udf	#8
    3db0:	fb0b0000 	.inst	0xfb0b0000 ; undefined
    3db4:	0c00000d 	st4	{v13.8b-v16.8b}, [x0]
    3db8:	0001b205 	.inst	0x0001b205 ; undefined
    3dbc:	70030900 	adr	x0, 9edf <_start-0x76121>
    3dc0:	00021f15 	.inst	0x00021f15 ; undefined
    3dc4:	0c000000 	st4	{v0.8b-v3.8b}, [x0]
    3dc8:	000001bf 	udf	#447
    3dcc:	b2050804 	orr	x4, x0, #0x3800000038000000
    3dd0:	8c000001 	.inst	0x8c000001 ; undefined
    3dd4:	02000002 	.inst	0x02000002 ; undefined
    3dd8:	000001b9 	udf	#441
    3ddc:	1a0d0005 	adc	w5, w0, w13
    3de0:	0300000a 	.inst	0x0300000a ; undefined
    3de4:	02a80613 	.inst	0x02a80613 ; undefined
    3de8:	09020000 	.inst	0x09020000 ; undefined
    3dec:	02000002 	.inst	0x02000002 ; undefined
    3df0:	000001b9 	udf	#441
    3df4:	00020202 	.inst	0x00020202 ; undefined
    3df8:	a3140000 	.inst	0xa3140000 ; undefined
    3dfc:	03000009 	.inst	0x03000009 ; undefined
    3e00:	02120f19 	.inst	0x02120f19 ; undefined
    3e04:	02ba0000 	.inst	0x02ba0000 ; undefined
    3e08:	00050000 	.inst	0x00050000 ; undefined
    3e0c:	000a3c0c 	.inst	0x000a3c0c ; undefined
    3e10:	070c0500 	.inst	0x070c0500 ; undefined
    3e14:	000001b9 	udf	#441
    3e18:	000002da 	udf	#730
    3e1c:	00020902 	.inst	0x00020902 ; undefined
    3e20:	02da0200 	.inst	0x02da0200 ; undefined
    3e24:	02020000 	.inst	0x02020000 ; undefined
    3e28:	00000002 	udf	#2
    3e2c:	0002df07 	.inst	0x0002df07 ; undefined
    3e30:	930d1d00 	.inst	0x930d1d00 ; undefined
    3e34:	06000008 	.inst	0x06000008 ; undefined
    3e38:	02f2060a 	.inst	0x02f2060a ; undefined
    3e3c:	09020000 	.inst	0x09020000 ; undefined
    3e40:	00000002 	udf	#2
    3e44:	000dd60d 	.inst	0x000dd60d ; undefined
    3e48:	0d300200 	.inst	0x0d300200 ; undefined
    3e4c:	00000309 	udf	#777
    3e50:	00020902 	.inst	0x00020902 ; undefined
    3e54:	02090200 	.inst	0x02090200 ; undefined
    3e58:	14000000 	b	3e58 <_start-0x7c1a8>
    3e5c:	00000c58 	udf	#3160
    3e60:	35103102 	cbnz	w2, 24480 <_start-0x5bb80>
    3e64:	1b000002 	madd	w2, w0, w0, w0
    3e68:	05000003 	orr	z3.s, z3.s, #0x1
    3e6c:	0d240e00 	.inst	0x0d240e00 ; undefined
    3e70:	2a070000 	orr	w0, w0, w7
    3e74:	00000328 	udf	#808
    3e78:	610e0005 	.inst	0x610e0005 ; undefined
    3e7c:	08000005 	stxrb	w0, w5, [x0]
    3e80:	00033531 	.inst	0x00033531 ; undefined
    3e84:	0c000500 	st4	{v0.4h-v3.4h}, [x8]
    3e88:	000008ec 	udf	#2284
    3e8c:	09070906 	.inst	0x09070906 ; undefined
    3e90:	4b000002 	sub	w2, w0, w0
    3e94:	02000003 	.inst	0x02000003 ; undefined
    3e98:	000001c5 	udf	#453
    3e9c:	05630e00 	ext	z0.b, {z16.b, z17.b}, #27
    3ea0:	30080000 	adr	x0, 13ea1 <_start-0x6c15f>
    3ea4:	00000358 	udf	#856
    3ea8:	661e0005 	.inst	0x661e0005 ; undefined
    3eac:	01006f6f 	.inst	0x01006f6f ; undefined
    3eb0:	41800699 	.inst	0x41800699 ; undefined
    3eb4:	00000008 	udf	#8
    3eb8:	00840000 	.inst	0x00840000 ; undefined
    3ebc:	00000000 	udf	#0
    3ec0:	9c010000 	ldr	q0, 5ec0 <_start-0x7a140>
    3ec4:	000003b3 	udf	#947
    3ec8:	08418809 	ldaxrb	w9, [x0]
    3ecc:	00000000 	udf	#0
    3ed0:	00006c00 	udf	#27648
    3ed4:	00000000 	udf	#0
    3ed8:	00690600 	.inst	0x00690600 ; undefined
    3edc:	01b20e9a 	.inst	0x01b20e9a ; undefined
    3ee0:	91020000 	add	x0, x0, #0x80
    3ee4:	41ac097c 	.inst	0x41ac097c ; undefined
    3ee8:	00000008 	udf	#8
    3eec:	002c0000 	.inst	0x002c0000 ; NYI
    3ef0:	00000000 	udf	#0
    3ef4:	6a060000 	ands	w0, w0, w6
    3ef8:	b2129c00 	orr	x0, x0, #0xc03fc03fc03fc03f
    3efc:	02000001 	.inst	0x02000001 ; undefined
    3f00:	00007891 	udf	#30865
    3f04:	0dec0f00 	ld2	{v0.b, v1.b}[3], [x24], x12
    3f08:	4c940000 	st4	{v0.16b-v3.16b}, [x0], x20
    3f0c:	00000841 	udf	#2113
    3f10:	34000000 	cbz	w0, 3f10 <_start-0x7c0f0>
    3f14:	00000000 	udf	#0
    3f18:	01000000 	.inst	0x01000000 ; undefined
    3f1c:	0a431f9c 	and	w28, w28, w3, lsr #7
    3f20:	85010000 	.inst	0x85010000 ; undefined
    3f24:	08408006 	ldaxrb	w6, [x0]
    3f28:	00000000 	udf	#0
    3f2c:	0000cc00 	udf	#52224
    3f30:	00000000 	udf	#0
    3f34:	129c0100 	mov	w0, #0xffff1ff7            	// #-57353
    3f38:	10000004 	adr	x4, 3f38 <_start-0x7c0c8>
    3f3c:	00000847 	udf	#2119
    3f40:	01b91885 	.inst	0x01b91885 ; undefined
    3f44:	91020000 	add	x0, x0, #0x80
    3f48:	03fd1068 	.inst	0x03fd1068 ; undefined
    3f4c:	2b850000 	adds	w0, w0, w5, asr #0
    3f50:	000001c5 	udf	#453
    3f54:	06649102 	.inst	0x06649102 ; undefined
    3f58:	0d860074 	st1	{v20.b}[0], [x3], x6
    3f5c:	00000235 	udf	#565
    3f60:	00789102 	.inst	0x00789102 ; undefined
    3f64:	000de015 	.inst	0x000de015 ; undefined
    3f68:	3fc87200 	.inst	0x3fc87200 ; undefined
    3f6c:	00000008 	udf	#8
    3f70:	00b80000 	.inst	0x00b80000 ; undefined
    3f74:	00000000 	udf	#0
    3f78:	9c010000 	ldr	q0, 5f78 <_start-0x7a088>
    3f7c:	0000044f 	udf	#1103
    3f80:	083fd409 	.inst	0x083fd409 ; undefined
    3f84:	00000000 	udf	#0
    3f88:	00009c00 	udf	#39936
    3f8c:	00000000 	udf	#0
    3f90:	75630600 	.inst	0x75630600 ; undefined
    3f94:	12740072 	.inst	0x12740072 ; undefined
    3f98:	00000235 	udf	#565
    3f9c:	00789102 	.inst	0x00789102 ; undefined
    3fa0:	0dba0f00 	st2	{v0.b, v1.b}[3], [x24], x26
    3fa4:	986b0000 	ldrsw	x0, d9fa4 <thread_list+0x51584>
    3fa8:	0000083f 	udf	#2111
    3fac:	30000000 	adr	x0, 3fad <_start-0x7c053>
    3fb0:	00000000 	udf	#0
    3fb4:	01000000 	.inst	0x01000000 ; undefined
    3fb8:	0b990f9c 	add	w28, w28, w25, asr #3
    3fbc:	84640000 	prfb	pldl1keep, p0, [x0, z4.s, sxtw]
    3fc0:	0000083f 	udf	#2111
    3fc4:	14000000 	b	3fc4 <_start-0x7c03c>
    3fc8:	00000000 	udf	#0
    3fcc:	01000000 	.inst	0x01000000 ; undefined
    3fd0:	03f4159c 	.inst	0x03f4159c ; undefined
    3fd4:	30560000 	adr	x0, affd5 <thread_list+0x275b5>
    3fd8:	0000083f 	udf	#2111
    3fdc:	54000000 	b.eq	3fdc <_start-0x7c024>  // b.none
    3fe0:	00000000 	udf	#0
    3fe4:	01000000 	.inst	0x01000000 ; undefined
    3fe8:	0004a99c 	.inst	0x0004a99c ; undefined
    3fec:	0d721100 	.inst	0x0d721100 ; undefined
    3ff0:	35590000 	cbnz	w0, b5ff0 <thread_list+0x2d5d0>
    3ff4:	02000002 	.inst	0x02000002 ; undefined
    3ff8:	20007891 	.inst	0x20007891 ; undefined
    3ffc:	00000a97 	udf	#2711
    4000:	e8064c01 	.inst	0xe8064c01 ; undefined
    4004:	0000083e 	udf	#2110
    4008:	48000000 	stxrh	w0, w0, [x0]
    400c:	00000000 	udf	#0
    4010:	01000000 	.inst	0x01000000 ; undefined
    4014:	0004d59c 	.inst	0x0004d59c ; undefined
    4018:	00742100 	.inst	0x00742100 ; undefined
    401c:	351e4c01 	cbnz	w1, 4099c <_start-0x3f664>
    4020:	02000002 	.inst	0x02000002 ; undefined
    4024:	22007891 	.inst	0x22007891 ; undefined
    4028:	00000c4a 	udf	#3146
    402c:	35092201 	cbnz	w1, 1646c <_start-0x69b94>
    4030:	08000002 	stxrb	w0, w2, [x0]
    4034:	0000083d 	udf	#2109
    4038:	e0000000 	ld1b	{za0h.b[w12, 0]}, p0/z, [x0, x0]
    403c:	00000001 	udf	#1
    4040:	01000000 	.inst	0x01000000 ; undefined
    4044:	0005259c 	.inst	0x0005259c ; undefined
    4048:	0e031000 	tbx	v0.8b, {v0.16b}, v3.8b
    404c:	1d220000 	.inst	0x1d220000 ; undefined
    4050:	00000209 	udf	#521
    4054:	11689102 	add	w2, w8, #0xa24, lsl #12
    4058:	00000e17 	udf	#3607
    405c:	00023524 	.inst	0x00023524 ; undefined
    4060:	70910200 	adr	x0, fffffffffff260a3 <_end+0xfffffffffd534913>
    4064:	00002323 	udf	#8995
    4068:	00690600 	.inst	0x00690600 ; undefined
    406c:	01b20e3d 	.inst	0x01b20e3d ; undefined
    4070:	91020000 	add	x0, x0, #0x80
    4074:	2400007c 	cmphi	p12.b, p0/z, z3.b, z0.b
    4078:	0000064b 	udf	#1611
    407c:	c4060e01 	ld1sb	{z1.d}, p3/z, [x16, z6.d, uxtw]
    4080:	0000083b 	udf	#2107
    4084:	44000000 	.inst	0x44000000 ; undefined
    4088:	00000001 	udf	#1
    408c:	01000000 	.inst	0x01000000 ; undefined
    4090:	0d72119c 	.inst	0x0d72119c ; undefined
    4094:	351c0000 	cbnz	w0, 3c094 <_start-0x43f6c>
    4098:	02000002 	.inst	0x02000002 ; undefined
    409c:	34097091 	cbz	w17, 16eac <_start-0x69154>
    40a0:	0000083c 	udf	#2108
    40a4:	ac000000 	stnp	q0, q0, [x0]
    40a8:	00000000 	udf	#0
    40ac:	06000000 	.inst	0x06000000 ; undefined
    40b0:	0e160069 	tbl	v9.8b, {v3.16b}, v22.8b
    40b4:	000001b2 	udf	#434
    40b8:	007c9102 	.inst	0x007c9102 ; undefined
    40bc:	034b0000 	.inst	0x034b0000 ; undefined
    40c0:	00050000 	.inst	0x00050000 ; undefined
    40c4:	13090801 	sbfiz	w1, w0, #23, #3
    40c8:	220d0000 	.inst	0x220d0000 ; undefined
    40cc:	1d000001 	.inst	0x1d000001 ; undefined
    40d0:	00000148 	udf	#328
    40d4:	00000000 	udf	#0
    40d8:	00084208 	.inst	0x00084208 ; undefined
    40dc:	00000000 	udf	#0
    40e0:	000003e0 	udf	#992
    40e4:	00000000 	udf	#0
    40e8:	00001a3c 	udf	#6716
    40ec:	000e7c0e 	.inst	0x000e7c0e ; undefined
    40f0:	04022800 	.inst	0x04022800 ; undefined
    40f4:	00007910 	udf	#30992
    40f8:	063a0400 	.inst	0x063a0400 ; undefined
    40fc:	18050000 	ldr	w0, e0fc <_start-0x71f04>
    4100:	00000079 	udf	#121
    4104:	06170400 	.inst	0x06170400 ; undefined
    4108:	18060000 	ldr	w0, 10108 <_start-0x6fef8>
    410c:	00000079 	udf	#121
    4110:	0e9b0408 	.inst	0x0e9b0408 ; undefined
    4114:	18070000 	ldr	w0, 12114 <_start-0x6deec>
    4118:	0000007e 	udf	#126
    411c:	03200410 	.inst	0x03200410 ; undefined
    4120:	0b080000 	add	w0, w0, w8
    4124:	00000085 	udf	#133
    4128:	736d0f18 	.inst	0x736d0f18 ; undefined
    412c:	09020067 	.inst	0x09020067 ; undefined
    4130:	0000870b 	udf	#34571
    4134:	05002000 	orr	z0.s, z0.s, #0x10000000
    4138:	0000002e 	udf	#46
    413c:	47070802 	.inst	0x47070802 ; undefined
    4140:	10000000 	adr	x0, 4140 <_start-0x7bec0>
    4144:	008c0508 	.inst	0x008c0508 ; undefined
    4148:	01020000 	.inst	0x01020000 ; undefined
    414c:	00052208 	.inst	0x00052208 ; undefined
    4150:	008c1100 	.inst	0x008c1100 ; undefined
    4154:	7c120000 	stur	h0, [x0, #-224]
    4158:	0200000e 	.inst	0x0200000e ; undefined
    415c:	002e030a 	.inst	0x002e030a ; NYI
    4160:	04020000 	.inst	0x04020000 ; undefined
    4164:	00005107 	udf	#20743
    4168:	05041300 	.inst	0x05041300 ; undefined
    416c:	00746e69 	.inst	0x00746e69 ; undefined
    4170:	000e7114 	.inst	0x000e7114 ; undefined
    4174:	0d060100 	.inst	0x0d060100 ; undefined
    4178:	000000c8 	udf	#200
    417c:	15780309 	b	5e04da0 <_end+0x3413610>
    4180:	0000021f 	udf	#543
    4184:	98050000 	ldrsw	x0, e184 <_start-0x71e7c>
    4188:	06000000 	.inst	0x06000000 ; undefined
    418c:	000001bf 	udf	#447
    4190:	ab050803 	adds	x3, x0, x5, lsl #2
    4194:	e4000000 	.inst	0xe4000000 ; undefined
    4198:	01000000 	.inst	0x01000000 ; undefined
    419c:	00000087 	udf	#135
    41a0:	22060015 	.inst	0x22060015 ; undefined
    41a4:	0400000e 	add	z14.b, p0/m, z14.b, z0.b
    41a8:	0087070d 	.inst	0x0087070d ; undefined
    41ac:	00ff0000 	.inst	0x00ff0000 ; undefined
    41b0:	87010000 	.inst	0x87010000 ; undefined
    41b4:	01000000 	.inst	0x01000000 ; undefined
    41b8:	000000ff 	udf	#255
    41bc:	00930500 	.inst	0x00930500 ; undefined
    41c0:	70060000 	adr	x0, 101c3 <_start-0x6fe3d>
    41c4:	04000003 	add	z3.b, p0/m, z3.b, z0.b
    41c8:	007e1409 	.inst	0x007e1409 ; undefined
    41cc:	011a0000 	.inst	0x011a0000 ; undefined
    41d0:	ff010000 	.inst	0xff010000 ; undefined
    41d4:	00000000 	udf	#0
    41d8:	00085416 	.inst	0x00085416 ; undefined
    41dc:	06060500 	.inst	0x06060500 ; undefined
    41e0:	0000012c 	udf	#300
    41e4:	00008501 	udf	#34049
    41e8:	7a060000 	sbcs	w0, w0, w6
    41ec:	0500000c 	orr	z12.s, z12.s, #0x1
    41f0:	00850705 	.inst	0x00850705 ; undefined
    41f4:	01420000 	.inst	0x01420000 ; undefined
    41f8:	a4010000 	ld1rqb	{z0.b}, p0/z, [x0, x1]
    41fc:	00000000 	udf	#0
    4200:	0009a317 	.inst	0x0009a317 ; undefined
    4204:	0f6f0100 	.inst	0x0f6f0100 ; undefined
    4208:	00000173 	udf	#371
    420c:	000845d0 	.inst	0x000845d0 ; undefined
    4210:	00000000 	udf	#0
    4214:	00000018 	udf	#24
    4218:	00000000 	udf	#0
    421c:	01739c01 	.inst	0x01739c01 ; undefined
    4220:	58070000 	ldr	x0, 12220 <_start-0x6dde0>
    4224:	7000000e 	adr	x14, 4227 <_start-0x7bdd9>
    4228:	00017313 	.inst	0x00017313 ; undefined
    422c:	78910200 	ldursh	x0, [x16, #-240]
    4230:	05080200 	.inst	0x05080200 ; undefined
    4234:	00000450 	udf	#1104
    4238:	000e4108 	.inst	0x000e4108 ; undefined
    423c:	45b46b00 	raddhnb	z0.h, z24.s, z20.s
    4240:	00000008 	udf	#8
    4244:	001c0000 	.inst	0x001c0000 ; undefined
    4248:	00000000 	udf	#0
    424c:	9c010000 	ldr	q0, 624c <_start-0x79db4>
    4250:	000001a5 	udf	#421
    4254:	000e6403 	.inst	0x000e6403 ; undefined
    4258:	7e356b00 	.inst	0x7e356b00 ; undefined
    425c:	02000000 	.inst	0x02000000 ; undefined
    4260:	08007891 	stxrb	w0, w17, [x4]
    4264:	00000e87 	udf	#3719
    4268:	08459065 	ldaxrb	w5, [x3]
    426c:	00000000 	udf	#0
    4270:	00002400 	udf	#9216
    4274:	00000000 	udf	#0
    4278:	d09c0100 	adrp	x0, ffffffff38026000 <_end+0xffffffff35634870>
    427c:	03000001 	.inst	0x03000001 ; undefined
    4280:	00000e5d 	udf	#3677
    4284:	007e2d65 	.inst	0x007e2d65 ; undefined
    4288:	91020000 	add	x0, x0, #0x80
    428c:	930a0078 	.inst	0x930a0078 ; undefined
    4290:	6000000c 	.inst	0x6000000c ; undefined
    4294:	00084568 	.inst	0x00084568 ; undefined
    4298:	00000000 	udf	#0
    429c:	00000028 	udf	#40
    42a0:	00000000 	udf	#0
    42a4:	01fb9c01 	.inst	0x01fb9c01 ; undefined
    42a8:	6d090000 	stp	d0, d0, [x0, #144]
    42ac:	60006773 	.inst	0x60006773 ; undefined
    42b0:	0000871c 	udf	#34588
    42b4:	78910200 	ldursh	x0, [x16, #-240]
    42b8:	0a1a0a00 	and	w0, w16, w26, lsl #2
    42bc:	14440000 	b	11042bc <_heap_stack_size+0x9042bc>
    42c0:	00000844 	udf	#2116
    42c4:	54000000 	b.eq	42c4 <_start-0x7bd3c>  // b.none
    42c8:	00000001 	udf	#1
    42cc:	01000000 	.inst	0x01000000 ; undefined
    42d0:	00026b9c 	.inst	0x00026b9c ; undefined
    42d4:	03200300 	.inst	0x03200300 ; undefined
    42d8:	16440000 	b	fffffffff91042d8 <_end+0xfffffffff6712b48>
    42dc:	00000085 	udf	#133
    42e0:	09589102 	.inst	0x09589102 ; undefined
    42e4:	0067736d 	.inst	0x0067736d ; undefined
    42e8:	00872644 	.inst	0x00872644 ; undefined
    42ec:	91020000 	add	x0, x0, #0x80
    42f0:	0e690350 	saddl	v16.4s, v26.4h, v9.4h
    42f4:	3e440000 	.inst	0x3e440000 ; undefined
    42f8:	0000007e 	udf	#126
    42fc:	07489102 	.inst	0x07489102 ; undefined
    4300:	0000088e 	udf	#2190
    4304:	00c81146 	.inst	0x00c81146 ; undefined
    4308:	91020000 	add	x0, x0, #0x80
    430c:	0e580770 	fmaxnm	v16.4h, v27.4h, v24.4h
    4310:	184a0000 	ldr	w0, 98310 <thread_list+0xf8f0>
    4314:	0000007e 	udf	#126
    4318:	0b689102 	.inst	0x0b689102 ; undefined
    431c:	51007469 	sub	w9, w3, #0x1d
    4320:	0000c811 	udf	#51217
    4324:	78910200 	ldursh	x0, [x16, #-240]
    4328:	05271800 	ext	z0.b, z0.b, z0.b, #62
    432c:	2e010000 	ext	v0.8b, v0.8b, v1.8b, #0
    4330:	08432806 	ldxrb	w6, [x0]
    4334:	00000000 	udf	#0
    4338:	0000ec00 	udf	#60416
    433c:	00000000 	udf	#0
    4340:	989c0100 	ldrsw	x0, fffffffffff3c360 <_end+0xfffffffffd54abd0>
    4344:	07000002 	.inst	0x07000002 ; undefined
    4348:	0000088e 	udf	#2190
    434c:	00c8112f 	.inst	0x00c8112f ; undefined
    4350:	91020000 	add	x0, x0, #0x80
    4354:	b90c0078 	str	w24, [x3, #3072]
    4358:	29000003 	stp	w3, w0, [x0]
    435c:	00084318 	.inst	0x00084318 ; undefined
    4360:	00000000 	udf	#0
    4364:	00000010 	udf	#16
    4368:	00000000 	udf	#0
    436c:	390c9c01 	strb	w1, [x0, #807]
    4370:	24000004 	cmphs	p4.b, p0/z, z0.b, z0.b
    4374:	00084308 	.inst	0x00084308 ; undefined
    4378:	00000000 	udf	#0
    437c:	00000010 	udf	#16
    4380:	00000000 	udf	#0
    4384:	71199c01 	subs	w1, w0, #0x667
    4388:	01000006 	.inst	0x01000006 ; undefined
    438c:	42bc0615 	.inst	0x42bc0615 ; undefined
    4390:	00000008 	udf	#8
    4394:	004c0000 	.inst	0x004c0000 ; undefined
    4398:	00000000 	udf	#0
    439c:	9c010000 	ldr	q0, 639c <_start-0x79c64>
    43a0:	000002f5 	udf	#757
    43a4:	706d740b 	adr	x11, df227 <thread_list+0x56807>
    43a8:	f5131e00 	.inst	0xf5131e00 ; undefined
    43ac:	02000002 	.inst	0x02000002 ; undefined
    43b0:	02007891 	.inst	0x02007891 ; undefined
    43b4:	004c0708 	.inst	0x004c0708 ; undefined
    43b8:	29080000 	stp	w0, w0, [x0, #64]
    43bc:	0e00000e 	tbl	v14.8b, {v0.16b}, v0.8b
    43c0:	0008426c 	.inst	0x0008426c ; undefined
    43c4:	00000000 	udf	#0
    43c8:	00000050 	udf	#80
    43cc:	00000000 	udf	#0
    43d0:	03349c01 	.inst	0x03349c01 ; undefined
    43d4:	8e030000 	.inst	0x8e030000 ; undefined
    43d8:	0e000008 	tbl	v8.8b, {v0.16b}, v0.8b
    43dc:	0000c82a 	udf	#51242
    43e0:	78910200 	ldursh	x0, [x16, #-240]
    43e4:	00746909 	.inst	0x00746909 ; undefined
    43e8:	00c83c0e 	.inst	0x00c83c0e ; undefined
    43ec:	91020000 	add	x0, x0, #0x80
    43f0:	571a0070 	.inst	0x571a0070 ; undefined
    43f4:	01000006 	.inst	0x01000006 ; undefined
    43f8:	42080608 	.inst	0x42080608 ; undefined
    43fc:	00000008 	udf	#8
    4400:	00640000 	.inst	0x00640000 ; undefined
    4404:	00000000 	udf	#0
    4408:	9c010000 	ldr	q0, 6408 <_start-0x79bf8>
    440c:	00039400 	.inst	0x00039400 ; undefined
    4410:	01000500 	.inst	0x01000500 ; undefined
    4414:	0014d808 	.inst	0x0014d808 ; undefined
    4418:	01220c00 	.inst	0x01220c00 ; undefined
    441c:	541d0000 	b.eq	3e41c <_start-0x41be4>  // b.none
    4420:	00000001 	udf	#1
    4424:	f0000000 	adrp	x0, 7000 <_start-0x79000>
    4428:	00000845 	udf	#2117
    442c:	b8000000 	stur	w0, [x0]
    4430:	00000006 	udf	#6
    4434:	bd000000 	str	s0, [x0]
    4438:	0d00001b 	st1	{v27.b}[0], [x0]
    443c:	00000045 	udf	#69
    4440:	0000003e 	udf	#62
    4444:	00003e0e 	udf	#15886
    4448:	0600ff00 	.inst	0x0600ff00 ; undefined
    444c:	004c0708 	.inst	0x004c0708 ; undefined
    4450:	01060000 	.inst	0x01060000 ; undefined
    4454:	00052208 	.inst	0x00052208 ; undefined
    4458:	0f4e0200 	.inst	0x0f4e0200 ; undefined
    445c:	06070000 	.inst	0x06070000 ; undefined
    4460:	0000002e 	udf	#46
    4464:	15800309 	b	6005088 <_end+0x36138f8>
    4468:	0000021f 	udf	#543
    446c:	bd020000 	str	s0, [x0, #512]
    4470:	0800000e 	stxrb	w0, w14, [x0]
    4474:	00002e06 	udf	#11782
    4478:	80030900 	.inst	0x80030900 ; undefined
    447c:	00021f16 	.inst	0x00021f16 ; undefined
    4480:	02000000 	.inst	0x02000000 ; undefined
    4484:	00000f5d 	udf	#3933
    4488:	008b0e09 	.inst	0x008b0e09 ; undefined
    448c:	03090000 	.inst	0x03090000 ; undefined
    4490:	021f1780 	.inst	0x021f1780 ; undefined
    4494:	00000000 	udf	#0
    4498:	51070406 	sub	w6, w0, #0x1c1
    449c:	02000000 	.inst	0x02000000 ; undefined
    44a0:	00000f28 	udf	#3880
    44a4:	008b0e0a 	.inst	0x008b0e0a ; undefined
    44a8:	03090000 	.inst	0x03090000 ; undefined
    44ac:	021f1784 	.inst	0x021f1784 ; undefined
    44b0:	00000000 	udf	#0
    44b4:	000f0802 	.inst	0x000f0802 ; undefined
    44b8:	8b0e0b00 	add	x0, x24, x14, lsl #2
    44bc:	09000000 	.inst	0x09000000 ; undefined
    44c0:	1f178803 	fmsub	s3, s0, s23, s2
    44c4:	00000002 	udf	#2
    44c8:	0ef00200 	.inst	0x0ef00200 ; undefined
    44cc:	0e0c0000 	tbl	v0.8b, {v0.16b}, v12.8b
    44d0:	0000008b 	udf	#139
    44d4:	178c0309 	b	fffffffffe3050f8 <_end+0xfffffffffb913968>
    44d8:	0000021f 	udf	#543
    44dc:	37020000 	tbnz	w0, #0, 84dc <_start-0x77b24>
    44e0:	0d00000b 	st1	{v11.b}[0], [x0]
    44e4:	0000e605 	udf	#58885
    44e8:	a8030900 	stnp	x0, x2, [x8, #48]
    44ec:	00000887 	udf	#2183
    44f0:	0f000000 	.inst	0x0f000000 ; undefined
    44f4:	6e690504 	uhadd	v4.8h, v8.8h, v9.8h
    44f8:	15100074 	b	44046c8 <_end+0x1a12f38>
    44fc:	0200000f 	.inst	0x0200000f ; undefined
    4500:	008b0e07 	.inst	0x008b0e07 ; undefined
    4504:	010d0000 	.inst	0x010d0000 ; undefined
    4508:	0d070000 	.inst	0x0d070000 ; undefined
    450c:	07000001 	.inst	0x07000001 ; undefined
    4510:	0000010d 	udf	#269
    4514:	00011307 	.inst	0x00011307 ; undefined
    4518:	08110000 	stxrb	w17, w0, [x0]
    451c:	00000045 	udf	#69
    4520:	000f1e12 	.inst	0x000f1e12 ; undefined
    4524:	00032000 	.inst	0x00032000 ; undefined
    4528:	00000152 	udf	#338
    452c:	000ee803 	.inst	0x000ee803 ; undefined
    4530:	00015200 	.inst	0x00015200 ; undefined
    4534:	df030000 	.inst	0xdf030000 ; undefined
    4538:	5200000e 	eor	w14, w0, #0x1
    453c:	08000001 	stxrb	w0, w1, [x0]
    4540:	000f4003 	.inst	0x000f4003 ; undefined
    4544:	00015200 	.inst	0x00015200 ; undefined
    4548:	6a031000 	ands	w0, w0, w3, lsl #4
    454c:	e600000f 	.inst	0xe600000f ; undefined
    4550:	18000000 	ldr	w0, 4550 <_start-0x7bab0>
    4554:	000f3603 	.inst	0x000f3603 ; undefined
    4558:	0000e600 	udf	#58880
    455c:	13001c00 	sxtb	w0, w0
    4560:	03e00408 	.inst	0x03e00408 ; undefined
    4564:	84af0000 	ld1sh	{z0.s}, p0/z, [x0, z15.s, uxtw #1]
    4568:	0000084c 	udf	#2124
    456c:	24000000 	cmphs	p0.b, p0/z, z0.b, z0.b
    4570:	00000000 	udf	#0
    4574:	01000000 	.inst	0x01000000 ; undefined
    4578:	0eaa049c 	shadd	v28.2s, v4.2s, v10.2s
    457c:	60ab0000 	.inst	0x60ab0000 ; undefined
    4580:	0000084c 	udf	#2124
    4584:	24000000 	cmphs	p0.b, p0/z, z0.b, z0.b
    4588:	00000000 	udf	#0
    458c:	01000000 	.inst	0x01000000 ; undefined
    4590:	04f5049c 	sub	z28.d, z4.d, z21.d
    4594:	3ca70000 	.inst	0x3ca70000 ; undefined
    4598:	0000084c 	udf	#2124
    459c:	24000000 	cmphs	p0.b, p0/z, z0.b, z0.b
    45a0:	00000000 	udf	#0
    45a4:	01000000 	.inst	0x01000000 ; undefined
    45a8:	0ecc049c 	fminnm	v28.4h, v4.4h, v12.4h
    45ac:	18a30000 	ldr	w0, fffffffffff4a5ac <_end+0xfffffffffd558e1c>
    45b0:	0000084c 	udf	#2124
    45b4:	24000000 	cmphs	p0.b, p0/z, z0.b, z0.b
    45b8:	00000000 	udf	#0
    45bc:	01000000 	.inst	0x01000000 ; undefined
    45c0:	0ac8089c 	and	w28, w4, w8, ror #2
    45c4:	45980000 	saddlb	z0.s, z0.h, z24.h
    45c8:	8c000000 	.inst	0x8c000000 ; undefined
    45cc:	0000084b 	udf	#2123
    45d0:	8c000000 	.inst	0x8c000000 ; undefined
    45d4:	00000000 	udf	#0
    45d8:	01000000 	.inst	0x01000000 ; undefined
    45dc:	0001e19c 	.inst	0x0001e19c ; undefined
    45e0:	00630100 	.inst	0x00630100 ; undefined
    45e4:	00450a9e 	.inst	0x00450a9e ; undefined
    45e8:	91020000 	add	x0, x0, #0x80
    45ec:	4b09007f 	sub	wzr, w3, w9
    45f0:	8f00000b 	.inst	0x8f00000b ; undefined
    45f4:	00084af4 	.inst	0x00084af4 ; undefined
    45f8:	00000000 	udf	#0
    45fc:	00000098 	udf	#152
    4600:	00000000 	udf	#0
    4604:	020a9c01 	.inst	0x020a9c01 ; undefined
    4608:	63050000 	.inst	0x63050000 ; undefined
    460c:	451b8f00 	.inst	0x451b8f00 ; undefined
    4610:	02000000 	.inst	0x02000000 ; undefined
    4614:	0a007f91 	and	w17, w28, w0, lsl #31
    4618:	00000425 	udf	#1061
    461c:	084a2c7d 	ldxrb	w29, [x3]
    4620:	00000000 	udf	#0
    4624:	0000c800 	udf	#51200
    4628:	00000000 	udf	#0
    462c:	0a9c0100 	and	w0, w8, w28, asr #0
    4630:	00000411 	udf	#1041
    4634:	0849786d 	ldxrb	w13, [x3]
    4638:	00000000 	udf	#0
    463c:	0000b400 	udf	#46080
    4640:	00000000 	udf	#0
    4644:	149c0100 	b	2704a44 <_heap_top+0x5132b4>
    4648:	000001bf 	udf	#447
    464c:	e6055b01 	.inst	0xe6055b01 ; undefined
    4650:	a8000000 	stnp	x0, x0, [x0]
    4654:	00000848 	udf	#2120
    4658:	d0000000 	adrp	x0, 6000 <_start-0x7a000>
    465c:	00000000 	udf	#0
    4660:	01000000 	.inst	0x01000000 ; undefined
    4664:	0002a99c 	.inst	0x0002a99c ; undefined
    4668:	6d660500 	ldp	d0, d1, [x8, #-416]
    466c:	195b0074 	ldapurb	w20, [x3, #-80]
    4670:	0000010d 	udf	#269
    4674:	7d889103 	.inst	0x7d889103 ; undefined
    4678:	0f490b15 	.inst	0x0f490b15 ; undefined
    467c:	175c0000 	b	fffffffffd70467c <_end+0xfffffffffad12eec>
    4680:	00000113 	udf	#275
    4684:	7f909103 	fmulx	s3, s8, v16.s[0]
    4688:	66756201 	.inst	0x66756201 ; undefined
    468c:	2e0a5e00 	.inst	0x2e0a5e00 ; undefined
    4690:	03000000 	.inst	0x03000000 ; undefined
    4694:	017d9091 	.inst	0x017d9091 ; undefined
    4698:	00727473 	.inst	0x00727473 ; undefined
    469c:	010d0b60 	.inst	0x010d0b60 ; undefined
    46a0:	91030000 	add	x0, x0, #0xc0
    46a4:	0b0b7fb8 	add	w24, w29, w11, lsl #31
    46a8:	61000004 	.inst	0x61000004 ; undefined
    46ac:	0000e609 	udf	#58889
    46b0:	b4910300 	cbz	x0, fffffffffff26710 <_end+0xfffffffffd534f80>
    46b4:	a509007f 	ld1rqw	{z31.s}, p0/z, [x3, x9, lsl #2]
    46b8:	51000004 	sub	w4, w0, #0x0
    46bc:	00084824 	.inst	0x00084824 ; undefined
    46c0:	00000000 	udf	#0
    46c4:	00000084 	udf	#132
    46c8:	00000000 	udf	#0
    46cc:	02ea9c01 	.inst	0x02ea9c01 ; undefined
    46d0:	64050000 	.inst	0x64050000 ; undefined
    46d4:	8b1d5100 	add	x0, x8, x29, lsl #20
    46d8:	02000000 	.inst	0x02000000 ; undefined
    46dc:	6e016c91 	mov	v17.b[0], v4.b[13]
    46e0:	8b125200 	add	x0, x16, x18, lsl #20
    46e4:	02000000 	.inst	0x02000000 ; undefined
    46e8:	63017891 	.inst	0x63017891 ; undefined
    46ec:	e6095300 	.inst	0xe6095300 ; undefined
    46f0:	02000000 	.inst	0x02000000 ; undefined
    46f4:	16007c91 	b	fffffffff8023938 <_end+0xfffffffff56321a8>
    46f8:	00000c40 	udf	#3136
    46fc:	e4064c01 	st1b	{z1.b}, p3, [x0, x6]
    4700:	00000847 	udf	#2119
    4704:	40000000 	.inst	0x40000000 ; undefined
    4708:	00000000 	udf	#0
    470c:	01000000 	.inst	0x01000000 ; undefined
    4710:	0003159c 	.inst	0x0003159c ; undefined
    4714:	00630500 	.inst	0x00630500 ; undefined
    4718:	0045154c 	.inst	0x0045154c ; undefined
    471c:	91020000 	add	x0, x0, #0x80
    4720:	fe08007f 	.inst	0xfe08007f ; undefined
    4724:	3e00000e 	.inst	0x3e00000e ; undefined
    4728:	00000045 	udf	#69
    472c:	00084760 	.inst	0x00084760 ; undefined
    4730:	00000000 	udf	#0
    4734:	00000084 	udf	#132
    4738:	00000000 	udf	#0
    473c:	03429c01 	.inst	0x03429c01 ; undefined
    4740:	72010000 	ands	w0, w0, #0x80000000
    4744:	450a3f00 	.inst	0x450a3f00 ; undefined
    4748:	02000000 	.inst	0x02000000 ; undefined
    474c:	17007f91 	b	fffffffffc024590 <_end+0xfffffffff9632e00>
    4750:	00000f74 	udf	#3956
    4754:	45063701 	.inst	0x45063701 ; undefined
    4758:	24000000 	cmphs	p0.b, p0/z, z0.b, z0.b
    475c:	00000847 	udf	#2119
    4760:	3c000000 	stur	b0, [x0]
    4764:	00000000 	udf	#0
    4768:	01000000 	.inst	0x01000000 ; undefined
    476c:	0003719c 	.inst	0x0003719c ; undefined
    4770:	00720100 	.inst	0x00720100 ; undefined
    4774:	00450a38 	.inst	0x00450a38 ; undefined
    4778:	91020000 	add	x0, x0, #0x80
    477c:	6718007f 	.inst	0x6718007f ; undefined
    4780:	01000006 	.inst	0x01000006 ; undefined
    4784:	45f0060f 	.inst	0x45f0060f ; undefined
    4788:	00000008 	udf	#8
    478c:	01340000 	.inst	0x01340000 ; undefined
    4790:	00000000 	udf	#0
    4794:	9c010000 	ldr	q0, 6794 <_start-0x7986c>
    4798:	10007201 	adr	x1, 55d8 <_start-0x7aa28>
    479c:	00008b1b 	udf	#35611
    47a0:	00630100 	.inst	0x00630100 ; undefined
    47a4:	00049300 	.inst	0x00049300 ; undefined
    47a8:	01000500 	.inst	0x01000500 ; undefined
    47ac:	00168308 	.inst	0x00168308 ; undefined
    47b0:	01220c00 	.inst	0x01220c00 ; undefined
    47b4:	6b1d0000 	subs	w0, w0, w29
    47b8:	00000001 	udf	#1
    47bc:	a8000000 	stnp	x0, x0, [x0]
    47c0:	0000084c 	udf	#2124
    47c4:	f0000000 	adrp	x0, 7000 <_start-0x79000>
    47c8:	0000000a 	udf	#10
    47cc:	4d000000 	st1	{v0.b}[8], [x0]
    47d0:	0300001e 	.inst	0x0300001e ; undefined
    47d4:	04550508 	.inst	0x04550508 ; undefined
    47d8:	b20d0000 	orr	x0, x0, #0x8000000080000
    47dc:	02000003 	.inst	0x02000003 ; undefined
    47e0:	004117d1 	.inst	0x004117d1 ; undefined
    47e4:	08030000 	stxrb	w3, w0, [x0]
    47e8:	00004c07 	udf	#19463
    47ec:	07040300 	.inst	0x07040300 ; undefined
    47f0:	00000051 	udf	#81
    47f4:	50050803 	adr	x3, e8f6 <_start-0x7170a>
    47f8:	03000004 	.inst	0x03000004 ; undefined
    47fc:	04e90410 	sub	z16.d, z0.d, z9.d
    4800:	f2040000 	ands	x0, x0, #0x1000000010000000
    4804:	d500000b 	msr	s0_0_c0_c0_0, x11
    4808:	0000b905 	udf	#47365
    480c:	08570000 	ldxrb	w0, [x0]
    4810:	00000000 	udf	#0
    4814:	00009800 	udf	#38912
    4818:	00000000 	udf	#0
    481c:	b99c0100 	ldrsw	x0, [x8, #7168]
    4820:	02000000 	.inst	0x02000000 ; undefined
    4824:	00727473 	.inst	0x00727473 ; undefined
    4828:	00c010d5 	.inst	0x00c010d5 ; undefined
    482c:	91020000 	add	x0, x0, #0x80
    4830:	61760168 	.inst	0x61760168 ; undefined
    4834:	09d6006c 	.inst	0x09d6006c ; undefined
    4838:	000000b9 	udf	#185
    483c:	097c9102 	.inst	0x097c9102 ; undefined
    4840:	0008570c 	.inst	0x0008570c ; undefined
    4844:	00000000 	udf	#0
    4848:	00000080 	udf	#128
    484c:	00000000 	udf	#0
    4850:	d7006901 	.inst	0xd7006901 ; undefined
    4854:	0000b90e 	udf	#47374
    4858:	78910200 	ldursh	x0, [x16, #-240]
    485c:	040e0000 	.inst	0x040e0000 ; undefined
    4860:	746e6905 	.inst	0x746e6905 ; undefined
    4864:	00c50700 	.inst	0x00c50700 ; undefined
    4868:	01030000 	.inst	0x01030000 ; undefined
    486c:	00052208 	.inst	0x00052208 ; undefined
    4870:	00c50a00 	.inst	0x00c50a00 ; undefined
    4874:	af040000 	.inst	0xaf040000 ; undefined
    4878:	c400000a 	ld1sb	{z10.d}, p0/z, [x0, z0.d, uxtw]
    487c:	0000c007 	udf	#49159
    4880:	08569800 	ldaxrb	w0, [x0]
    4884:	00000000 	udf	#0
    4888:	00006800 	udf	#26624
    488c:	00000000 	udf	#0
    4890:	0f9c0100 	fmlal	v0.2s, v8.2h, v12.h[1]
    4894:	08000001 	stxrb	w0, w1, [x0]
    4898:	000005ce 	udf	#1486
    489c:	00c01cc4 	.inst	0x00c01cc4 ; undefined
    48a0:	91020000 	add	x0, x0, #0x80
    48a4:	6e650168 	uaddl2	v8.4s, v11.8h, v5.8h
    48a8:	0bc50064 	.inst	0x0bc50064 ; undefined
    48ac:	000000c0 	udf	#192
    48b0:	00789102 	.inst	0x00789102 ; undefined
    48b4:	000e220b 	.inst	0x000e220b ; undefined
    48b8:	c007c000 	.inst	0xc007c000 ; undefined
    48bc:	64000000 	.inst	0x64000000 ; undefined
    48c0:	00000856 	udf	#2134
    48c4:	34000000 	cbz	w0, 48c4 <_start-0x7b73c>
    48c8:	00000000 	udf	#0
    48cc:	01000000 	.inst	0x01000000 ; undefined
    48d0:	00014d9c 	.inst	0x00014d9c ; undefined
    48d4:	0f900800 	fmlal	v0.2s, v0.2h, v0.h[5]
    48d8:	14c00000 	b	30048d8 <_end+0x613148>
    48dc:	000000c0 	udf	#192
    48e0:	02789102 	.inst	0x02789102 ; undefined
    48e4:	00637273 	.inst	0x00637273 ; undefined
    48e8:	014d26c0 	.inst	0x014d26c0 ; undefined
    48ec:	91020000 	add	x0, x0, #0x80
    48f0:	cc070070 	.inst	0xcc070070 ; undefined
    48f4:	04000000 	add	z0.b, p0/m, z0.b, z0.b
    48f8:	00000a3c 	udf	#2620
    48fc:	00c007b7 	.inst	0x00c007b7 ; undefined
    4900:	56000000 	.inst	0x56000000 ; undefined
    4904:	00000008 	udf	#8
    4908:	00640000 	.inst	0x00640000 ; undefined
    490c:	00000000 	udf	#0
    4910:	9c010000 	ldr	q0, 6910 <_start-0x796f0>
    4914:	000001b6 	udf	#438
    4918:	000f9008 	.inst	0x000f9008 ; undefined
    491c:	b614b700 	tbz	x0, #34, ffffffffffffdffc <_end+0xfffffffffd60c86c>
    4920:	02000001 	.inst	0x02000001 ; undefined
    4924:	73026891 	.inst	0x73026891 ; undefined
    4928:	b7006372 	tbnz	x18, #32, 5594 <_start-0x7aa6c>
    492c:	0001b826 	.inst	0x0001b826 ; undefined
    4930:	60910200 	.inst	0x60910200 ; undefined
    4934:	6e656c02 	umin	v2.8h, v0.8h, v5.8h
    4938:	be3eb700 	.inst	0xbe3eb700 ; undefined
    493c:	02000001 	.inst	0x02000001 ; undefined
    4940:	64015891 	.inst	0x64015891 ; undefined
    4944:	c00bb800 	.inst	0xc00bb800 ; undefined
    4948:	02000000 	.inst	0x02000000 ; undefined
    494c:	73017891 	.inst	0x73017891 ; undefined
    4950:	4d11b900 	.inst	0x4d11b900 ; undefined
    4954:	02000001 	.inst	0x02000001 ; undefined
    4958:	0f007091 	.inst	0x0f007091 ; undefined
    495c:	01bd0708 	.inst	0x01bd0708 ; undefined
    4960:	03100000 	.inst	0x03100000 ; undefined
    4964:	00470708 	.inst	0x00470708 ; undefined
    4968:	ad040000 	stp	q0, q0, [x0, #128]
    496c:	92000000 	and	x0, x0, #0x100000001
    4970:	0000b905 	udf	#47365
    4974:	0853d800 	ldaxrb	w0, [x0]
    4978:	00000000 	udf	#0
    497c:	00022800 	.inst	0x00022800 ; undefined
    4980:	00000000 	udf	#0
    4984:	469c0100 	.inst	0x469c0100 ; undefined
    4988:	02000002 	.inst	0x02000002 ; undefined
    498c:	92003173 	and	x19, x11, #0x1fff00001fff
    4990:	00014d19 	.inst	0x00014d19 ; undefined
    4994:	68910200 	stgp	x0, x0, [x16], #544
    4998:	00327302 	.inst	0x00327302 ; NYI
    499c:	014d2992 	.inst	0x014d2992 ; undefined
    49a0:	91020000 	add	x0, x0, #0x80
    49a4:	006e0260 	.inst	0x006e0260 ; undefined
    49a8:	01be4092 	.inst	0x01be4092 ; undefined
    49ac:	91020000 	add	x0, x0, #0x80
    49b0:	31630158 	adds	w24, w10, #0x8c0, lsl #12
    49b4:	46139300 	.inst	0x46139300 ; undefined
    49b8:	02000002 	.inst	0x02000002 ; undefined
    49bc:	63017f91 	.inst	0x63017f91 ; undefined
    49c0:	13940032 	extr	w18, w1, w20, #0
    49c4:	00000246 	udf	#582
    49c8:	097e9102 	.inst	0x097e9102 ; undefined
    49cc:	000853fc 	.inst	0x000853fc ; undefined
    49d0:	00000000 	udf	#0
    49d4:	00000180 	udf	#384
    49d8:	00000000 	udf	#0
    49dc:	00346e01 	.inst	0x00346e01 ; NYI
    49e0:	00351096 	.inst	0x00351096 ; NYI
    49e4:	91020000 	add	x0, x0, #0x80
    49e8:	03000070 	.inst	0x03000070 ; undefined
    49ec:	05190801 	mov	z1.b, p9/z, #64
    49f0:	460a0000 	.inst	0x460a0000 ; undefined
    49f4:	04000002 	add	z2.b, p0/m, z2.b, z0.b
    49f8:	00000c6c 	udf	#3180
    49fc:	00b90584 	.inst	0x00b90584 ; undefined
    4a00:	53540000 	.inst	0x53540000 ; undefined
    4a04:	00000008 	udf	#8
    4a08:	00840000 	.inst	0x00840000 ; undefined
    4a0c:	00000000 	udf	#0
    4a10:	9c010000 	ldr	q0, 6a10 <_start-0x795f0>
    4a14:	000002c2 	udf	#706
    4a18:	00317002 	.inst	0x00317002 ; NYI
    4a1c:	014d1884 	.inst	0x014d1884 ; undefined
    4a20:	91020000 	add	x0, x0, #0x80
    4a24:	32700258 	.inst	0x32700258 ; undefined
    4a28:	4d288400 	.inst	0x4d288400 ; undefined
    4a2c:	02000001 	.inst	0x02000001 ; undefined
    4a30:	73015091 	.inst	0x73015091 ; undefined
    4a34:	1a850031 	csel	w17, w1, w5, eq  // eq = none
    4a38:	000002c2 	udf	#706
    4a3c:	01789102 	.inst	0x01789102 ; undefined
    4a40:	86003273 	.inst	0x86003273 ; undefined
    4a44:	0002c21a 	.inst	0x0002c21a ; undefined
    4a48:	70910200 	adr	x0, fffffffffff26a8b <_end+0xfffffffffd5352fb>
    4a4c:	00316301 	.inst	0x00316301 ; NYI
    4a50:	02461387 	.inst	0x02461387 ; undefined
    4a54:	91020000 	add	x0, x0, #0x80
    4a58:	3263016f 	.inst	0x3263016f ; undefined
    4a5c:	46178700 	.inst	0x46178700 ; undefined
    4a60:	02000002 	.inst	0x02000002 ; undefined
    4a64:	07006e91 	.inst	0x07006e91 ; undefined
    4a68:	0000024d 	udf	#589
    4a6c:	00037004 	.inst	0x00037004 ; undefined
    4a70:	be147b00 	.inst	0xbe147b00 ; undefined
    4a74:	14000001 	b	4a78 <_start-0x7b588>
    4a78:	00000853 	udf	#2131
    4a7c:	40000000 	.inst	0x40000000 ; undefined
    4a80:	00000000 	udf	#0
    4a84:	01000000 	.inst	0x01000000 ; undefined
    4a88:	0003059c 	.inst	0x0003059c ; undefined
    4a8c:	74730200 	.inst	0x74730200 ; undefined
    4a90:	277b0072 	.inst	0x277b0072 ; undefined
    4a94:	0000014d 	udf	#333
    4a98:	05689102 	clasta	z2.h, p4, z2.h, z8.h
    4a9c:	0000040b 	udf	#1035
    4aa0:	00350c7c 	.inst	0x00350c7c ; NYI
    4aa4:	91020000 	add	x0, x0, #0x80
    4aa8:	160b0078 	b	fffffffff82c4c88 <_end+0xfffffffff58d34f8>
    4aac:	7300000f 	.inst	0x7300000f ; undefined
    4ab0:	0000480e 	udf	#18446
    4ab4:	08528c00 	ldaxrb	w0, [x0]
    4ab8:	00000000 	udf	#0
    4abc:	00008800 	udf	#34816
    4ac0:	00000000 	udf	#0
    4ac4:	619c0100 	.inst	0x619c0100 ; undefined
    4ac8:	02000003 	.inst	0x02000003 ; undefined
    4acc:	00747364 	.inst	0x00747364 ; undefined
    4ad0:	00c01c73 	.inst	0x00c01c73 ; undefined
    4ad4:	91030000 	add	x0, x0, #0xc0
    4ad8:	66027f98 	.inst	0x66027f98 ; undefined
    4adc:	7300746d 	.inst	0x7300746d ; undefined
    4ae0:	0000c027 	udf	#49191
    4ae4:	90910300 	adrp	x0, ffffffff22064000 <_end+0xffffffff1f672870>
    4ae8:	4905117f 	.inst	0x4905117f ; undefined
    4aec:	7400000f 	.inst	0x7400000f ; undefined
    4af0:	00036117 	.inst	0x00036117 ; undefined
    4af4:	a8910300 	stp	x0, x0, [x24], #272
    4af8:	0072017f 	.inst	0x0072017f ; undefined
    4afc:	00481276 	.inst	0x00481276 ; undefined
    4b00:	91020000 	add	x0, x0, #0x80
    4b04:	1e12004c 	.inst	0x1e12004c ; undefined
    4b08:	2000000f 	.inst	0x2000000f ; undefined
    4b0c:	03a00003 	.inst	0x03a00003 ; undefined
    4b10:	e8060000 	.inst	0xe8060000 ; undefined
    4b14:	b600000e 	tbz	x14, #32, 4b14 <_start-0x7b4ec>
    4b18:	00000001 	udf	#1
    4b1c:	000edf06 	.inst	0x000edf06 ; undefined
    4b20:	0001b600 	.inst	0x0001b600 ; undefined
    4b24:	40060800 	.inst	0x40060800 ; undefined
    4b28:	b600000f 	tbz	x15, #32, 4b28 <_start-0x7b4d8>
    4b2c:	10000001 	adr	x1, 4b2c <_start-0x7b4d4>
    4b30:	000f6a06 	.inst	0x000f6a06 ; undefined
    4b34:	0000b900 	udf	#47360
    4b38:	36061800 	tbz	w0, #0, e38 <_start-0x7f1c8>
    4b3c:	b900000f 	str	w15, [x0]
    4b40:	1c000000 	ldr	s0, 4b40 <_start-0x7b4c0>
    4b44:	0f150400 	sshr	v0.4h, v0.4h, #11
    4b48:	0e050000 	tbl	v0.8b, {v0.16b}, v5.8b
    4b4c:	00000048 	udf	#72
    4b50:	00084ca8 	.inst	0x00084ca8 ; undefined
    4b54:	00000000 	udf	#0
    4b58:	000005e4 	udf	#1508
    4b5c:	00000000 	udf	#0
    4b60:	048a9c01 	.inst	0x048a9c01 ; undefined
    4b64:	64020000 	.inst	0x64020000 ; undefined
    4b68:	05007473 	orr	z19.h, z19.h, #0x3c
    4b6c:	0000c01d 	udf	#49181
    4b70:	b8910300 	ldursw	x0, [x24, #-240]
    4b74:	6d66027f 	ldp	d31, d0, [x19, #-416]
    4b78:	28050074 	stnp	w20, w0, [x3, #40]
    4b7c:	000000c0 	udf	#192
    4b80:	7fb09103 	fmulx	s3, s8, v16.s[1]
    4b84:	000f4908 	.inst	0x000f4908 ; undefined
    4b88:	613f0500 	.inst	0x613f0500 ; undefined
    4b8c:	02000003 	.inst	0x02000003 ; undefined
    4b90:	61010083 	.inst	0x61010083 ; undefined
    4b94:	08006772 	stxrb	w0, w18, [x27]
    4b98:	00002e0e 	udf	#11790
    4b9c:	78910200 	ldursh	x0, [x16, #-240]
    4ba0:	6e656c01 	umin	v1.8h, v0.8h, v5.8h
    4ba4:	b9090900 	str	w0, [x8, #2312]
    4ba8:	02000000 	.inst	0x02000000 ; undefined
    4bac:	9a057491 	.inst	0x9a057491 ; undefined
    4bb0:	0900000f 	.inst	0x0900000f ; undefined
    4bb4:	0000b90e 	udf	#47374
    4bb8:	70910200 	adr	x0, fffffffffff26bfb <_end+0xfffffffffd53546b>
    4bbc:	09006901 	.inst	0x09006901 ; undefined
    4bc0:	0000b914 	udf	#47380
    4bc4:	6c910200 	stp	d0, d0, [x16], #272
    4bc8:	0a007001 	and	w1, w0, w0, lsl #28
    4bcc:	0000c00b 	udf	#49163
    4bd0:	60910200 	.inst	0x60910200 ; undefined
    4bd4:	000f9505 	.inst	0x000f9505 ; undefined
    4bd8:	c00f0a00 	.inst	0xc00f0a00 ; undefined
    4bdc:	02000000 	.inst	0x02000000 ; undefined
    4be0:	7e055891 	.inst	0x7e055891 ; undefined
    4be4:	0a00000f 	and	w15, w0, w0
    4be8:	00048a1b 	.inst	0x00048a1b ; undefined
    4bec:	40910200 	.inst	0x40910200 ; undefined
    4bf0:	74757013 	.inst	0x74757013 ; undefined
    4bf4:	096a0100 	.inst	0x096a0100 ; undefined
    4bf8:	0008523c 	.inst	0x0008523c ; undefined
    4bfc:	00000000 	udf	#0
    4c00:	000f8514 	.inst	0x000f8514 ; undefined
    4c04:	0d610100 	.inst	0x0d610100 ; undefined
    4c08:	000851e0 	.inst	0x000851e0 ; undefined
    4c0c:	00000000 	udf	#0
    4c10:	0850a409 	ldaxrb	w9, [x0]
    4c14:	00000000 	udf	#0
    4c18:	00005800 	udf	#22528
    4c1c:	00000000 	udf	#0
    4c20:	006e0100 	.inst	0x006e0100 ; undefined
    4c24:	00c51a54 	.inst	0x00c51a54 ; undefined
    4c28:	91020000 	add	x0, x0, #0x80
    4c2c:	15000057 	b	4004d88 <_end+0x16135f8>
    4c30:	000000c5 	udf	#197
    4c34:	00004116 	udf	#16662
    4c38:	00001200 	udf	#4608

Disassembly of section .debug_abbrev:

0000000000000000 <.debug_abbrev>:
       0:	03000d01 	.inst	0x03000d01 ; undefined
       4:	02213a0e 	.inst	0x02213a0e ; undefined
       8:	21390b3b 	.inst	0x21390b3b ; undefined
       c:	38134907 	sttrb	w7, [x8, #-204]
      10:	0200000b 	.inst	0x0200000b ; undefined
      14:	210b000f 	.inst	0x210b000f ; undefined
      18:	00134908 	.inst	0x00134908 ; undefined
      1c:	00050300 	.inst	0x00050300 ; undefined
      20:	213a0e03 	.inst	0x213a0e03 ; undefined
      24:	390b3b01 	strb	w1, [x24, #718]
      28:	0213490b 	.inst	0x0213490b ; undefined
      2c:	04000018 	add	z24.b, p0/m, z24.b, z0.b
      30:	0b0b0024 	add	w4, w1, w11
      34:	0e030b3e 	.inst	0x0e030b3e ; undefined
      38:	05050000 	.inst	0x05050000 ; undefined
      3c:	00134900 	.inst	0x00134900 ; undefined
      40:	01010600 	.inst	0x01010600 ; undefined
      44:	13011349 	sbfx	w9, w26, #1, #4
      48:	21070000 	.inst	0x21070000 ; undefined
      4c:	2f134900 	.inst	0x2f134900 ; undefined
      50:	0800000b 	stxrb	w0, w11, [x0]
      54:	0e030034 	tbl	v20.8b, {v1.16b}, v3.8b
      58:	3b01213a 	.inst	0x3b01213a ; undefined
      5c:	1221390b 	and	w11, w8, #0x80003fff
      60:	18021349 	ldr	w9, 42c8 <_start-0x7bd38>
      64:	34090000 	cbz	w0, 12064 <_start-0x6df9c>
      68:	3a080300 	adcs	w0, w24, w8
      6c:	0b3b0121 	add	w1, w9, w27, uxtb
      70:	13490b39 	.inst	0x13490b39 ; undefined
      74:	00001802 	udf	#6146
      78:	2501110a 	cmpge	p10.b, p4/z, z8.b, #1
      7c:	030b130e 	.inst	0x030b130e ; undefined
      80:	111f1b1f 	add	wsp, w24, #0x7c6
      84:	10071201 	adr	x1, e2c4 <_start-0x71d3c>
      88:	0b000017 	add	w23, w0, w0
      8c:	0e030113 	tbl	v19.8b, {v8.16b}, v3.8b
      90:	0b3a0b0b 	add	w11, w24, w26, uxtb #2
      94:	0b390b3b 	add	w27, w25, w25, uxtb #2
      98:	00001301 	udf	#4865
      9c:	4900260c 	.inst	0x4900260c ; undefined
      a0:	0d000013 	st1	{v19.b}[0], [x0]
      a4:	193f012e 	.inst	0x193f012e ; undefined
      a8:	0b3a0e03 	add	w3, w16, w26, uxtb #3
      ac:	0b390b3b 	add	w27, w25, w25, uxtb #2
      b0:	13491927 	.inst	0x13491927 ; undefined
      b4:	1301193c 	sbfx	w28, w9, #1, #6
      b8:	240e0000 	cmphs	p0.b, p0/z, z0.b, z14.b
      bc:	3e0b0b00 	.inst	0x3e0b0b00 ; undefined
      c0:	0008030b 	.inst	0x0008030b ; undefined
      c4:	012e0f00 	.inst	0x012e0f00 ; undefined
      c8:	0e03193f 	uzp1	v31.8b, v9.8b, v3.8b
      cc:	0b3b0b3a 	add	w26, w25, w27, uxtb #2
      d0:	19270b39 	.inst	0x19270b39 ; undefined
      d4:	01111349 	.inst	0x01111349 ; undefined
      d8:	18400712 	ldr	w18, 801b8 <parse_hex_str+0x150>
      dc:	1301197c 	sbfx	w28, w11, #1, #6
      e0:	2e100000 	ext	v0.8b, v0.8b, v16.8b, #0
      e4:	3a0e0301 	adcs	w1, w24, w14
      e8:	390b3b0b 	strb	w11, [x24, #718]
      ec:	4919270b 	.inst	0x4919270b ; undefined
      f0:	12011113 	and	w19, w8, #0x8000000f
      f4:	7a184007 	.inst	0x7a184007 ; undefined
      f8:	11000019 	add	w25, w0, #0x0
      fc:	08030005 	stxrb	w3, w5, [x0]
     100:	0b3b0b3a 	add	w26, w25, w27, uxtb #2
     104:	13490b39 	.inst	0x13490b39 ; undefined
     108:	00001802 	udf	#6146
     10c:	11010b12 	add	w18, w24, #0x42
     110:	00071201 	.inst	0x00071201 ; undefined
     114:	0d010000 	.inst	0x0d010000 ; undefined
     118:	3a0e0300 	adcs	w0, w24, w14
     11c:	0b3b0121 	add	w1, w9, w27, uxtb
     120:	490e2139 	.inst	0x490e2139 ; undefined
     124:	000b3813 	.inst	0x000b3813 ; undefined
     128:	00050200 	.inst	0x00050200 ; undefined
     12c:	213a0e03 	.inst	0x213a0e03 ; undefined
     130:	390b3b01 	strb	w1, [x24, #718]
     134:	0213490b 	.inst	0x0213490b ; undefined
     138:	03000018 	.inst	0x03000018 ; undefined
     13c:	0e030034 	tbl	v20.8b, {v1.16b}, v3.8b
     140:	3b01213a 	.inst	0x3b01213a ; undefined
     144:	490b390b 	.inst	0x490b390b ; undefined
     148:	00180213 	.inst	0x00180213 ; undefined
     14c:	00050400 	.inst	0x00050400 ; undefined
     150:	00001349 	udf	#4937
     154:	03003405 	.inst	0x03003405 ; undefined
     158:	01213a08 	.inst	0x01213a08 ; undefined
     15c:	0b390b3b 	add	w27, w25, w25, uxtb #2
     160:	18021349 	ldr	w9, 43c8 <_start-0x7bc38>
     164:	0f060000 	.inst	0x0f060000 ; undefined
     168:	08210b00 	.inst	0x08210b00 ; undefined
     16c:	00001349 	udf	#4937
     170:	0b002407 	add	w7, w0, w0, lsl #9
     174:	030b3e0b 	.inst	0x030b3e0b ; undefined
     178:	0800000e 	stxrb	w0, w14, [x0]
     17c:	0111010b 	.inst	0x0111010b ; undefined
     180:	00000712 	udf	#1810
     184:	3f012e09 	.inst	0x3f012e09 ; undefined
     188:	3a0e0319 	adcs	w25, w24, w14
     18c:	390b3b0b 	strb	w11, [x24, #718]
     190:	4919270b 	.inst	0x4919270b ; undefined
     194:	01193c13 	.inst	0x01193c13 ; undefined
     198:	0a000013 	and	w19, w0, w0
     19c:	193f012e 	.inst	0x193f012e ; undefined
     1a0:	213a0e03 	.inst	0x213a0e03 ; undefined
     1a4:	390b3b01 	strb	w1, [x24, #718]
     1a8:	19270621 	.inst	0x19270621 ; undefined
     1ac:	07120111 	.inst	0x07120111 ; undefined
     1b0:	197c1840 	.inst	0x197c1840 ; undefined
     1b4:	00001301 	udf	#4865
     1b8:	0300340b 	.inst	0x0300340b ; undefined
     1bc:	01213a0e 	.inst	0x01213a0e ; undefined
     1c0:	21390b3b 	.inst	0x21390b3b ; undefined
     1c4:	3f13490e 	.inst	0x3f13490e ; undefined
     1c8:	00193c19 	.inst	0x00193c19 ; undefined
     1cc:	01130c00 	.inst	0x01130c00 ; undefined
     1d0:	0b0b0e03 	add	w3, w16, w11, lsl #3
     1d4:	3b01213a 	.inst	0x3b01213a ; undefined
     1d8:	0821390b 	.inst	0x0821390b ; undefined
     1dc:	00001301 	udf	#4865
     1e0:	11010b0d 	add	w13, w24, #0x42
     1e4:	01071201 	.inst	0x01071201 ; undefined
     1e8:	0e000013 	tbl	v19.8b, {v0.16b}, v0.8b
     1ec:	0e250111 	saddl	v17.8h, v8.8b, v5.8b
     1f0:	1f030b13 	fmadd	s19, s24, s3, s2
     1f4:	01111f1b 	.inst	0x01111f1b ; undefined
     1f8:	17100712 	b	fffffffffc401e40 <_end+0xfffffffff9a106b0>
     1fc:	160f0000 	b	fffffffff83c01fc <_end+0xfffffffff59cea6c>
     200:	3a0e0300 	adcs	w0, w24, w14
     204:	390b3b0b 	strb	w11, [x24, #718]
     208:	0013490b 	.inst	0x0013490b ; undefined
     20c:	01151000 	.inst	0x01151000 ; undefined
     210:	13011927 	sbfx	w7, w9, #1, #6
     214:	26110000 	.inst	0x26110000 ; undefined
     218:	00134900 	.inst	0x00134900 ; undefined
     21c:	000f1200 	.inst	0x000f1200 ; undefined
     220:	00000b0b 	udf	#2827
     224:	0b002413 	add	w19, w0, w0, lsl #9
     228:	030b3e0b 	.inst	0x030b3e0b ; undefined
     22c:	14000008 	b	24c <_start-0x7fdb4>
     230:	0e030034 	tbl	v20.8b, {v1.16b}, v3.8b
     234:	0b3b0b3a 	add	w26, w25, w27, uxtb #2
     238:	13490b39 	.inst	0x13490b39 ; undefined
     23c:	1802193f 	ldr	wzr, 4560 <_start-0x7baa0>
     240:	2e150000 	ext	v0.8b, v0.8b, v21.8b, #0
     244:	03193f01 	.inst	0x03193f01 ; undefined
     248:	3b0b3a0e 	.inst	0x3b0b3a0e ; undefined
     24c:	270b390b 	.inst	0x270b390b ; undefined
     250:	01193c19 	.inst	0x01193c19 ; undefined
     254:	16000013 	b	fffffffff80002a0 <_end+0xfffffffff560eb10>
     258:	00000018 	udf	#24
     25c:	3f012e17 	.inst	0x3f012e17 ; undefined
     260:	3a0e0319 	adcs	w25, w24, w14
     264:	390b3b0b 	strb	w11, [x24, #718]
     268:	1201110b 	and	w11, w8, #0x8000000f
     26c:	7c184007 	stur	h7, [x0, #-124]
     270:	00130119 	.inst	0x00130119 ; undefined
     274:	012e1800 	.inst	0x012e1800 ; undefined
     278:	0e03193f 	uzp1	v31.8b, v9.8b, v3.8b
     27c:	0b3b0b3a 	add	w26, w25, w27, uxtb #2
     280:	19270b39 	.inst	0x19270b39 ; undefined
     284:	01111349 	.inst	0x01111349 ; undefined
     288:	18400712 	ldr	w18, 80368 <uint32_endian_big2little+0x34>
     28c:	1301197a 	sbfx	w26, w11, #1, #6
     290:	2e190000 	ext	v0.8b, v0.8b, v25.8b, #0
     294:	03193f01 	.inst	0x03193f01 ; undefined
     298:	3b0b3a0e 	.inst	0x3b0b3a0e ; undefined
     29c:	270b390b 	.inst	0x270b390b ; undefined
     2a0:	11134919 	add	w25, w8, #0x4d2
     2a4:	40071201 	.inst	0x40071201 ; undefined
     2a8:	00197a18 	.inst	0x00197a18 ; undefined
     2ac:	0d010000 	.inst	0x0d010000 ; undefined
     2b0:	3a080300 	adcs	w0, w24, w8
     2b4:	390b3b0b 	strb	w11, [x24, #718]
     2b8:	3813490b 	sttrb	w11, [x8, #-204]
     2bc:	0200000b 	.inst	0x0200000b ; undefined
     2c0:	13490005 	.inst	0x13490005 ; undefined
     2c4:	0d030000 	.inst	0x0d030000 ; undefined
     2c8:	3a0e0300 	adcs	w0, w24, w14
     2cc:	390b3b0b 	strb	w11, [x24, #718]
     2d0:	3813490b 	sttrb	w11, [x8, #-204]
     2d4:	0400000b 	add	z11.b, p0/m, z11.b, z0.b
     2d8:	210b000f 	.inst	0x210b000f ; undefined
     2dc:	00134908 	.inst	0x00134908 ; undefined
     2e0:	00180500 	.inst	0x00180500 ; undefined
     2e4:	24060000 	cmphs	p0.b, p0/z, z0.b, z6.b
     2e8:	3e0b0b00 	.inst	0x3e0b0b00 ; undefined
     2ec:	000e030b 	.inst	0x000e030b ; undefined
     2f0:	012e0700 	.inst	0x012e0700 ; undefined
     2f4:	0e03193f 	uzp1	v31.8b, v9.8b, v3.8b
     2f8:	0b3b0b3a 	add	w26, w25, w27, uxtb #2
     2fc:	27062139 	.inst	0x27062139 ; undefined
     300:	01193c19 	.inst	0x01193c19 ; undefined
     304:	08000013 	stxrb	w0, w19, [x0]
     308:	193f012e 	.inst	0x193f012e ; undefined
     30c:	0b3a0e03 	add	w3, w16, w26, uxtb #3
     310:	0b390b3b 	add	w27, w25, w25, uxtb #2
     314:	13491927 	.inst	0x13491927 ; undefined
     318:	1301193c 	sbfx	w28, w9, #1, #6
     31c:	2e090000 	ext	v0.8b, v0.8b, v9.8b, #0
     320:	03193f01 	.inst	0x03193f01 ; undefined
     324:	3b0b3a0e 	.inst	0x3b0b3a0e ; undefined
     328:	0621390b 	.inst	0x0621390b ; undefined
     32c:	1301193c 	sbfx	w28, w9, #1, #6
     330:	0d0a0000 	.inst	0x0d0a0000 ; undefined
     334:	3a0e0300 	adcs	w0, w24, w14
     338:	390b3b0b 	strb	w11, [x24, #718]
     33c:	3813490b 	sttrb	w11, [x8, #-204]
     340:	0b000005 	add	w5, w0, w0
     344:	0e030016 	tbl	v22.8b, {v0.16b}, v3.8b
     348:	0b3b0b3a 	add	w26, w25, w27, uxtb #2
     34c:	13490b39 	.inst	0x13490b39 ; undefined
     350:	340c0000 	cbz	w0, 18350 <_start-0x67cb0>
     354:	3a080300 	adcs	w0, w24, w8
     358:	0b3b0121 	add	w1, w9, w27, uxtb
     35c:	13490b39 	.inst	0x13490b39 ; undefined
     360:	00001802 	udf	#6146
     364:	0300340d 	.inst	0x0300340d ; undefined
     368:	01213a0e 	.inst	0x01213a0e ; undefined
     36c:	0b390b3b 	add	w27, w25, w25, uxtb #2
     370:	18021349 	ldr	w9, 45d8 <_start-0x7ba28>
     374:	2e0e0000 	ext	v0.8b, v0.8b, v14.8b, #0
     378:	03193f01 	.inst	0x03193f01 ; undefined
     37c:	01213a0e 	.inst	0x01213a0e ; undefined
     380:	21390b3b 	.inst	0x21390b3b ; undefined
     384:	11192706 	add	w6, w24, #0x649
     388:	40071201 	.inst	0x40071201 ; undefined
     38c:	01197c18 	.inst	0x01197c18 ; undefined
     390:	0f000013 	.inst	0x0f000013 ; undefined
     394:	08030005 	stxrb	w3, w5, [x0]
     398:	3b01213a 	.inst	0x3b01213a ; undefined
     39c:	490b390b 	.inst	0x490b390b ; undefined
     3a0:	00180213 	.inst	0x00180213 ; undefined
     3a4:	00051000 	.inst	0x00051000 ; undefined
     3a8:	213a0e03 	.inst	0x213a0e03 ; undefined
     3ac:	390b3b01 	strb	w1, [x24, #718]
     3b0:	0213490b 	.inst	0x0213490b ; undefined
     3b4:	11000018 	add	w24, w0, #0x0
     3b8:	193f002e 	.inst	0x193f002e ; undefined
     3bc:	213a0e03 	.inst	0x213a0e03 ; undefined
     3c0:	390b3b01 	strb	w1, [x24, #718]
     3c4:	01110621 	.inst	0x01110621 ; undefined
     3c8:	18400712 	ldr	w18, 804a8 <traverse_device_tree+0x48>
     3cc:	0000197c 	udf	#6524
     3d0:	03011312 	.inst	0x03011312 ; undefined
     3d4:	3a0b0b0e 	.inst	0x3a0b0b0e ; undefined
     3d8:	390b3b0b 	strb	w11, [x24, #718]
     3dc:	13011021 	sbfx	w1, w1, #1, #4
     3e0:	13130000 	sbfiz	w0, w0, #13, #1
     3e4:	0b0e0301 	add	w1, w24, w14
     3e8:	3b0b3a05 	.inst	0x3b0b3a05 ; undefined
     3ec:	1021390b 	adr	x11, 42b0c <_start-0x3d4f4>
     3f0:	00001301 	udf	#4865
     3f4:	49002614 	.inst	0x49002614 ; undefined
     3f8:	15000013 	b	4000444 <_end+0x160ecb4>
     3fc:	13490101 	.inst	0x13490101 ; undefined
     400:	00001301 	udf	#4865
     404:	49002116 	.inst	0x49002116 ; undefined
     408:	000b2f13 	.inst	0x000b2f13 ; undefined
     40c:	002e1700 	.inst	0x002e1700 ; NYI
     410:	0e03193f 	uzp1	v31.8b, v9.8b, v3.8b
     414:	3b01213a 	.inst	0x3b01213a ; undefined
     418:	0621390b 	.inst	0x0621390b ; undefined
     41c:	07120111 	.inst	0x07120111 ; undefined
     420:	197a1840 	.inst	0x197a1840 ; undefined
     424:	11180000 	add	w0, w0, #0x600
     428:	130e2501 	sbfiz	w1, w8, #18, #10
     42c:	1b1f030b 	madd	w11, w24, wzr, w0
     430:	1201111f 	and	wsp, w8, #0x8000000f
     434:	00171007 	.inst	0x00171007 ; undefined
     438:	000f1900 	.inst	0x000f1900 ; undefined
     43c:	00000b0b 	udf	#2827
     440:	0b00241a 	add	w26, w0, w0, lsl #9
     444:	030b3e0b 	.inst	0x030b3e0b ; undefined
     448:	1b000008 	madd	w8, w0, w0, w0
     44c:	13010115 	sbfiz	w21, w8, #31, #1
     450:	341c0000 	cbz	w0, 38450 <_start-0x47bb0>
     454:	3a0e0300 	adcs	w0, w24, w14
     458:	390b3b0b 	strb	w11, [x24, #718]
     45c:	3f13490b 	.inst	0x3f13490b ; undefined
     460:	00180219 	.inst	0x00180219 ; undefined
     464:	00341d00 	.inst	0x00341d00 ; NYI
     468:	0b3a0e03 	add	w3, w16, w26, uxtb #3
     46c:	0b390b3b 	add	w27, w25, w25, uxtb #2
     470:	193f1349 	.inst	0x193f1349 ; undefined
     474:	0000193c 	udf	#6460
     478:	3f012e1e 	.inst	0x3f012e1e ; undefined
     47c:	3a0e0319 	adcs	w25, w24, w14
     480:	390b3b0b 	strb	w11, [x24, #718]
     484:	1113490b 	add	w11, w8, #0x4d2
     488:	40071201 	.inst	0x40071201 ; undefined
     48c:	01197c18 	.inst	0x01197c18 ; undefined
     490:	1f000013 	fmadd	s19, s0, s0, s0
     494:	0111010b 	.inst	0x0111010b ; undefined
     498:	00000712 	udf	#1810
     49c:	3f012e20 	.inst	0x3f012e20 ; undefined
     4a0:	3a0e0319 	adcs	w25, w24, w14
     4a4:	390b3b0b 	strb	w11, [x24, #718]
     4a8:	1119270b 	add	w11, w24, #0x649
     4ac:	40071201 	.inst	0x40071201 ; undefined
     4b0:	01197a18 	.inst	0x01197a18 ; undefined
     4b4:	00000013 	udf	#19
     4b8:	49000501 	.inst	0x49000501 ; undefined
     4bc:	02000013 	.inst	0x02000013 ; undefined
     4c0:	00000018 	udf	#24
     4c4:	3f012e03 	.inst	0x3f012e03 ; undefined
     4c8:	3a0e0319 	adcs	w25, w24, w14
     4cc:	390b3b0b 	strb	w11, [x24, #718]
     4d0:	193c0621 	.inst	0x193c0621 ; undefined
     4d4:	00001301 	udf	#4865
     4d8:	3f012e04 	.inst	0x3f012e04 ; undefined
     4dc:	3a0e0319 	adcs	w25, w24, w14
     4e0:	390b3b0b 	strb	w11, [x24, #718]
     4e4:	19270621 	.inst	0x19270621 ; undefined
     4e8:	1301193c 	sbfx	w28, w9, #1, #6
     4ec:	24050000 	cmphs	p0.b, p0/z, z0.b, z5.b
     4f0:	3e0b0b00 	.inst	0x3e0b0b00 ; undefined
     4f4:	000e030b 	.inst	0x000e030b ; undefined
     4f8:	000f0600 	.inst	0x000f0600 ; undefined
     4fc:	4908210b 	.inst	0x4908210b ; undefined
     500:	07000013 	.inst	0x07000013 ; undefined
     504:	0e250111 	saddl	v17.8h, v8.8b, v5.8b
     508:	1f030b13 	fmadd	s19, s24, s3, s2
     50c:	01111f1b 	.inst	0x01111f1b ; undefined
     510:	17100712 	b	fffffffffc402158 <_end+0xfffffffff9a109c8>
     514:	16080000 	b	fffffffff8200514 <_end+0xfffffffff580ed84>
     518:	3a0e0300 	adcs	w0, w24, w14
     51c:	390b3b0b 	strb	w11, [x24, #718]
     520:	0013490b 	.inst	0x0013490b ; undefined
     524:	01150900 	.inst	0x01150900 ; undefined
     528:	13011927 	sbfx	w7, w9, #1, #6
     52c:	0f0a0000 	.inst	0x0f0a0000 ; undefined
     530:	000b0b00 	.inst	0x000b0b00 ; undefined
     534:	00240b00 	.inst	0x00240b00 ; NYI
     538:	0b3e0b0b 	add	w11, w24, w30, uxtb #2
     53c:	00000803 	udf	#2051
     540:	4901010c 	.inst	0x4901010c ; undefined
     544:	00130113 	.inst	0x00130113 ; undefined
     548:	00210d00 	.inst	0x00210d00 ; NYI
     54c:	0b2f1349 	add	w9, w26, w15, uxtb #4
     550:	340e0000 	cbz	w0, 1c550 <_start-0x63ab0>
     554:	3a0e0300 	adcs	w0, w24, w14
     558:	390b3b0b 	strb	w11, [x24, #718]
     55c:	3f13490b 	.inst	0x3f13490b ; undefined
     560:	00193c19 	.inst	0x00193c19 ; undefined
     564:	00340f00 	.inst	0x00340f00 ; NYI
     568:	0b3a0e03 	add	w3, w16, w26, uxtb #3
     56c:	0b390b3b 	add	w27, w25, w25, uxtb #2
     570:	193f1349 	.inst	0x193f1349 ; undefined
     574:	00001802 	udf	#6146
     578:	3f012e10 	.inst	0x3f012e10 ; undefined
     57c:	3a0e0319 	adcs	w25, w24, w14
     580:	390b3b0b 	strb	w11, [x24, #718]
     584:	4919270b 	.inst	0x4919270b ; undefined
     588:	01193c13 	.inst	0x01193c13 ; undefined
     58c:	11000013 	add	w19, w0, #0x0
     590:	193f012e 	.inst	0x193f012e ; undefined
     594:	0b3a0e03 	add	w3, w16, w26, uxtb #3
     598:	0b390b3b 	add	w27, w25, w25, uxtb #2
     59c:	193c1349 	.inst	0x193c1349 ; undefined
     5a0:	00001301 	udf	#4865
     5a4:	3f012e12 	.inst	0x3f012e12 ; undefined
     5a8:	3a0e0319 	adcs	w25, w24, w14
     5ac:	390b3b0b 	strb	w11, [x24, #718]
     5b0:	1119270b 	add	w11, w24, #0x649
     5b4:	40071201 	.inst	0x40071201 ; undefined
     5b8:	00197c18 	.inst	0x00197c18 ; undefined
     5bc:	00051300 	.inst	0x00051300 ; undefined
     5c0:	0b3a0803 	add	w3, w0, w26, uxtb #2
     5c4:	0b390b3b 	add	w27, w25, w25, uxtb #2
     5c8:	18021349 	ldr	w9, 4830 <_start-0x7b7d0>
     5cc:	01000000 	.inst	0x01000000 ; undefined
     5d0:	0e030028 	tbl	v8.8b, {v1.16b}, v3.8b
     5d4:	00000b1c 	udf	#2844
     5d8:	03002802 	.inst	0x03002802 ; undefined
     5dc:	00061c0e 	.inst	0x00061c0e ; undefined
     5e0:	00240300 	.inst	0x00240300 ; NYI
     5e4:	0b3e0b0b 	add	w11, w24, w30, uxtb #2
     5e8:	00000e03 	udf	#3587
     5ec:	49003504 	.inst	0x49003504 ; undefined
     5f0:	05000013 	orr	z19.s, z19.s, #0x1
     5f4:	0e030104 	tbl	v4.8b, {v8.16b}, v3.8b
     5f8:	0b07213e 	add	w30, w9, w7, lsl #8
     5fc:	13490421 	.inst	0x13490421 ; undefined
     600:	3b02213a 	.inst	0x3b02213a ; undefined
     604:	0621390b 	.inst	0x0621390b ; undefined
     608:	00001301 	udf	#4865
     60c:	03000506 	.inst	0x03000506 ; undefined
     610:	01213a0e 	.inst	0x01213a0e ; undefined
     614:	3908213b 	strb	w27, [x9, #520]
     618:	0213490b 	.inst	0x0213490b ; undefined
     61c:	07000018 	.inst	0x07000018 ; undefined
     620:	0e250111 	saddl	v17.8h, v8.8b, v5.8b
     624:	1f030b13 	fmadd	s19, s24, s3, s2
     628:	01111f1b 	.inst	0x01111f1b ; undefined
     62c:	17100712 	b	fffffffffc402274 <_end+0xfffffffff9a10ae4>
     630:	01080000 	.inst	0x01080000 ; undefined
     634:	01134901 	.inst	0x01134901 ; undefined
     638:	09000013 	.inst	0x09000013 ; undefined
     63c:	13490021 	.inst	0x13490021 ; undefined
     640:	00000b2f 	udf	#2863
     644:	0300340a 	.inst	0x0300340a ; undefined
     648:	3b0b3a08 	.inst	0x3b0b3a08 ; undefined
     64c:	490b390b 	.inst	0x490b390b ; undefined
     650:	3c193f13 	str	b19, [x24, #-109]!
     654:	0b000019 	add	w25, w0, w0
     658:	0b3e0104 	add	w4, w8, w30, uxtb
     65c:	13490b0b 	.inst	0x13490b0b ; undefined
     660:	0b3b0b3a 	add	w26, w25, w27, uxtb #2
     664:	13010b39 	sbfx	w25, w25, #1, #2
     668:	160c0000 	b	fffffffff8300668 <_end+0xfffffffff590eed8>
     66c:	3a0e0300 	adcs	w0, w24, w14
     670:	390b3b0b 	strb	w11, [x24, #718]
     674:	0013490b 	.inst	0x0013490b ; undefined
     678:	00340d00 	.inst	0x00340d00 ; NYI
     67c:	0b3a1347 	add	w7, w26, w26, uxtb #4
     680:	0b390b3b 	add	w27, w25, w25, uxtb #2
     684:	00001802 	udf	#6146
     688:	3f012e0e 	.inst	0x3f012e0e ; undefined
     68c:	3a0e0319 	adcs	w25, w24, w14
     690:	390b3b0b 	strb	w11, [x24, #718]
     694:	4919270b 	.inst	0x4919270b ; undefined
     698:	01193c13 	.inst	0x01193c13 ; undefined
     69c:	0f000013 	.inst	0x0f000013 ; undefined
     6a0:	13490005 	.inst	0x13490005 ; undefined
     6a4:	18100000 	ldr	w0, 206a4 <_start-0x5f95c>
     6a8:	11000000 	add	w0, w0, #0x0
     6ac:	0b0b0024 	add	w4, w1, w11
     6b0:	08030b3e 	stxrb	w3, w30, [x25]
     6b4:	0f120000 	.inst	0x0f120000 ; undefined
     6b8:	490b0b00 	.inst	0x490b0b00 ; undefined
     6bc:	13000013 	sbfx	w19, w0, #0, #1
     6c0:	193f012e 	.inst	0x193f012e ; undefined
     6c4:	0b3a0e03 	add	w3, w16, w26, uxtb #3
     6c8:	0b390b3b 	add	w27, w25, w25, uxtb #2
     6cc:	13491927 	.inst	0x13491927 ; undefined
     6d0:	07120111 	.inst	0x07120111 ; undefined
     6d4:	197c1840 	.inst	0x197c1840 ; undefined
     6d8:	01000000 	.inst	0x01000000 ; undefined
     6dc:	0e030034 	tbl	v20.8b, {v1.16b}, v3.8b
     6e0:	3b01213a 	.inst	0x3b01213a ; undefined
     6e4:	490b390b 	.inst	0x490b390b ; undefined
     6e8:	00180213 	.inst	0x00180213 ; undefined
     6ec:	010b0200 	.inst	0x010b0200 ; undefined
     6f0:	07120111 	.inst	0x07120111 ; undefined
     6f4:	34030000 	cbz	w0, 66f4 <_start-0x7990c>
     6f8:	3a0e0300 	adcs	w0, w24, w14
     6fc:	053b0121 	ext	z1.b, z1.b, z9.b, #216
     700:	13490b39 	.inst	0x13490b39 ; undefined
     704:	00001802 	udf	#6146
     708:	03003404 	.inst	0x03003404 ; undefined
     70c:	01213a08 	.inst	0x01213a08 ; undefined
     710:	0b390b3b 	add	w27, w25, w25, uxtb #2
     714:	18021349 	ldr	w9, 497c <_start-0x7b684>
     718:	05050000 	.inst	0x05050000 ; undefined
     71c:	3a0e0300 	adcs	w0, w24, w14
     720:	0b3b0121 	add	w1, w9, w27, uxtb
     724:	13490b39 	.inst	0x13490b39 ; undefined
     728:	00001802 	udf	#6146
     72c:	03000d06 	.inst	0x03000d06 ; undefined
     730:	02213a0e 	.inst	0x02213a0e ; undefined
     734:	0b390b3b 	add	w27, w25, w25, uxtb #2
     738:	0b381349 	add	w9, w26, w24, uxtb #4
     73c:	0f070000 	.inst	0x0f070000 ; undefined
     740:	08210b00 	.inst	0x08210b00 ; undefined
     744:	00001349 	udf	#4937
     748:	03003408 	.inst	0x03003408 ; undefined
     74c:	01213a08 	.inst	0x01213a08 ; undefined
     750:	0b39053b 	add	w27, w9, w25, uxtb #1
     754:	18021349 	ldr	w9, 49bc <_start-0x7b644>
     758:	05090000 	.inst	0x05090000 ; undefined
     75c:	3a080300 	adcs	w0, w24, w8
     760:	0b3b0121 	add	w1, w9, w27, uxtb
     764:	13490b39 	.inst	0x13490b39 ; undefined
     768:	00001802 	udf	#6146
     76c:	0b00240a 	add	w10, w0, w0, lsl #9
     770:	030b3e0b 	.inst	0x030b3e0b ; undefined
     774:	0b00000e 	add	w14, w0, w0
     778:	08030005 	stxrb	w3, w5, [x0]
     77c:	3b01213a 	.inst	0x3b01213a ; undefined
     780:	490b3905 	.inst	0x490b3905 ; undefined
     784:	00180213 	.inst	0x00180213 ; undefined
     788:	012e0c00 	.inst	0x012e0c00 ; undefined
     78c:	0e03193f 	uzp1	v31.8b, v9.8b, v3.8b
     790:	3b01213a 	.inst	0x3b01213a ; undefined
     794:	0621390b 	.inst	0x0621390b ; undefined
     798:	01111927 	.inst	0x01111927 ; undefined
     79c:	18400712 	ldr	w18, 8087c <dtb_callback_initramfs+0x50>
     7a0:	1301197c 	sbfx	w28, w11, #1, #6
     7a4:	0b0d0000 	add	w0, w0, w13
     7a8:	12011101 	and	w1, w8, #0x8000000f
     7ac:	00130107 	.inst	0x00130107 ; undefined
     7b0:	01130e00 	.inst	0x01130e00 ; undefined
     7b4:	0b0b0e03 	add	w3, w16, w11, lsl #3
     7b8:	3b02213a 	.inst	0x3b02213a ; undefined
     7bc:	1021390b 	adr	x11, 42edc <_start-0x3d124>
     7c0:	00001301 	udf	#4865
     7c4:	03000d0f 	.inst	0x03000d0f ; undefined
     7c8:	02213a08 	.inst	0x02213a08 ; undefined
     7cc:	0b390b3b 	add	w27, w25, w25, uxtb #2
     7d0:	0b381349 	add	w9, w26, w24, uxtb #4
     7d4:	16100000 	b	fffffffff84007d4 <_end+0xfffffffff5a0f044>
     7d8:	3a0e0300 	adcs	w0, w24, w14
     7dc:	0b3b0221 	add	w1, w17, w27, uxtb
     7e0:	49032139 	.inst	0x49032139 ; undefined
     7e4:	11000013 	add	w19, w0, #0x0
     7e8:	193f012e 	.inst	0x193f012e ; undefined
     7ec:	213a0e03 	.inst	0x213a0e03 ; undefined
     7f0:	39053b01 	strb	w1, [x24, #334]
     7f4:	19270621 	.inst	0x19270621 ; undefined
     7f8:	07120111 	.inst	0x07120111 ; undefined
     7fc:	197c1840 	.inst	0x197c1840 ; undefined
     800:	00001301 	udf	#4865
     804:	03000512 	.inst	0x03000512 ; undefined
     808:	01213a0e 	.inst	0x01213a0e ; undefined
     80c:	0b39053b 	add	w27, w9, w25, uxtb #1
     810:	18021349 	ldr	w9, 4a78 <_start-0x7b588>
     814:	2e130000 	ext	v0.8b, v0.8b, v19.8b, #0
     818:	03193f01 	.inst	0x03193f01 ; undefined
     81c:	01213a0e 	.inst	0x01213a0e ; undefined
     820:	21390b3b 	.inst	0x21390b3b ; undefined
     824:	49192707 	.inst	0x49192707 ; undefined
     828:	12011113 	and	w19, w8, #0x8000000f
     82c:	7c184007 	stur	h7, [x0, #-124]
     830:	00130119 	.inst	0x00130119 ; undefined
     834:	012e1400 	.inst	0x012e1400 ; undefined
     838:	0e03193f 	uzp1	v31.8b, v9.8b, v3.8b
     83c:	3b01213a 	.inst	0x3b01213a ; undefined
     840:	0621390b 	.inst	0x0621390b ; undefined
     844:	07120111 	.inst	0x07120111 ; undefined
     848:	197c1840 	.inst	0x197c1840 ; undefined
     84c:	00001301 	udf	#4865
     850:	3f012e15 	.inst	0x3f012e15 ; undefined
     854:	3a0e0319 	adcs	w25, w24, w14
     858:	0b3b0121 	add	w1, w9, w27, uxtb
     85c:	27062139 	.inst	0x27062139 ; undefined
     860:	12011119 	and	w25, w8, #0x8000000f
     864:	7a184007 	.inst	0x7a184007 ; undefined
     868:	00130119 	.inst	0x00130119 ; undefined
     86c:	01111600 	.inst	0x01111600 ; undefined
     870:	0b130e25 	add	w5, w17, w19, lsl #3
     874:	1f1b1f03 	fmadd	s3, s24, s27, s7
     878:	07120111 	.inst	0x07120111 ; undefined
     87c:	00001710 	udf	#5904
     880:	0b002417 	add	w23, w0, w0, lsl #9
     884:	030b3e0b 	.inst	0x030b3e0b ; undefined
     888:	18000008 	ldr	w8, 888 <_start-0x7f778>
     88c:	0b0b000f 	add	w15, w0, w11
     890:	34190000 	cbz	w0, 32890 <_start-0x4d770>
     894:	3a0e0300 	adcs	w0, w24, w14
     898:	390b3b0b 	strb	w11, [x24, #718]
     89c:	3f13490b 	.inst	0x3f13490b ; undefined
     8a0:	00193c19 	.inst	0x00193c19 ; undefined
     8a4:	012e1a00 	.inst	0x012e1a00 ; undefined
     8a8:	0e03193f 	uzp1	v31.8b, v9.8b, v3.8b
     8ac:	0b3b0b3a 	add	w26, w25, w27, uxtb #2
     8b0:	19270b39 	.inst	0x19270b39 ; undefined
     8b4:	193c1349 	.inst	0x193c1349 ; undefined
     8b8:	00001301 	udf	#4865
     8bc:	4900051b 	.inst	0x4900051b ; undefined
     8c0:	1c000013 	ldr	s19, 8c0 <_start-0x7f740>
     8c4:	00000018 	udf	#24
     8c8:	3f012e1d 	.inst	0x3f012e1d ; undefined
     8cc:	3a0e0319 	adcs	w25, w24, w14
     8d0:	39053b0b 	strb	w11, [x24, #334]
     8d4:	4919270b 	.inst	0x4919270b ; undefined
     8d8:	12011113 	and	w19, w8, #0x8000000f
     8dc:	7c184007 	stur	h7, [x0, #-124]
     8e0:	00130119 	.inst	0x00130119 ; undefined
     8e4:	012e1e00 	.inst	0x012e1e00 ; undefined
     8e8:	0e03193f 	uzp1	v31.8b, v9.8b, v3.8b
     8ec:	053b0b3a 	ext	z26.b, z26.b, z25.b, #218
     8f0:	01110b39 	.inst	0x01110b39 ; undefined
     8f4:	18400712 	ldr	w18, 809d4 <dtb_get_reserved_memory+0xfc>
     8f8:	1301197c 	sbfx	w28, w11, #1, #6
     8fc:	2e1f0000 	ext	v0.8b, v0.8b, v31.8b, #0
     900:	03193f01 	.inst	0x03193f01 ; undefined
     904:	3b0b3a0e 	.inst	0x3b0b3a0e ; undefined
     908:	270b3905 	.inst	0x270b3905 ; undefined
     90c:	12011119 	and	w25, w8, #0x8000000f
     910:	7a184007 	.inst	0x7a184007 ; undefined
     914:	00130119 	.inst	0x00130119 ; undefined
     918:	012e2000 	.inst	0x012e2000 ; undefined
     91c:	0e03193f 	uzp1	v31.8b, v9.8b, v3.8b
     920:	0b3b0b3a 	add	w26, w25, w27, uxtb #2
     924:	19270b39 	.inst	0x19270b39 ; undefined
     928:	01111349 	.inst	0x01111349 ; undefined
     92c:	18400712 	ldr	w18, 80a0c <lock+0x14>
     930:	1301197a 	sbfx	w26, w11, #1, #6
     934:	2e210000 	uaddl	v0.8h, v0.8b, v1.8b
     938:	03193f01 	.inst	0x03193f01 ; undefined
     93c:	3b0b3a0e 	.inst	0x3b0b3a0e ; undefined
     940:	270b390b 	.inst	0x270b390b ; undefined
     944:	11134919 	add	w25, w8, #0x4d2
     948:	40071201 	.inst	0x40071201 ; undefined
     94c:	00197a18 	.inst	0x00197a18 ; undefined
     950:	05010000 	orr	z0.s, z0.s, #0x1
     954:	00134900 	.inst	0x00134900 ; undefined
     958:	00340200 	.inst	0x00340200 ; NYI
     95c:	213a0803 	.inst	0x213a0803 ; undefined
     960:	39053b01 	strb	w1, [x24, #334]
     964:	0213490b 	.inst	0x0213490b ; undefined
     968:	03000018 	.inst	0x03000018 ; undefined
     96c:	0e03000d 	tbl	v13.8b, {v0.16b}, v3.8b
     970:	0b3b0b3a 	add	w26, w25, w27, uxtb #2
     974:	13490b39 	.inst	0x13490b39 ; undefined
     978:	00000b38 	udf	#2872
     97c:	03000d04 	.inst	0x03000d04 ; undefined
     980:	07213a08 	.inst	0x07213a08 ; undefined
     984:	0b390b3b 	add	w27, w25, w25, uxtb #2
     988:	0b381349 	add	w9, w26, w24, uxtb #4
     98c:	0f050000 	.inst	0x0f050000 ; undefined
     990:	08210b00 	.inst	0x08210b00 ; undefined
     994:	00001349 	udf	#4937
     998:	03003406 	.inst	0x03003406 ; undefined
     99c:	01213a0e 	.inst	0x01213a0e ; undefined
     9a0:	0b39053b 	add	w27, w9, w25, uxtb #1
     9a4:	18021349 	ldr	w9, 4c0c <_start-0x7b3f4>
     9a8:	34070000 	cbz	w0, e9a8 <_start-0x71658>
     9ac:	3a080300 	adcs	w0, w24, w8
     9b0:	0b3b0121 	add	w1, w9, w27, uxtb
     9b4:	13490b39 	.inst	0x13490b39 ; undefined
     9b8:	00001802 	udf	#6146
     9bc:	03002808 	.inst	0x03002808 ; undefined
     9c0:	000b1c0e 	.inst	0x000b1c0e ; undefined
     9c4:	010b0900 	.inst	0x010b0900 ; undefined
     9c8:	07120111 	.inst	0x07120111 ; undefined
     9cc:	340a0000 	cbz	w0, 149cc <_start-0x6b634>
     9d0:	3a0e0300 	adcs	w0, w24, w14
     9d4:	0b3b0121 	add	w1, w9, w27, uxtb
     9d8:	13490b39 	.inst	0x13490b39 ; undefined
     9dc:	00001802 	udf	#6146
     9e0:	3f012e0b 	.inst	0x3f012e0b ; undefined
     9e4:	3a0e0319 	adcs	w25, w24, w14
     9e8:	390b3b0b 	strb	w11, [x24, #718]
     9ec:	19270621 	.inst	0x19270621 ; undefined
     9f0:	1301193c 	sbfx	w28, w9, #1, #6
     9f4:	2e0c0000 	ext	v0.8b, v0.8b, v12.8b, #0
     9f8:	03193f01 	.inst	0x03193f01 ; undefined
     9fc:	3b0b3a0e 	.inst	0x3b0b3a0e ; undefined
     a00:	270b390b 	.inst	0x270b390b ; undefined
     a04:	3c134919 	.inst	0x3c134919 ; undefined
     a08:	00130119 	.inst	0x00130119 ; undefined
     a0c:	00280d00 	.inst	0x00280d00 ; NYI
     a10:	061c0e03 	.inst	0x061c0e03 ; undefined
     a14:	240e0000 	cmphs	p0.b, p0/z, z0.b, z14.b
     a18:	3e0b0b00 	.inst	0x3e0b0b00 ; undefined
     a1c:	000e030b 	.inst	0x000e030b ; undefined
     a20:	00050f00 	.inst	0x00050f00 ; undefined
     a24:	213a0803 	.inst	0x213a0803 ; undefined
     a28:	39053b01 	strb	w1, [x24, #334]
     a2c:	0213490b 	.inst	0x0213490b ; undefined
     a30:	10000018 	adr	x24, a30 <_start-0x7f5d0>
     a34:	13490101 	.inst	0x13490101 ; undefined
     a38:	00001301 	udf	#4865
     a3c:	49002111 	.inst	0x49002111 ; undefined
     a40:	000b2f13 	.inst	0x000b2f13 ; undefined
     a44:	00181200 	.inst	0x00181200 ; undefined
     a48:	05130000 	mov	z0.b, p3/z, #0
     a4c:	3a0e0300 	adcs	w0, w24, w14
     a50:	0b3b0121 	add	w1, w9, w27, uxtb
     a54:	13490b39 	.inst	0x13490b39 ; undefined
     a58:	00001802 	udf	#6146
     a5c:	03001614 	.inst	0x03001614 ; undefined
     a60:	3b0b3a0e 	.inst	0x3b0b3a0e ; undefined
     a64:	490b390b 	.inst	0x490b390b ; undefined
     a68:	15000013 	b	4000ab4 <_end+0x160f324>
     a6c:	193f012e 	.inst	0x193f012e ; undefined
     a70:	213a0e03 	.inst	0x213a0e03 ; undefined
     a74:	39053b01 	strb	w1, [x24, #334]
     a78:	01110621 	.inst	0x01110621 ; undefined
     a7c:	18400712 	ldr	w18, 80b5c <el0_sync_router+0xe8>
     a80:	1301197c 	sbfx	w28, w11, #1, #6
     a84:	0d160000 	.inst	0x0d160000 ; undefined
     a88:	3a0e0300 	adcs	w0, w24, w14
     a8c:	0b3b0721 	add	w1, w25, w27, uxtb #1
     a90:	13490b39 	.inst	0x13490b39 ; undefined
     a94:	00000538 	udf	#1336
     a98:	3f002e17 	.inst	0x3f002e17 ; undefined
     a9c:	3a0e0319 	adcs	w25, w24, w14
     aa0:	0b3b0121 	add	w1, w9, w27, uxtb
     aa4:	11062139 	add	w25, w9, #0x188
     aa8:	40071201 	.inst	0x40071201 ; undefined
     aac:	00197c18 	.inst	0x00197c18 ; undefined
     ab0:	00341800 	.inst	0x00341800 ; NYI
     ab4:	213a0e03 	.inst	0x213a0e03 ; undefined
     ab8:	390b3b01 	strb	w1, [x24, #718]
     abc:	3f13490b 	.inst	0x3f13490b ; undefined
     ac0:	00180219 	.inst	0x00180219 ; undefined
     ac4:	012e1900 	.inst	0x012e1900 ; undefined
     ac8:	0e03193f 	uzp1	v31.8b, v9.8b, v3.8b
     acc:	0b3b0b3a 	add	w26, w25, w27, uxtb #2
     ad0:	13490b39 	.inst	0x13490b39 ; undefined
     ad4:	1301193c 	sbfx	w28, w9, #1, #6
     ad8:	2e1a0000 	ext	v0.8b, v0.8b, v26.8b, #0
     adc:	03193f01 	.inst	0x03193f01 ; undefined
     ae0:	01213a0e 	.inst	0x01213a0e ; undefined
     ae4:	0b39053b 	add	w27, w9, w25, uxtb #1
     ae8:	13491927 	.inst	0x13491927 ; undefined
     aec:	07120111 	.inst	0x07120111 ; undefined
     af0:	197a1840 	.inst	0x197a1840 ; undefined
     af4:	00001301 	udf	#4865
     af8:	0300051b 	.inst	0x0300051b ; undefined
     afc:	01213a0e 	.inst	0x01213a0e ; undefined
     b00:	0b39053b 	add	w27, w9, w25, uxtb #1
     b04:	18021349 	ldr	w9, 4d6c <_start-0x7b294>
     b08:	2e1c0000 	ext	v0.8b, v0.8b, v28.8b, #0
     b0c:	03193f01 	.inst	0x03193f01 ; undefined
     b10:	01213a0e 	.inst	0x01213a0e ; undefined
     b14:	2139053b 	.inst	0x2139053b ; undefined
     b18:	11192706 	add	w6, w24, #0x649
     b1c:	40071201 	.inst	0x40071201 ; undefined
     b20:	01197c18 	.inst	0x01197c18 ; undefined
     b24:	1d000013 	.inst	0x1d000013 ; undefined
     b28:	193f012e 	.inst	0x193f012e ; undefined
     b2c:	213a0e03 	.inst	0x213a0e03 ; undefined
     b30:	390b3b01 	strb	w1, [x24, #718]
     b34:	19270621 	.inst	0x19270621 ; undefined
     b38:	07120111 	.inst	0x07120111 ; undefined
     b3c:	197c1840 	.inst	0x197c1840 ; undefined
     b40:	00001301 	udf	#4865
     b44:	0301131e 	.inst	0x0301131e ; undefined
     b48:	3a050b0e 	.inst	0x3a050b0e ; undefined
     b4c:	390b3b0b 	strb	w11, [x24, #718]
     b50:	13011021 	sbfx	w1, w1, #1, #4
     b54:	261f0000 	.inst	0x261f0000 ; undefined
     b58:	00134900 	.inst	0x00134900 ; undefined
     b5c:	01132000 	.inst	0x01132000 ; undefined
     b60:	0b0b0e03 	add	w3, w16, w11, lsl #3
     b64:	0b3b0b3a 	add	w26, w25, w27, uxtb #2
     b68:	13010b39 	sbfx	w25, w25, #1, #2
     b6c:	35210000 	cbnz	w0, 42b6c <_start-0x3d494>
     b70:	00134900 	.inst	0x00134900 ; undefined
     b74:	01042200 	.inst	0x01042200 ; undefined
     b78:	0b07213e 	add	w30, w9, w7, lsl #8
     b7c:	13490421 	.inst	0x13490421 ; undefined
     b80:	3b05213a 	.inst	0x3b05213a ; undefined
     b84:	0e21390b 	.inst	0x0e21390b ; undefined
     b88:	00001301 	udf	#4865
     b8c:	03003423 	.inst	0x03003423 ; undefined
     b90:	01213a0e 	.inst	0x01213a0e ; undefined
     b94:	0b390b3b 	add	w27, w25, w25, uxtb #2
     b98:	193f1349 	.inst	0x193f1349 ; undefined
     b9c:	0000193c 	udf	#6460
     ba0:	3f012e24 	.inst	0x3f012e24 ; undefined
     ba4:	3a0e0319 	adcs	w25, w24, w14
     ba8:	053b0121 	ext	z1.b, z1.b, z9.b, #216
     bac:	49052139 	.inst	0x49052139 ; undefined
     bb0:	12011113 	and	w19, w8, #0x8000000f
     bb4:	7a184007 	.inst	0x7a184007 ; undefined
     bb8:	00130119 	.inst	0x00130119 ; undefined
     bbc:	012e2500 	.inst	0x012e2500 ; undefined
     bc0:	0e03193f 	uzp1	v31.8b, v9.8b, v3.8b
     bc4:	3b01213a 	.inst	0x3b01213a ; undefined
     bc8:	0621390b 	.inst	0x0621390b ; undefined
     bcc:	07120111 	.inst	0x07120111 ; undefined
     bd0:	197c1840 	.inst	0x197c1840 ; undefined
     bd4:	00001301 	udf	#4865
     bd8:	03000526 	.inst	0x03000526 ; undefined
     bdc:	01213a08 	.inst	0x01213a08 ; undefined
     be0:	0b390b3b 	add	w27, w25, w25, uxtb #2
     be4:	18021349 	ldr	w9, 4e4c <_start-0x7b1b4>
     be8:	11270000 	add	w0, w0, #0x9c0
     bec:	130e2501 	sbfiz	w1, w8, #18, #10
     bf0:	1b1f030b 	madd	w11, w24, wzr, w0
     bf4:	1201111f 	and	wsp, w8, #0x8000000f
     bf8:	00171007 	.inst	0x00171007 ; undefined
     bfc:	01152800 	.inst	0x01152800 ; undefined
     c00:	13011927 	sbfx	w7, w9, #1, #6
     c04:	0f290000 	.inst	0x0f290000 ; undefined
     c08:	000b0b00 	.inst	0x000b0b00 ; undefined
     c0c:	00342a00 	.inst	0x00342a00 ; NYI
     c10:	0b3a0803 	add	w3, w0, w26, uxtb #2
     c14:	0b390b3b 	add	w27, w25, w25, uxtb #2
     c18:	193f1349 	.inst	0x193f1349 ; undefined
     c1c:	0000193c 	udf	#6460
     c20:	0301042b 	.inst	0x0301042b ; undefined
     c24:	0b0b3e0e 	add	w14, w16, w11, lsl #15
     c28:	3a13490b 	.inst	0x3a13490b ; undefined
     c2c:	390b3b0b 	strb	w11, [x24, #718]
     c30:	0013010b 	.inst	0x0013010b ; undefined
     c34:	00242c00 	.inst	0x00242c00 ; NYI
     c38:	0b3e0b0b 	add	w11, w24, w30, uxtb #2
     c3c:	00000803 	udf	#2051
     c40:	0101152d 	.inst	0x0101152d ; undefined
     c44:	2e000013 	ext	v19.8b, v0.8b, v0.8b, #0
     c48:	193f012e 	.inst	0x193f012e ; undefined
     c4c:	0b3a0e03 	add	w3, w16, w26, uxtb #3
     c50:	0b390b3b 	add	w27, w25, w25, uxtb #2
     c54:	1301193c 	sbfx	w28, w9, #1, #6
     c58:	2e2f0000 	uaddl	v0.8h, v0.8b, v15.8b
     c5c:	03193f01 	.inst	0x03193f01 ; undefined
     c60:	3b0b3a08 	.inst	0x3b0b3a08 ; undefined
     c64:	3c0b390b 	.inst	0x3c0b390b ; undefined
     c68:	00130119 	.inst	0x00130119 ; undefined
     c6c:	00263000 	.inst	0x00263000 ; NYI
     c70:	2e310000 	uaddl	v0.8h, v0.8b, v17.8b
     c74:	03193f01 	.inst	0x03193f01 ; undefined
     c78:	3b0b3a0e 	.inst	0x3b0b3a0e ; undefined
     c7c:	270b3905 	.inst	0x270b3905 ; undefined
     c80:	12011119 	and	w25, w8, #0x8000000f
     c84:	7a184007 	.inst	0x7a184007 ; undefined
     c88:	00130119 	.inst	0x00130119 ; undefined
     c8c:	002e3200 	.inst	0x002e3200 ; NYI
     c90:	0e03193f 	uzp1	v31.8b, v9.8b, v3.8b
     c94:	053b0b3a 	ext	z26.b, z26.b, z25.b, #218
     c98:	01110b39 	.inst	0x01110b39 ; undefined
     c9c:	18400712 	ldr	w18, 80d7c <el1h_irq_router+0xb0>
     ca0:	0000197a 	udf	#6522
     ca4:	3f002e33 	.inst	0x3f002e33 ; undefined
     ca8:	3a0e0319 	adcs	w25, w24, w14
     cac:	39053b0b 	strb	w11, [x24, #334]
     cb0:	1201110b 	and	w11, w8, #0x8000000f
     cb4:	7c184007 	stur	h7, [x0, #-124]
     cb8:	34000019 	cbz	w25, cb8 <_start-0x7f348>
     cbc:	1755010b 	b	fffffffffd5410e8 <_end+0xfffffffffab4f958>
     cc0:	00001301 	udf	#4865
     cc4:	3f012e35 	.inst	0x3f012e35 ; undefined
     cc8:	3a0e0319 	adcs	w25, w24, w14
     ccc:	390b3b0b 	strb	w11, [x24, #718]
     cd0:	1119270b 	add	w11, w24, #0x649
     cd4:	40071201 	.inst	0x40071201 ; undefined
     cd8:	01197a18 	.inst	0x01197a18 ; undefined
     cdc:	36000013 	tbz	w19, #0, cdc <_start-0x7f324>
     ce0:	193f012e 	.inst	0x193f012e ; undefined
     ce4:	0b3a0e03 	add	w3, w16, w26, uxtb #3
     ce8:	0b390b3b 	add	w27, w25, w25, uxtb #2
     cec:	13491927 	.inst	0x13491927 ; undefined
     cf0:	07120111 	.inst	0x07120111 ; undefined
     cf4:	197a1840 	.inst	0x197a1840 ; undefined
     cf8:	00001301 	udf	#4865
     cfc:	3f012e37 	.inst	0x3f012e37 ; undefined
     d00:	3a0e0319 	adcs	w25, w24, w14
     d04:	390b3b0b 	strb	w11, [x24, #718]
     d08:	1119270b 	add	w11, w24, #0x649
     d0c:	40071201 	.inst	0x40071201 ; undefined
     d10:	00197c18 	.inst	0x00197c18 ; undefined
     d14:	0d010000 	.inst	0x0d010000 ; undefined
     d18:	3a080300 	adcs	w0, w24, w8
     d1c:	390b3b0b 	strb	w11, [x24, #718]
     d20:	3813490b 	sttrb	w11, [x8, #-204]
     d24:	0200000b 	.inst	0x0200000b ; undefined
     d28:	0e03000d 	tbl	v13.8b, {v0.16b}, v3.8b
     d2c:	0b3b0b3a 	add	w26, w25, w27, uxtb #2
     d30:	13490b39 	.inst	0x13490b39 ; undefined
     d34:	00000b38 	udf	#2872
     d38:	0b002403 	add	w3, w0, w0, lsl #9
     d3c:	030b3e0b 	.inst	0x030b3e0b ; undefined
     d40:	0400000e 	add	z14.b, p0/m, z14.b, z0.b
     d44:	0e03000d 	tbl	v13.8b, {v0.16b}, v3.8b
     d48:	0b3b0b3a 	add	w26, w25, w27, uxtb #2
     d4c:	13490b39 	.inst	0x13490b39 ; undefined
     d50:	00000538 	udf	#1336
     d54:	0b000f05 	add	w5, w24, w0, lsl #3
     d58:	13490821 	.inst	0x13490821 ; undefined
     d5c:	18060000 	ldr	w0, cd5c <_start-0x732a4>
     d60:	07000000 	.inst	0x07000000 ; undefined
     d64:	13490005 	.inst	0x13490005 ; undefined
     d68:	16080000 	b	fffffffff8200d68 <_end+0xfffffffff580f5d8>
     d6c:	3a0e0300 	adcs	w0, w24, w14
     d70:	390b3b0b 	strb	w11, [x24, #718]
     d74:	13490321 	.inst	0x13490321 ; undefined
     d78:	05090000 	.inst	0x05090000 ; undefined
     d7c:	3a080300 	adcs	w0, w24, w8
     d80:	0b3b0121 	add	w1, w9, w27, uxtb
     d84:	13490b39 	.inst	0x13490b39 ; undefined
     d88:	00001802 	udf	#6146
     d8c:	0301130a 	.inst	0x0301130a ; undefined
     d90:	3a050b0e 	.inst	0x3a050b0e ; undefined
     d94:	390b3b0b 	strb	w11, [x24, #718]
     d98:	13011021 	sbfx	w1, w1, #1, #4
     d9c:	010b0000 	.inst	0x010b0000 ; undefined
     da0:	01134901 	.inst	0x01134901 ; undefined
     da4:	0c000013 	st4	{v19.8b-v22.8b}, [x0]
     da8:	13490021 	.inst	0x13490021 ; undefined
     dac:	00000b2f 	udf	#2863
     db0:	3f012e0d 	.inst	0x3f012e0d ; undefined
     db4:	3a0e0319 	adcs	w25, w24, w14
     db8:	390b3b0b 	strb	w11, [x24, #718]
     dbc:	3c19270b 	str	b11, [x24], #-110
     dc0:	00130119 	.inst	0x00130119 ; undefined
     dc4:	012e0e00 	.inst	0x012e0e00 ; undefined
     dc8:	0e03193f 	uzp1	v31.8b, v9.8b, v3.8b
     dcc:	3b04213a 	.inst	0x3b04213a ; undefined
     dd0:	0621390b 	.inst	0x0621390b ; undefined
     dd4:	1301193c 	sbfx	w28, w9, #1, #6
     dd8:	2e0f0000 	ext	v0.8b, v0.8b, v15.8b, #0
     ddc:	03193f00 	.inst	0x03193f00 ; undefined
     de0:	01213a0e 	.inst	0x01213a0e ; undefined
     de4:	21390b3b 	.inst	0x21390b3b ; undefined
     de8:	12011106 	and	w6, w8, #0x8000000f
     dec:	7c184007 	stur	h7, [x0, #-124]
     df0:	10000019 	adr	x25, df0 <_start-0x7f210>
     df4:	193f012e 	.inst	0x193f012e ; undefined
     df8:	213a0e03 	.inst	0x213a0e03 ; undefined
     dfc:	390b3b01 	strb	w1, [x24, #718]
     e00:	19270621 	.inst	0x19270621 ; undefined
     e04:	07120111 	.inst	0x07120111 ; undefined
     e08:	197c1840 	.inst	0x197c1840 ; undefined
     e0c:	00001301 	udf	#4865
     e10:	25011111 	cmpgt	p1.b, p4/z, z8.b, #1
     e14:	030b130e 	.inst	0x030b130e ; undefined
     e18:	111f1b1f 	add	wsp, w24, #0x7c6
     e1c:	10071201 	adr	x1, f05c <_start-0x70fa4>
     e20:	12000017 	and	w23, w0, #0x1
     e24:	0b0b000f 	add	w15, w0, w11
     e28:	24130000 	cmphs	p0.b, p0/z, z0.b, z19.b
     e2c:	3e0b0b00 	.inst	0x3e0b0b00 ; undefined
     e30:	0008030b 	.inst	0x0008030b ; undefined
     e34:	01131400 	.inst	0x01131400 ; undefined
     e38:	0b0b0e03 	add	w3, w16, w11, lsl #3
     e3c:	0b3b0b3a 	add	w26, w25, w27, uxtb #2
     e40:	13010b39 	sbfx	w25, w25, #1, #2
     e44:	15150000 	b	4540e44 <_end+0x1b4f6b4>
     e48:	00130101 	.inst	0x00130101 ; undefined
     e4c:	012e1600 	.inst	0x012e1600 ; undefined
     e50:	0e03193f 	uzp1	v31.8b, v9.8b, v3.8b
     e54:	0b3b0b3a 	add	w26, w25, w27, uxtb #2
     e58:	19270b39 	.inst	0x19270b39 ; undefined
     e5c:	193c1349 	.inst	0x193c1349 ; undefined
     e60:	00001301 	udf	#4865
     e64:	3f012e17 	.inst	0x3f012e17 ; undefined
     e68:	3a0e0319 	adcs	w25, w24, w14
     e6c:	390b3b0b 	strb	w11, [x24, #718]
     e70:	3c13490b 	.inst	0x3c13490b ; undefined
     e74:	00130119 	.inst	0x00130119 ; undefined
     e78:	00341800 	.inst	0x00341800 ; NYI
     e7c:	0b3a0e03 	add	w3, w16, w26, uxtb #3
     e80:	0b390b3b 	add	w27, w25, w25, uxtb #2
     e84:	18021349 	ldr	w9, 50ec <_start-0x7af14>
     e88:	0b190000 	add	w0, w0, w25
     e8c:	12011101 	and	w1, w8, #0x8000000f
     e90:	1a000007 	adc	w7, w0, w0
     e94:	08030034 	stxrb	w3, w20, [x1]
     e98:	0b3b0b3a 	add	w26, w25, w27, uxtb #2
     e9c:	13490b39 	.inst	0x13490b39 ; undefined
     ea0:	00001802 	udf	#6146
     ea4:	000d0100 	.inst	0x000d0100 ; undefined
     ea8:	0b3a0803 	add	w3, w0, w26, uxtb #2
     eac:	0b390b3b 	add	w27, w25, w25, uxtb #2
     eb0:	0b381349 	add	w9, w26, w24, uxtb #4
     eb4:	0d020000 	.inst	0x0d020000 ; undefined
     eb8:	3a0e0300 	adcs	w0, w24, w14
     ebc:	390b3b0b 	strb	w11, [x24, #718]
     ec0:	3813490b 	sttrb	w11, [x8, #-204]
     ec4:	0300000b 	.inst	0x0300000b ; undefined
     ec8:	13490005 	.inst	0x13490005 ; undefined
     ecc:	34040000 	cbz	w0, 8ecc <_start-0x77134>
     ed0:	3a0e0300 	adcs	w0, w24, w14
     ed4:	0b3b0121 	add	w1, w9, w27, uxtb
     ed8:	13490b39 	.inst	0x13490b39 ; undefined
     edc:	00001802 	udf	#6146
     ee0:	03000505 	.inst	0x03000505 ; undefined
     ee4:	01213a08 	.inst	0x01213a08 ; undefined
     ee8:	0b390b3b 	add	w27, w25, w25, uxtb #2
     eec:	18021349 	ldr	w9, 5154 <_start-0x7aeac>
     ef0:	0f060000 	.inst	0x0f060000 ; undefined
     ef4:	08210b00 	.inst	0x08210b00 ; undefined
     ef8:	00001349 	udf	#4937
     efc:	03000507 	.inst	0x03000507 ; undefined
     f00:	01213a0e 	.inst	0x01213a0e ; undefined
     f04:	0b390b3b 	add	w27, w25, w25, uxtb #2
     f08:	18021349 	ldr	w9, 5170 <_start-0x7ae90>
     f0c:	18080000 	ldr	w0, 10f0c <_start-0x6f0f4>
     f10:	09000000 	.inst	0x09000000 ; undefined
     f14:	0b0b0024 	add	w4, w1, w11
     f18:	0e030b3e 	.inst	0x0e030b3e ; undefined
     f1c:	2e0a0000 	ext	v0.8b, v0.8b, v10.8b, #0
     f20:	03193f01 	.inst	0x03193f01 ; undefined
     f24:	01213a0e 	.inst	0x01213a0e ; undefined
     f28:	0b390b3b 	add	w27, w25, w25, uxtb #2
     f2c:	13491927 	.inst	0x13491927 ; undefined
     f30:	07120111 	.inst	0x07120111 ; undefined
     f34:	197c1840 	.inst	0x197c1840 ; undefined
     f38:	00001301 	udf	#4865
     f3c:	03000d0b 	.inst	0x03000d0b ; undefined
     f40:	3b0b3a0e 	.inst	0x3b0b3a0e ; undefined
     f44:	490b390b 	.inst	0x490b390b ; undefined
     f48:	00053813 	.inst	0x00053813 ; undefined
     f4c:	01010c00 	.inst	0x01010c00 ; undefined
     f50:	13011349 	sbfx	w9, w26, #1, #4
     f54:	280d0000 	stnp	w0, w0, [x0, #104]
     f58:	1c0e0300 	ldr	s0, 1cfb8 <_start-0x63048>
     f5c:	0e000006 	tbl	v6.8b, {v0.16b}, v0.8b
     f60:	193f012e 	.inst	0x193f012e ; undefined
     f64:	0b3a0e03 	add	w3, w16, w26, uxtb #3
     f68:	0b390b3b 	add	w27, w25, w25, uxtb #2
     f6c:	13491927 	.inst	0x13491927 ; undefined
     f70:	1301193c 	sbfx	w28, w9, #1, #6
     f74:	2e0f0000 	ext	v0.8b, v0.8b, v15.8b, #0
     f78:	03193f01 	.inst	0x03193f01 ; undefined
     f7c:	3b0b3a0e 	.inst	0x3b0b3a0e ; undefined
     f80:	0621390b 	.inst	0x0621390b ; undefined
     f84:	1301193c 	sbfx	w28, w9, #1, #6
     f88:	2e100000 	ext	v0.8b, v0.8b, v16.8b, #0
     f8c:	03193f01 	.inst	0x03193f01 ; undefined
     f90:	01213a0e 	.inst	0x01213a0e ; undefined
     f94:	21390b3b 	.inst	0x21390b3b ; undefined
     f98:	11192706 	add	w6, w24, #0x649
     f9c:	40071201 	.inst	0x40071201 ; undefined
     fa0:	01197c18 	.inst	0x01197c18 ; undefined
     fa4:	11000013 	add	w19, w0, #0x0
     fa8:	08030034 	stxrb	w3, w20, [x1]
     fac:	3b01213a 	.inst	0x3b01213a ; undefined
     fb0:	490b390b 	.inst	0x490b390b ; undefined
     fb4:	00180213 	.inst	0x00180213 ; undefined
     fb8:	00161200 	.inst	0x00161200 ; undefined
     fbc:	0b3a0e03 	add	w3, w16, w26, uxtb #3
     fc0:	0b390b3b 	add	w27, w25, w25, uxtb #2
     fc4:	00001349 	udf	#4937
     fc8:	49002113 	.inst	0x49002113 ; undefined
     fcc:	000b2f13 	.inst	0x000b2f13 ; undefined
     fd0:	012e1400 	.inst	0x012e1400 ; undefined
     fd4:	0e03193f 	uzp1	v31.8b, v9.8b, v3.8b
     fd8:	0b3b0b3a 	add	w26, w25, w27, uxtb #2
     fdc:	19270b39 	.inst	0x19270b39 ; undefined
     fe0:	1301193c 	sbfx	w28, w9, #1, #6
     fe4:	0b150000 	add	w0, w0, w21
     fe8:	12011101 	and	w1, w8, #0x8000000f
     fec:	16000007 	b	fffffffff8001008 <_end+0xfffffffff560f878>
     ff0:	0e030113 	tbl	v19.8b, {v8.16b}, v3.8b
     ff4:	0b3a050b 	add	w11, w8, w26, uxtb #1
     ff8:	21390b3b 	.inst	0x21390b3b ; undefined
     ffc:	00130110 	.inst	0x00130110 ; undefined
    1000:	01131700 	.inst	0x01131700 ; undefined
    1004:	0b0b0e03 	add	w3, w16, w11, lsl #3
    1008:	0b3b0b3a 	add	w26, w25, w27, uxtb #2
    100c:	13010b39 	sbfx	w25, w25, #1, #2
    1010:	26180000 	.inst	0x26180000 ; undefined
    1014:	00134900 	.inst	0x00134900 ; undefined
    1018:	01041900 	.inst	0x01041900 ; undefined
    101c:	213e0e03 	.inst	0x213e0e03 ; undefined
    1020:	04210b07 	.inst	0x04210b07 ; undefined
    1024:	213a1349 	.inst	0x213a1349 ; undefined
    1028:	390b3b05 	strb	w5, [x24, #718]
    102c:	13010621 	sbfx	w1, w17, #1, #1
    1030:	341a0000 	cbz	w0, 35030 <_start-0x4afd0>
    1034:	3a0e0300 	adcs	w0, w24, w14
    1038:	0b3b0121 	add	w1, w9, w27, uxtb
    103c:	13490b39 	.inst	0x13490b39 ; undefined
    1040:	193c193f 	.inst	0x193c193f ; undefined
    1044:	2e1b0000 	ext	v0.8b, v0.8b, v27.8b, #0
    1048:	03193f01 	.inst	0x03193f01 ; undefined
    104c:	3b0b3a0e 	.inst	0x3b0b3a0e ; undefined
    1050:	490b390b 	.inst	0x490b390b ; undefined
    1054:	01193c13 	.inst	0x01193c13 ; undefined
    1058:	1c000013 	ldr	s19, 1058 <_start-0x7efa8>
    105c:	0e250111 	saddl	v17.8h, v8.8b, v5.8b
    1060:	1f030b13 	fmadd	s19, s24, s3, s2
    1064:	01111f1b 	.inst	0x01111f1b ; undefined
    1068:	17100712 	b	fffffffffc402cb0 <_end+0xfffffffff9a11520>
    106c:	0f1d0000 	.inst	0x0f1d0000 ; undefined
    1070:	000b0b00 	.inst	0x000b0b00 ; undefined
    1074:	00281e00 	.inst	0x00281e00 ; NYI
    1078:	0b1c0e03 	add	w3, w16, w28, lsl #3
    107c:	241f0000 	cmphs	p0.b, p0/z, z0.b, z31.b
    1080:	3e0b0b00 	.inst	0x3e0b0b00 ; undefined
    1084:	0008030b 	.inst	0x0008030b ; undefined
    1088:	01152000 	.inst	0x01152000 ; undefined
    108c:	00001301 	udf	#4865
    1090:	49002121 	.inst	0x49002121 ; undefined
    1094:	00052f13 	.inst	0x00052f13 ; undefined
    1098:	00262200 	.inst	0x00262200 ; NYI
    109c:	2e230000 	uaddl	v0.8h, v0.8b, v3.8b
    10a0:	03193f01 	.inst	0x03193f01 ; undefined
    10a4:	3b0b3a0e 	.inst	0x3b0b3a0e ; undefined
    10a8:	270b390b 	.inst	0x270b390b ; undefined
    10ac:	11134919 	add	w25, w8, #0x4d2
    10b0:	40071201 	.inst	0x40071201 ; undefined
    10b4:	00197c18 	.inst	0x00197c18 ; undefined
    10b8:	0d010000 	.inst	0x0d010000 ; undefined
    10bc:	3a080300 	adcs	w0, w24, w8
    10c0:	0b3b0221 	add	w1, w17, w27, uxtb
    10c4:	13490b39 	.inst	0x13490b39 ; undefined
    10c8:	00000b38 	udf	#2872
    10cc:	49000502 	.inst	0x49000502 ; undefined
    10d0:	03000013 	.inst	0x03000013 ; undefined
    10d4:	0e03000d 	tbl	v13.8b, {v0.16b}, v3.8b
    10d8:	3b02213a 	.inst	0x3b02213a ; undefined
    10dc:	490b390b 	.inst	0x490b390b ; undefined
    10e0:	000b3813 	.inst	0x000b3813 ; undefined
    10e4:	00240400 	.inst	0x00240400 ; NYI
    10e8:	0b3e0b0b 	add	w11, w24, w30, uxtb #2
    10ec:	00000e03 	udf	#3587
    10f0:	00001805 	udf	#6149
    10f4:	00340600 	.inst	0x00340600 ; NYI
    10f8:	213a0803 	.inst	0x213a0803 ; undefined
    10fc:	390b3b01 	strb	w1, [x24, #718]
    1100:	0213490b 	.inst	0x0213490b ; undefined
    1104:	07000018 	.inst	0x07000018 ; undefined
    1108:	210b000f 	.inst	0x210b000f ; undefined
    110c:	00134908 	.inst	0x00134908 ; undefined
    1110:	000d0800 	.inst	0x000d0800 ; undefined
    1114:	213a0e03 	.inst	0x213a0e03 ; undefined
    1118:	390b3b02 	strb	w2, [x24, #718]
    111c:	3813490b 	sttrb	w11, [x8, #-204]
    1120:	09000005 	.inst	0x09000005 ; undefined
    1124:	0111010b 	.inst	0x0111010b ; undefined
    1128:	00000712 	udf	#1810
    112c:	4901010a 	.inst	0x4901010a ; undefined
    1130:	00130113 	.inst	0x00130113 ; undefined
    1134:	00340b00 	.inst	0x00340b00 ; NYI
    1138:	213a0e03 	.inst	0x213a0e03 ; undefined
    113c:	390b3b01 	strb	w1, [x24, #718]
    1140:	3f13490b 	.inst	0x3f13490b ; undefined
    1144:	00180219 	.inst	0x00180219 ; undefined
    1148:	012e0c00 	.inst	0x012e0c00 ; undefined
    114c:	0e03193f 	uzp1	v31.8b, v9.8b, v3.8b
    1150:	0b3b0b3a 	add	w26, w25, w27, uxtb #2
    1154:	19270b39 	.inst	0x19270b39 ; undefined
    1158:	193c1349 	.inst	0x193c1349 ; undefined
    115c:	00001301 	udf	#4865
    1160:	3f012e0d 	.inst	0x3f012e0d ; undefined
    1164:	3a0e0319 	adcs	w25, w24, w14
    1168:	390b3b0b 	strb	w11, [x24, #718]
    116c:	3c19270b 	str	b11, [x24], #-110
    1170:	00130119 	.inst	0x00130119 ; undefined
    1174:	012e0e00 	.inst	0x012e0e00 ; undefined
    1178:	0e03193f 	uzp1	v31.8b, v9.8b, v3.8b
    117c:	0b3b0b3a 	add	w26, w25, w27, uxtb #2
    1180:	3c062139 	stur	b25, [x9, #98]
    1184:	00130119 	.inst	0x00130119 ; undefined
    1188:	002e0f00 	.inst	0x002e0f00 ; NYI
    118c:	0e03193f 	uzp1	v31.8b, v9.8b, v3.8b
    1190:	3b01213a 	.inst	0x3b01213a ; undefined
    1194:	0621390b 	.inst	0x0621390b ; undefined
    1198:	07120111 	.inst	0x07120111 ; undefined
    119c:	197c1840 	.inst	0x197c1840 ; undefined
    11a0:	05100000 	mov	z0.b, p0/z, #0
    11a4:	3a0e0300 	adcs	w0, w24, w14
    11a8:	0b3b0121 	add	w1, w9, w27, uxtb
    11ac:	13490b39 	.inst	0x13490b39 ; undefined
    11b0:	00001802 	udf	#6146
    11b4:	03003411 	.inst	0x03003411 ; undefined
    11b8:	01213a0e 	.inst	0x01213a0e ; undefined
    11bc:	21390b3b 	.inst	0x21390b3b ; undefined
    11c0:	0213490d 	.inst	0x0213490d ; undefined
    11c4:	12000018 	and	w24, w0, #0x1
    11c8:	0e030016 	tbl	v22.8b, {v0.16b}, v3.8b
    11cc:	3b02213a 	.inst	0x3b02213a ; undefined
    11d0:	0321390b 	.inst	0x0321390b ; undefined
    11d4:	00001349 	udf	#4937
    11d8:	49002113 	.inst	0x49002113 ; undefined
    11dc:	000b2f13 	.inst	0x000b2f13 ; undefined
    11e0:	012e1400 	.inst	0x012e1400 ; undefined
    11e4:	0e03193f 	uzp1	v31.8b, v9.8b, v3.8b
    11e8:	0b3b0b3a 	add	w26, w25, w27, uxtb #2
    11ec:	13490b39 	.inst	0x13490b39 ; undefined
    11f0:	1301193c 	sbfx	w28, w9, #1, #6
    11f4:	2e150000 	ext	v0.8b, v0.8b, v21.8b, #0
    11f8:	03193f01 	.inst	0x03193f01 ; undefined
    11fc:	01213a0e 	.inst	0x01213a0e ; undefined
    1200:	21390b3b 	.inst	0x21390b3b ; undefined
    1204:	12011106 	and	w6, w8, #0x8000000f
    1208:	7c184007 	stur	h7, [x0, #-124]
    120c:	00130119 	.inst	0x00130119 ; undefined
    1210:	01111600 	.inst	0x01111600 ; undefined
    1214:	0b130e25 	add	w5, w17, w19, lsl #3
    1218:	1f1b1f03 	fmadd	s3, s24, s27, s7
    121c:	07120111 	.inst	0x07120111 ; undefined
    1220:	00001710 	udf	#5904
    1224:	03011317 	.inst	0x03011317 ; undefined
    1228:	3a0b0b0e 	.inst	0x3a0b0b0e ; undefined
    122c:	390b3b0b 	strb	w11, [x24, #718]
    1230:	0013010b 	.inst	0x0013010b ; undefined
    1234:	01131800 	.inst	0x01131800 ; undefined
    1238:	050b0e03 	.inst	0x050b0e03 ; undefined
    123c:	0b3b0b3a 	add	w26, w25, w27, uxtb #2
    1240:	13010b39 	sbfx	w25, w25, #1, #2
    1244:	24190000 	cmphs	p0.b, p0/z, z0.b, z25.b
    1248:	3e0b0b00 	.inst	0x3e0b0b00 ; undefined
    124c:	0008030b 	.inst	0x0008030b ; undefined
    1250:	01151a00 	.inst	0x01151a00 ; undefined
    1254:	00001301 	udf	#4865
    1258:	0b000f1b 	add	w27, w24, w0, lsl #3
    125c:	1c00000b 	ldr	s11, 125c <_start-0x7eda4>
    1260:	13490021 	.inst	0x13490021 ; undefined
    1264:	0000052f 	udf	#1327
    1268:	0000261d 	udf	#9757
    126c:	012e1e00 	.inst	0x012e1e00 ; undefined
    1270:	0803193f 	stxrb	w3, wzr, [x9]
    1274:	0b3b0b3a 	add	w26, w25, w27, uxtb #2
    1278:	01110b39 	.inst	0x01110b39 ; undefined
    127c:	18400712 	ldr	w18, 8135c <allocator_init+0x9c>
    1280:	1301197c 	sbfx	w28, w11, #1, #6
    1284:	2e1f0000 	ext	v0.8b, v0.8b, v31.8b, #0
    1288:	03193f01 	.inst	0x03193f01 ; undefined
    128c:	3b0b3a0e 	.inst	0x3b0b3a0e ; undefined
    1290:	270b390b 	.inst	0x270b390b ; undefined
    1294:	12011119 	and	w25, w8, #0x8000000f
    1298:	7c184007 	stur	h7, [x0, #-124]
    129c:	00130119 	.inst	0x00130119 ; undefined
    12a0:	012e2000 	.inst	0x012e2000 ; undefined
    12a4:	0e03193f 	uzp1	v31.8b, v9.8b, v3.8b
    12a8:	0b3b0b3a 	add	w26, w25, w27, uxtb #2
    12ac:	19270b39 	.inst	0x19270b39 ; undefined
    12b0:	07120111 	.inst	0x07120111 ; undefined
    12b4:	197a1840 	.inst	0x197a1840 ; undefined
    12b8:	00001301 	udf	#4865
    12bc:	03000521 	.inst	0x03000521 ; undefined
    12c0:	3b0b3a08 	.inst	0x3b0b3a08 ; undefined
    12c4:	490b390b 	.inst	0x490b390b ; undefined
    12c8:	00180213 	.inst	0x00180213 ; undefined
    12cc:	012e2200 	.inst	0x012e2200 ; undefined
    12d0:	0e03193f 	uzp1	v31.8b, v9.8b, v3.8b
    12d4:	0b3b0b3a 	add	w26, w25, w27, uxtb #2
    12d8:	19270b39 	.inst	0x19270b39 ; undefined
    12dc:	01111349 	.inst	0x01111349 ; undefined
    12e0:	18400712 	ldr	w18, 813c0 <allocator_init+0x100>
    12e4:	1301197c 	sbfx	w28, w11, #1, #6
    12e8:	0b230000 	add	w0, w0, w3, uxtb
    12ec:	00175501 	.inst	0x00175501 ; undefined
    12f0:	012e2400 	.inst	0x012e2400 ; undefined
    12f4:	0e03193f 	uzp1	v31.8b, v9.8b, v3.8b
    12f8:	0b3b0b3a 	add	w26, w25, w27, uxtb #2
    12fc:	01110b39 	.inst	0x01110b39 ; undefined
    1300:	18400712 	ldr	w18, 813e0 <allocator_init+0x120>
    1304:	0000197c 	udf	#6524
    1308:	00050100 	.inst	0x00050100 ; undefined
    130c:	00001349 	udf	#4937
    1310:	0b002402 	add	w2, w0, w0, lsl #9
    1314:	030b3e0b 	.inst	0x030b3e0b ; undefined
    1318:	0300000e 	.inst	0x0300000e ; undefined
    131c:	0e030005 	tbl	v5.8b, {v0.16b}, v3.8b
    1320:	3b01213a 	.inst	0x3b01213a ; undefined
    1324:	490b390b 	.inst	0x490b390b ; undefined
    1328:	00180213 	.inst	0x00180213 ; undefined
    132c:	000d0400 	.inst	0x000d0400 ; undefined
    1330:	213a0e03 	.inst	0x213a0e03 ; undefined
    1334:	390b3b02 	strb	w2, [x24, #718]
    1338:	3813490b 	sttrb	w11, [x8, #-204]
    133c:	0500000b 	orr	z11.s, z11.s, #0x1
    1340:	210b000f 	.inst	0x210b000f ; undefined
    1344:	00134908 	.inst	0x00134908 ; undefined
    1348:	012e0600 	.inst	0x012e0600 ; undefined
    134c:	0e03193f 	uzp1	v31.8b, v9.8b, v3.8b
    1350:	0b3b0b3a 	add	w26, w25, w27, uxtb #2
    1354:	19270b39 	.inst	0x19270b39 ; undefined
    1358:	193c1349 	.inst	0x193c1349 ; undefined
    135c:	00001301 	udf	#4865
    1360:	03003407 	.inst	0x03003407 ; undefined
    1364:	01213a0e 	.inst	0x01213a0e ; undefined
    1368:	0b390b3b 	add	w27, w25, w25, uxtb #2
    136c:	18021349 	ldr	w9, 55d4 <_start-0x7aa2c>
    1370:	2e080000 	ext	v0.8b, v0.8b, v8.8b, #0
    1374:	03193f01 	.inst	0x03193f01 ; undefined
    1378:	01213a0e 	.inst	0x01213a0e ; undefined
    137c:	21390b3b 	.inst	0x21390b3b ; undefined
    1380:	11192706 	add	w6, w24, #0x649
    1384:	40071201 	.inst	0x40071201 ; undefined
    1388:	01197a18 	.inst	0x01197a18 ; undefined
    138c:	09000013 	.inst	0x09000013 ; undefined
    1390:	08030005 	stxrb	w3, w5, [x0]
    1394:	3b01213a 	.inst	0x3b01213a ; undefined
    1398:	490b390b 	.inst	0x490b390b ; undefined
    139c:	00180213 	.inst	0x00180213 ; undefined
    13a0:	012e0a00 	.inst	0x012e0a00 ; undefined
    13a4:	0e03193f 	uzp1	v31.8b, v9.8b, v3.8b
    13a8:	3b01213a 	.inst	0x3b01213a ; undefined
    13ac:	0621390b 	.inst	0x0621390b ; undefined
    13b0:	01111927 	.inst	0x01111927 ; undefined
    13b4:	18400712 	ldr	w18, 81494 <allocator_init+0x1d4>
    13b8:	1301197c 	sbfx	w28, w11, #1, #6
    13bc:	340b0000 	cbz	w0, 173bc <_start-0x68c44>
    13c0:	3a080300 	adcs	w0, w24, w8
    13c4:	0b3b0121 	add	w1, w9, w27, uxtb
    13c8:	13490b39 	.inst	0x13490b39 ; undefined
    13cc:	00001802 	udf	#6146
    13d0:	3f002e0c 	.inst	0x3f002e0c ; undefined
    13d4:	3a0e0319 	adcs	w25, w24, w14
    13d8:	0b3b0121 	add	w1, w9, w27, uxtb
    13dc:	11062139 	add	w25, w9, #0x188
    13e0:	40071201 	.inst	0x40071201 ; undefined
    13e4:	00197a18 	.inst	0x00197a18 ; undefined
    13e8:	01110d00 	.inst	0x01110d00 ; undefined
    13ec:	0b130e25 	add	w5, w17, w19, lsl #3
    13f0:	1f1b1f03 	fmadd	s3, s24, s27, s7
    13f4:	07120111 	.inst	0x07120111 ; undefined
    13f8:	00001710 	udf	#5904
    13fc:	0301130e 	.inst	0x0301130e ; undefined
    1400:	3a0b0b0e 	.inst	0x3a0b0b0e ; undefined
    1404:	390b3b0b 	strb	w11, [x24, #718]
    1408:	0013010b 	.inst	0x0013010b ; undefined
    140c:	000d0f00 	.inst	0x000d0f00 ; undefined
    1410:	0b3a0803 	add	w3, w0, w26, uxtb #2
    1414:	0b390b3b 	add	w27, w25, w25, uxtb #2
    1418:	0b381349 	add	w9, w26, w24, uxtb #4
    141c:	0f100000 	.inst	0x0f100000 ; undefined
    1420:	000b0b00 	.inst	0x000b0b00 ; undefined
    1424:	00261100 	.inst	0x00261100 ; NYI
    1428:	00001349 	udf	#4937
    142c:	03001612 	.inst	0x03001612 ; undefined
    1430:	3b0b3a0e 	.inst	0x3b0b3a0e ; undefined
    1434:	490b390b 	.inst	0x490b390b ; undefined
    1438:	13000013 	sbfx	w19, w0, #0, #1
    143c:	0b0b0024 	add	w4, w1, w11
    1440:	08030b3e 	stxrb	w3, w30, [x25]
    1444:	34140000 	cbz	w0, 29444 <_start-0x56bbc>
    1448:	3a0e0300 	adcs	w0, w24, w14
    144c:	390b3b0b 	strb	w11, [x24, #718]
    1450:	3f13490b 	.inst	0x3f13490b ; undefined
    1454:	00180219 	.inst	0x00180219 ; undefined
    1458:	00181500 	.inst	0x00181500 ; undefined
    145c:	2e160000 	ext	v0.8b, v0.8b, v22.8b, #0
    1460:	03193f01 	.inst	0x03193f01 ; undefined
    1464:	3b0b3a0e 	.inst	0x3b0b3a0e ; undefined
    1468:	270b390b 	.inst	0x270b390b ; undefined
    146c:	01193c19 	.inst	0x01193c19 ; undefined
    1470:	17000013 	b	fffffffffc0014bc <_end+0xfffffffff960fd2c>
    1474:	193f012e 	.inst	0x193f012e ; undefined
    1478:	0b3a0e03 	add	w3, w16, w26, uxtb #3
    147c:	0b390b3b 	add	w27, w25, w25, uxtb #2
    1480:	01111349 	.inst	0x01111349 ; undefined
    1484:	18400712 	ldr	w18, 81564 <allocator_init+0x2a4>
    1488:	1301197a 	sbfx	w26, w11, #1, #6
    148c:	2e180000 	ext	v0.8b, v0.8b, v24.8b, #0
    1490:	03193f01 	.inst	0x03193f01 ; undefined
    1494:	3b0b3a0e 	.inst	0x3b0b3a0e ; undefined
    1498:	110b390b 	add	w11, w8, #0x2ce
    149c:	40071201 	.inst	0x40071201 ; undefined
    14a0:	01197c18 	.inst	0x01197c18 ; undefined
    14a4:	19000013 	stlurb	w19, [x0]
    14a8:	193f012e 	.inst	0x193f012e ; undefined
    14ac:	0b3a0e03 	add	w3, w16, w26, uxtb #3
    14b0:	0b390b3b 	add	w27, w25, w25, uxtb #2
    14b4:	07120111 	.inst	0x07120111 ; undefined
    14b8:	197a1840 	.inst	0x197a1840 ; undefined
    14bc:	00001301 	udf	#4865
    14c0:	3f002e1a 	.inst	0x3f002e1a ; undefined
    14c4:	3a0e0319 	adcs	w25, w24, w14
    14c8:	390b3b0b 	strb	w11, [x24, #718]
    14cc:	1201110b 	and	w11, w8, #0x8000000f
    14d0:	7c184007 	stur	h7, [x0, #-124]
    14d4:	00000019 	udf	#25
    14d8:	03003401 	.inst	0x03003401 ; undefined
    14dc:	01213a08 	.inst	0x01213a08 ; undefined
    14e0:	0b390b3b 	add	w27, w25, w25, uxtb #2
    14e4:	18021349 	ldr	w9, 574c <_start-0x7a8b4>
    14e8:	34020000 	cbz	w0, 54e8 <_start-0x7ab18>
    14ec:	3a0e0300 	adcs	w0, w24, w14
    14f0:	0b3b0121 	add	w1, w9, w27, uxtb
    14f4:	13490b39 	.inst	0x13490b39 ; undefined
    14f8:	1802193f 	ldr	wzr, 581c <_start-0x7a7e4>
    14fc:	0d030000 	.inst	0x0d030000 ; undefined
    1500:	490e0300 	.inst	0x490e0300 ; undefined
    1504:	340b3813 	cbz	w19, 17c04 <_start-0x683fc>
    1508:	04000019 	add	z25.b, p0/m, z25.b, z0.b
    150c:	193f002e 	.inst	0x193f002e ; undefined
    1510:	213a0e03 	.inst	0x213a0e03 ; undefined
    1514:	390b3b01 	strb	w1, [x24, #718]
    1518:	01110621 	.inst	0x01110621 ; undefined
    151c:	18400712 	ldr	w18, 815fc <page_malloc+0x34>
    1520:	0000197a 	udf	#6522
    1524:	03000505 	.inst	0x03000505 ; undefined
    1528:	01213a08 	.inst	0x01213a08 ; undefined
    152c:	0b390b3b 	add	w27, w25, w25, uxtb #2
    1530:	18021349 	ldr	w9, 5798 <_start-0x7a868>
    1534:	24060000 	cmphs	p0.b, p0/z, z0.b, z6.b
    1538:	3e0b0b00 	.inst	0x3e0b0b00 ; undefined
    153c:	000e030b 	.inst	0x000e030b ; undefined
    1540:	00050700 	.inst	0x00050700 ; undefined
    1544:	00001349 	udf	#4937
    1548:	3f012e08 	.inst	0x3f012e08 ; undefined
    154c:	3a0e0319 	adcs	w25, w24, w14
    1550:	0b3b0121 	add	w1, w9, w27, uxtb
    1554:	49062139 	.inst	0x49062139 ; undefined
    1558:	12011113 	and	w19, w8, #0x8000000f
    155c:	7c184007 	stur	h7, [x0, #-124]
    1560:	00130119 	.inst	0x00130119 ; undefined
    1564:	012e0900 	.inst	0x012e0900 ; undefined
    1568:	0e03193f 	uzp1	v31.8b, v9.8b, v3.8b
    156c:	3b01213a 	.inst	0x3b01213a ; undefined
    1570:	0621390b 	.inst	0x0621390b ; undefined
    1574:	01111927 	.inst	0x01111927 ; undefined
    1578:	18400712 	ldr	w18, 81658 <page_malloc+0x90>
    157c:	1301197c 	sbfx	w28, w11, #1, #6
    1580:	2e0a0000 	ext	v0.8b, v0.8b, v10.8b, #0
    1584:	03193f00 	.inst	0x03193f00 ; undefined
    1588:	01213a0e 	.inst	0x01213a0e ; undefined
    158c:	21390b3b 	.inst	0x21390b3b ; undefined
    1590:	12011106 	and	w6, w8, #0x8000000f
    1594:	7c184007 	stur	h7, [x0, #-124]
    1598:	0b000019 	add	w25, w0, w0
    159c:	0e030034 	tbl	v20.8b, {v1.16b}, v3.8b
    15a0:	3b01213a 	.inst	0x3b01213a ; undefined
    15a4:	490b390b 	.inst	0x490b390b ; undefined
    15a8:	00180213 	.inst	0x00180213 ; undefined
    15ac:	01110c00 	.inst	0x01110c00 ; undefined
    15b0:	0b130e25 	add	w5, w17, w19, lsl #3
    15b4:	1f1b1f03 	fmadd	s3, s24, s27, s7
    15b8:	07120111 	.inst	0x07120111 ; undefined
    15bc:	00001710 	udf	#5904
    15c0:	4901010d 	.inst	0x4901010d ; undefined
    15c4:	00130113 	.inst	0x00130113 ; undefined
    15c8:	00210e00 	.inst	0x00210e00 ; NYI
    15cc:	0b2f1349 	add	w9, w26, w15, uxtb #4
    15d0:	240f0000 	cmphs	p0.b, p0/z, z0.b, z15.b
    15d4:	3e0b0b00 	.inst	0x3e0b0b00 ; undefined
    15d8:	0008030b 	.inst	0x0008030b ; undefined
    15dc:	012e1000 	.inst	0x012e1000 ; undefined
    15e0:	0e03193f 	uzp1	v31.8b, v9.8b, v3.8b
    15e4:	0b3b0b3a 	add	w26, w25, w27, uxtb #2
    15e8:	19270b39 	.inst	0x19270b39 ; undefined
    15ec:	193c1349 	.inst	0x193c1349 ; undefined
    15f0:	00001301 	udf	#4865
    15f4:	0b000f11 	add	w17, w24, w0, lsl #3
    15f8:	0013490b 	.inst	0x0013490b ; undefined
    15fc:	01131200 	.inst	0x01131200 ; undefined
    1600:	0b0b0e03 	add	w3, w16, w11, lsl #3
    1604:	0b3b0b3a 	add	w26, w25, w27, uxtb #2
    1608:	00001301 	udf	#4865
    160c:	0b000f13 	add	w19, w24, w0, lsl #3
    1610:	1400000b 	b	163c <_start-0x7e9c4>
    1614:	193f012e 	.inst	0x193f012e ; undefined
    1618:	0b3a0e03 	add	w3, w16, w26, uxtb #3
    161c:	0b390b3b 	add	w27, w25, w25, uxtb #2
    1620:	13491927 	.inst	0x13491927 ; undefined
    1624:	07120111 	.inst	0x07120111 ; undefined
    1628:	197c1840 	.inst	0x197c1840 ; undefined
    162c:	00001301 	udf	#4865
    1630:	00001815 	udf	#6165
    1634:	012e1600 	.inst	0x012e1600 ; undefined
    1638:	0e03193f 	uzp1	v31.8b, v9.8b, v3.8b
    163c:	0b3b0b3a 	add	w26, w25, w27, uxtb #2
    1640:	19270b39 	.inst	0x19270b39 ; undefined
    1644:	07120111 	.inst	0x07120111 ; undefined
    1648:	197a1840 	.inst	0x197a1840 ; undefined
    164c:	00001301 	udf	#4865
    1650:	3f012e17 	.inst	0x3f012e17 ; undefined
    1654:	3a0e0319 	adcs	w25, w24, w14
    1658:	390b3b0b 	strb	w11, [x24, #718]
    165c:	1113490b 	add	w11, w8, #0x4d2
    1660:	40071201 	.inst	0x40071201 ; undefined
    1664:	01197a18 	.inst	0x01197a18 ; undefined
    1668:	18000013 	ldr	w19, 1668 <_start-0x7e998>
    166c:	193f012e 	.inst	0x193f012e ; undefined
    1670:	0b3a0e03 	add	w3, w16, w26, uxtb #3
    1674:	0b390b3b 	add	w27, w25, w25, uxtb #2
    1678:	07120111 	.inst	0x07120111 ; undefined
    167c:	197a1840 	.inst	0x197a1840 ; undefined
    1680:	01000000 	.inst	0x01000000 ; undefined
    1684:	08030034 	stxrb	w3, w20, [x1]
    1688:	3b01213a 	.inst	0x3b01213a ; undefined
    168c:	490b390b 	.inst	0x490b390b ; undefined
    1690:	00180213 	.inst	0x00180213 ; undefined
    1694:	00050200 	.inst	0x00050200 ; undefined
    1698:	213a0803 	.inst	0x213a0803 ; undefined
    169c:	390b3b01 	strb	w1, [x24, #718]
    16a0:	0213490b 	.inst	0x0213490b ; undefined
    16a4:	03000018 	.inst	0x03000018 ; undefined
    16a8:	0b0b0024 	add	w4, w1, w11
    16ac:	0e030b3e 	.inst	0x0e030b3e ; undefined
    16b0:	2e040000 	ext	v0.8b, v0.8b, v4.8b, #0
    16b4:	03193f01 	.inst	0x03193f01 ; undefined
    16b8:	01213a0e 	.inst	0x01213a0e ; undefined
    16bc:	0b390b3b 	add	w27, w25, w25, uxtb #2
    16c0:	13491927 	.inst	0x13491927 ; undefined
    16c4:	07120111 	.inst	0x07120111 ; undefined
    16c8:	197a1840 	.inst	0x197a1840 ; undefined
    16cc:	00001301 	udf	#4865
    16d0:	03003405 	.inst	0x03003405 ; undefined
    16d4:	01213a0e 	.inst	0x01213a0e ; undefined
    16d8:	0b390b3b 	add	w27, w25, w25, uxtb #2
    16dc:	18021349 	ldr	w9, 5944 <_start-0x7a6bc>
    16e0:	0d060000 	.inst	0x0d060000 ; undefined
    16e4:	490e0300 	.inst	0x490e0300 ; undefined
    16e8:	340b3813 	cbz	w19, 17de8 <_start-0x68218>
    16ec:	07000019 	.inst	0x07000019 ; undefined
    16f0:	210b000f 	.inst	0x210b000f ; undefined
    16f4:	00134908 	.inst	0x00134908 ; undefined
    16f8:	00050800 	.inst	0x00050800 ; undefined
    16fc:	213a0e03 	.inst	0x213a0e03 ; undefined
    1700:	390b3b01 	strb	w1, [x24, #718]
    1704:	0213490b 	.inst	0x0213490b ; undefined
    1708:	09000018 	.inst	0x09000018 ; undefined
    170c:	0111010b 	.inst	0x0111010b ; undefined
    1710:	00000712 	udf	#1810
    1714:	4900260a 	.inst	0x4900260a ; undefined
    1718:	0b000013 	add	w19, w0, w0
    171c:	193f012e 	.inst	0x193f012e ; undefined
    1720:	213a0e03 	.inst	0x213a0e03 ; undefined
    1724:	390b3b01 	strb	w1, [x24, #718]
    1728:	4919270b 	.inst	0x4919270b ; undefined
    172c:	12011113 	and	w19, w8, #0x8000000f
    1730:	7c184007 	stur	h7, [x0, #-124]
    1734:	00130119 	.inst	0x00130119 ; undefined
    1738:	01110c00 	.inst	0x01110c00 ; undefined
    173c:	0b130e25 	add	w5, w17, w19, lsl #3
    1740:	1f1b1f03 	fmadd	s3, s24, s27, s7
    1744:	07120111 	.inst	0x07120111 ; undefined
    1748:	00001710 	udf	#5904
    174c:	0300160d 	.inst	0x0300160d ; undefined
    1750:	3b0b3a0e 	.inst	0x3b0b3a0e ; undefined
    1754:	490b390b 	.inst	0x490b390b ; undefined
    1758:	0e000013 	tbl	v19.8b, {v0.16b}, v0.8b
    175c:	0b0b0024 	add	w4, w1, w11
    1760:	08030b3e 	stxrb	w3, w30, [x25]
    1764:	0f0f0000 	.inst	0x0f0f0000 ; undefined
    1768:	000b0b00 	.inst	0x000b0b00 ; undefined
    176c:	00261000 	.inst	0x00261000 ; NYI
    1770:	18110000 	ldr	w0, 23770 <_start-0x5c890>
    1774:	12000000 	and	w0, w0, #0x1
    1778:	0e030113 	tbl	v19.8b, {v8.16b}, v3.8b
    177c:	0b3a0b0b 	add	w11, w24, w26, uxtb #2
    1780:	13010b3b 	sbfx	w27, w25, #1, #2
    1784:	0a130000 	and	w0, w0, w19
    1788:	3a080300 	adcs	w0, w24, w8
    178c:	390b3b0b 	strb	w11, [x24, #718]
    1790:	0001110b 	.inst	0x0001110b ; undefined
    1794:	000a1400 	.inst	0x000a1400 ; undefined
    1798:	0b3a0e03 	add	w3, w16, w26, uxtb #3
    179c:	0b390b3b 	add	w27, w25, w25, uxtb #2
    17a0:	00000111 	udf	#273
    17a4:	49010115 	.inst	0x49010115 ; undefined
    17a8:	16000013 	b	fffffffff80017f4 <_end+0xfffffffff5610064>
    17ac:	13490021 	.inst	0x13490021 ; undefined
    17b0:	00000b2f 	udf	#2863
	...

Disassembly of section .debug_aranges:

0000000000000000 <.debug_aranges>:
   0:	0000002c 	udf	#44
   4:	00000002 	udf	#2
   8:	00080000 	.inst	0x00080000 ; undefined
   c:	00000000 	udf	#0
  10:	00080068 	.inst	0x00080068 ; undefined
  14:	00000000 	udf	#0
  18:	000002cc 	udf	#716
	...
  30:	0000002c 	udf	#44
  34:	02440002 	.inst	0x02440002 ; undefined
  38:	00080000 	.inst	0x00080000 ; undefined
  3c:	00000000 	udf	#0
  40:	00080334 	.inst	0x00080334 ; undefined
  44:	00000000 	udf	#0
  48:	000006c4 	udf	#1732
	...
  60:	0000002c 	udf	#44
  64:	06ec0002 	.inst	0x06ec0002 ; undefined
  68:	00080000 	.inst	0x00080000 ; undefined
  6c:	00000000 	udf	#0
  70:	000809f8 	.inst	0x000809f8 ; undefined
  74:	00000000 	udf	#0
  78:	0000069c 	udf	#1692
	...
  90:	0000002c 	udf	#44
  94:	0fa40002 	fmlal	v2.2s, v0.2h, v4.h[2]
  98:	00080000 	.inst	0x00080000 ; undefined
  9c:	00000000 	udf	#0
  a0:	00081094 	.inst	0x00081094 ; undefined
  a4:	00000000 	udf	#0
  a8:	000000a0 	udf	#160
	...
  c0:	0000002c 	udf	#44
  c4:	11760002 	add	w2, w0, #0xd80, lsl #12
  c8:	00080000 	.inst	0x00080000 ; undefined
  cc:	00000000 	udf	#0
  d0:	00081134 	.inst	0x00081134 ; undefined
  d4:	00000000 	udf	#0
  d8:	000000bc 	udf	#188
	...
  f0:	0000002c 	udf	#44
  f4:	12f60002 	.inst	0x12f60002 ; undefined
  f8:	00080000 	.inst	0x00080000 ; undefined
  fc:	00000000 	udf	#0
 100:	000811f0 	.inst	0x000811f0 ; undefined
 104:	00000000 	udf	#0
 108:	00000f1c 	udf	#3868
	...
 120:	0000002c 	udf	#44
 124:	1a840002 	csel	w2, w0, w4, eq  // eq = none
 128:	00080000 	.inst	0x00080000 ; undefined
 12c:	00000000 	udf	#0
 130:	0008210c 	.inst	0x0008210c ; undefined
 134:	00000000 	udf	#0
 138:	000010c4 	udf	#4292
	...
 150:	0000002c 	udf	#44
 154:	2ab90002 	orn	w2, w0, w25, asr #0
 158:	00080000 	.inst	0x00080000 ; undefined
 15c:	00000000 	udf	#0
 160:	000831d0 	.inst	0x000831d0 ; undefined
 164:	00000000 	udf	#0
 168:	000001cc 	udf	#460
	...
 180:	0000002c 	udf	#44
 184:	2ffc0002 	.inst	0x2ffc0002 ; undefined
 188:	00080000 	.inst	0x00080000 ; undefined
 18c:	00000000 	udf	#0
 190:	0008339c 	.inst	0x0008339c ; undefined
 194:	00000000 	udf	#0
 198:	00000828 	udf	#2088
	...
 1b0:	0000002c 	udf	#44
 1b4:	3b520002 	.inst	0x3b520002 ; undefined
 1b8:	00080000 	.inst	0x00080000 ; undefined
 1bc:	00000000 	udf	#0
 1c0:	00083bc4 	.inst	0x00083bc4 ; undefined
 1c4:	00000000 	udf	#0
 1c8:	00000640 	udf	#1600
	...
 1e0:	0000002c 	udf	#44
 1e4:	40be0002 	.inst	0x40be0002 ; undefined
 1e8:	00080000 	.inst	0x00080000 ; undefined
 1ec:	00000000 	udf	#0
 1f0:	00084208 	.inst	0x00084208 ; undefined
 1f4:	00000000 	udf	#0
 1f8:	000003e0 	udf	#992
	...
 210:	0000002c 	udf	#44
 214:	440d0002 	.inst	0x440d0002 ; undefined
 218:	00080000 	.inst	0x00080000 ; undefined
 21c:	00000000 	udf	#0
 220:	000845f0 	.inst	0x000845f0 ; undefined
 224:	00000000 	udf	#0
 228:	000006b8 	udf	#1720
	...
 240:	0000002c 	udf	#44
 244:	47a50002 	.inst	0x47a50002 ; undefined
 248:	00080000 	.inst	0x00080000 ; undefined
 24c:	00000000 	udf	#0
 250:	00084ca8 	.inst	0x00084ca8 ; undefined
 254:	00000000 	udf	#0
 258:	00000af0 	udf	#2800
	...

Disassembly of section .debug_line:

0000000000000000 <.debug_line>:
       0:	0000016d 	udf	#365
       4:	00080005 	.inst	0x00080005 ; undefined
       8:	0000003c 	udf	#60
       c:	fb010104 	.inst	0xfb010104 ; undefined
      10:	01000d0e 	.inst	0x01000d0e ; undefined
      14:	00010101 	.inst	0x00010101 ; undefined
      18:	00010000 	.inst	0x00010000 ; undefined
      1c:	01010100 	.inst	0x01010100 ; undefined
      20:	0000031f 	udf	#799
      24:	00320000 	.inst	0x00320000 ; NYI
      28:	00a10000 	.inst	0x00a10000 ; undefined
      2c:	01020000 	.inst	0x01020000 ; undefined
      30:	040f021f 	.inst	0x040f021f ; undefined
      34:	0000002b 	udf	#43
      38:	00002b01 	udf	#11009
      3c:	00360100 	.inst	0x00360100 ; NYI
      40:	3d020000 	str	b0, [x0, #128]
      44:	02000000 	.inst	0x02000000 ; undefined
      48:	09004205 	.inst	0x09004205 ; undefined
      4c:	08006802 	stxrb	w0, w2, [x0]
      50:	00000000 	udf	#0
      54:	12051600 	and	w0, w16, #0xf8000001
      58:	2217053d 	.inst	0x2217053d ; undefined
      5c:	05200505 	ext	z5.b, z5.b, z8.b, #1
      60:	0e05210b 	tbl	v11.8b, {v8.16b, v9.16b}, v5.8b
      64:	4a0c053d 	eor	w29, w9, w12, lsl #1
      68:	02001d05 	.inst	0x02001d05 ; undefined
      6c:	052e0104 	ext	z4.b, z4.b, z8.b, #112
      70:	04020019 	.inst	0x04020019 ; undefined
      74:	13054a01 	sbfx	w1, w16, #5, #14
      78:	4a0f052f 	eor	w15, w9, w15, lsl #1
      7c:	05671505 	ext	z5.b, {z8.b, z9.b}, #61
      80:	24054a13 	cmpgt	p3.b, p2/z, z16.b, z5.d
      84:	01040200 	.inst	0x01040200 ; undefined
      88:	0020052e 	.inst	0x0020052e ; NYI
      8c:	4a010402 	eor	w2, w0, w1, lsl #1
      90:	052f1305 	ext	z5.b, z5.b, z24.b, #124
      94:	15054a0f 	b	41528d0 <_end+0x1761140>
      98:	4a130567 	eor	w7, w11, w19, lsl #1
      9c:	02002405 	.inst	0x02002405 ; undefined
      a0:	052e0104 	ext	z4.b, z4.b, z8.b, #112
      a4:	04020020 	.inst	0x04020020 ; undefined
      a8:	13054a01 	sbfx	w1, w16, #5, #14
      ac:	4a0f052f 	eor	w15, w9, w15, lsl #1
      b0:	05681405 	ext	z5.b, {z0.b, z1.b}, #69
      b4:	0402002c 	.inst	0x0402002c ; undefined
      b8:	2e770302 	uaddl	v2.4s, v24.4h, v23.4h
      bc:	02002005 	.inst	0x02002005 ; undefined
      c0:	053c0104 	ext	z4.b, z4.b, z8.b, #224
      c4:	4a0c030c 	eor	w12, w24, w12
      c8:	05210105 	ext	z5.b, z5.b, z8.b, #8
      cc:	2405334b 	cmpeq	p11.b, p4/z, z26.b, z5.d
      d0:	20090578 	.inst	0x20090578 ; undefined
      d4:	05580805 	mov	z5.h, p8/z, #64
      d8:	32053010 	orr	w16, w0, #0xf80000ff
      dc:	2e110532 	.inst	0x2e110532 ; undefined
      e0:	053c0f05 	ext	z5.b, z5.b, z24.b, #227
      e4:	0f05312f 	.inst	0x0f05312f ; undefined
      e8:	332a052e 	.inst	0x332a052e ; undefined
      ec:	052e0905 	ext	z5.b, z5.b, z8.b, #114
      f0:	15053d12 	b	414f538 <_end+0x175dda8>
      f4:	2e27053f 	uhadd	v31.8b, v9.8b, v7.8b
      f8:	02003505 	.inst	0x02003505 ; undefined
      fc:	052e0104 	ext	z4.b, z4.b, z8.b, #112
     100:	04020027 	.inst	0x04020027 ; undefined
     104:	02002e01 	.inst	0x02002e01 ; undefined
     108:	2e060204 	ext	v4.8b, v16.8b, v6.8b, #0
     10c:	02000c05 	.inst	0x02000c05 ; undefined
     110:	20060404 	.inst	0x20060404 ; undefined
     114:	02002905 	.inst	0x02002905 ; undefined
     118:	05210404 	ext	z4.b, z4.b, z0.b, #9
     11c:	0402000b 	.inst	0x0402000b ; undefined
     120:	09053c04 	.inst	0x09053c04 ; undefined
     124:	04040200 	.inst	0x04040200 ; undefined
     128:	00080532 	.inst	0x00080532 ; undefined
     12c:	2e040402 	.inst	0x2e040402 ; undefined
     130:	052f3b05 	.inst	0x052f3b05 ; undefined
     134:	10052e1e 	adr	x30, a6f4 <_start-0x7590c>
     138:	3e29053e 	.inst	0x3e29053e ; undefined
     13c:	052f3105 	tbl	z5.b, {z8.b}, z15.b
     140:	0200302e 	.inst	0x0200302e ; undefined
     144:	2e060104 	ext	v4.8b, v8.8b, v6.8b, #0
     148:	02003c05 	.inst	0x02003c05 ; undefined
     14c:	2e060204 	ext	v4.8b, v16.8b, v6.8b, #0
     150:	02002e05 	.inst	0x02002e05 ; undefined
     154:	053c0204 	ext	z4.b, z4.b, z16.b, #224
     158:	1e051d2f 	.inst	0x1e051d2f ; undefined
     15c:	3609051f 	tbz	wzr, #1, 21fc <_start-0x7de04>
     160:	05740805 	ext	z5.b, {z0.b, z1.b}, #162
     164:	0c052f1e 	.inst	0x0c052f1e ; undefined
     168:	21010530 	.inst	0x21010530 ; undefined
     16c:	01000202 	.inst	0x01000202 ; undefined
     170:	00029101 	.inst	0x00029101 ; undefined
     174:	08000500 	stxrb	w0, w0, [x8]
     178:	00004600 	udf	#17920
     17c:	01010400 	.inst	0x01010400 ; undefined
     180:	000d0efb 	.inst	0x000d0efb ; undefined
     184:	01010101 	.inst	0x01010101 ; undefined
     188:	01000000 	.inst	0x01000000 ; undefined
     18c:	01010000 	.inst	0x01010000 ; undefined
     190:	00031f01 	.inst	0x00031f01 ; undefined
     194:	32000000 	orr	w0, w0, #0x1
     198:	a1000000 	.inst	0xa1000000 ; undefined
     19c:	02000000 	.inst	0x02000000 ; undefined
     1a0:	0f021f01 	.inst	0x0f021f01 ; undefined
     1a4:	00004c06 	udf	#19462
     1a8:	004c0100 	.inst	0x004c0100 ; undefined
     1ac:	3d010000 	str	b0, [x0, #64]
     1b0:	02000000 	.inst	0x02000000 ; undefined
     1b4:	00000052 	udf	#82
     1b8:	00005a02 	udf	#23042
     1bc:	00600200 	.inst	0x00600200 ; undefined
     1c0:	05020000 	orr	z0.d, z0.d, #0x1
     1c4:	02090032 	.inst	0x02090032 ; undefined
     1c8:	00080334 	.inst	0x00080334 ; undefined
     1cc:	00000000 	udf	#0
     1d0:	05012003 	orr	z3.s, z3.s, #0x10000000
     1d4:	0e052f0b 	smov	w11, v24.b[2]
     1d8:	3c12052f 	str	b15, [x9], #-224
     1dc:	05201c05 	ext	z5.b, z5.b, z0.b, #7
     1e0:	18053c20 	ldr	w0, a964 <_start-0x7569c>
     1e4:	202a0520 	.inst	0x202a0520 ; undefined
     1e8:	053c2e05 	tbx	z5.b, z16.b, z28.b
     1ec:	39052026 	strb	w6, [x1, #328]
     1f0:	2e3d0520 	uhadd	v0.8b, v9.8b, v29.8b
     1f4:	05203505 	.inst	0x05203505 ; undefined
     1f8:	32052101 	orr	w1, w8, #0xf800000f
     1fc:	2f0b0530 	ushr	v16.8b, v9.8b, #5
     200:	052f2205 	mov	z5.b, z16.b[7]
     204:	44053c26 	sqrdcmlah	z6.b, z1.b, z5.b, #270
     208:	3c480520 	ldr	b0, [x9], #128
     20c:	05202e05 	tbx	z5.b, z16.b, z0.b
     210:	6605202c 	.inst	0x6605202c ; undefined
     214:	3c510520 	ldr	b0, [x9], #-240
     218:	05206a05 	uzp1	z5.b, z16.b, z0.b
     21c:	8905204e 	.inst	0x8905204e ; undefined
     220:	74052001 	.inst	0x74052001 ; undefined
     224:	018d053c 	.inst	0x018d053c ; undefined
     228:	20710520 	.inst	0x20710520 ; undefined
     22c:	05212205 	mov	z5.b, b16
     230:	26053c0d 	.inst	0x26053c0d ; undefined
     234:	01940520 	.inst	0x01940520 ; undefined
     238:	2145051f 	.inst	0x2145051f ; undefined
     23c:	053c3005 	tbl	z5.b, {z0.b}, z28.b
     240:	2d052049 	stp	s9, s8, [x2, #40]
     244:	20680520 	.inst	0x20680520 ; undefined
     248:	053c5305 	.inst	0x053c5305 ; undefined
     24c:	5005206c 	adr	x12, a65a <_start-0x759a6>
     250:	018b0520 	.inst	0x018b0520 ; undefined
     254:	2e760520 	uhadd	v0.4h, v9.4h, v22.4h
     258:	20018f05 	.inst	0x20018f05 ; undefined
     25c:	05207305 	trn1	z5.b, z24.b, z0.b
     260:	41052101 	.inst	0x41052101 ; undefined
     264:	4b180530 	sub	w16, w9, w24, lsl #1
     268:	052f0905 	ext	z5.b, z5.b, z8.b, #122
     26c:	09054a08 	.inst	0x09054a08 ; undefined
     270:	1c053d4b 	ldr	s11, aa18 <_start-0x755e8>
     274:	4c350524 	.inst	0x4c350524 ; undefined
     278:	054a0b05 	.inst	0x054a0b05 ; undefined
     27c:	0b053d36 	add	w22, w9, w5, lsl #15
     280:	3d27054a 	str	b10, [x10, #2497]
     284:	3d200b05 	str	b5, [x24, #2050]
     288:	241f0531 	cmphi	p1.b, p1/z, z9.b, z31.b
     28c:	054c1105 	.inst	0x054c1105 ; undefined
     290:	0d053f0c 	.inst	0x0d053f0c ; undefined
     294:	6818053d 	.inst	0x6818053d ; undefined
     298:	053c1505 	ext	z5.b, z5.b, z8.b, #229
     29c:	38053d1c 	strb	w28, [x8, #83]!
     2a0:	201a0520 	.inst	0x201a0520 ; undefined
     2a4:	052e1505 	ext	z5.b, z5.b, z8.b, #117
     2a8:	0d054e11 	.inst	0x0d054e11 ; undefined
     2ac:	7811053d 	strh	w29, [x9], #-240
     2b0:	053d1c05 	ext	z5.b, z5.b, z0.b, #239
     2b4:	33054b15 	bfxil	w21, w24, #5, #14
     2b8:	4a13053d 	eor	w29, w9, w19, lsl #1
     2bc:	053d1505 	ext	z5.b, z5.b, z8.b, #237
     2c0:	15053d0d 	b	414f6f4 <_end+0x175df64>
     2c4:	4d110567 	.inst	0x4d110567 ; undefined
     2c8:	05202d05 	tbx	z5.b, z8.b, z0.b
     2cc:	20052010 	.inst	0x20052010 ; undefined
     2d0:	203c052f 	.inst	0x203c052f ; undefined
     2d4:	05201e05 	ext	z5.b, z5.b, z16.b, #7
     2d8:	11052e19 	add	w25, w16, #0x14b
     2dc:	3d0d054f 	str	b15, [x10, #833]
     2e0:	05781105 	ext	z5.b, {z8.b, z9.b}, #196
     2e4:	4b793d0d 	.inst	0x4b793d0d ; undefined
     2e8:	4f031405 	orr	v5.4s, #0x60
     2ec:	03010520 	.inst	0x03010520 ; undefined
     2f0:	5e054a34 	.inst	0x5e054a34 ; undefined
     2f4:	68080530 	.inst	0x68080530 ; undefined
     2f8:	053d1205 	ext	z5.b, z5.b, z16.b, #236
     2fc:	0d052009 	.inst	0x0d052009 ; undefined
     300:	03040200 	.inst	0x03040200 ; undefined
     304:	00250521 	.inst	0x00250521 ; NYI
     308:	3b030402 	.inst	0x3b030402 ; undefined
     30c:	02001b05 	.inst	0x02001b05 ; undefined
     310:	053c0104 	ext	z4.b, z4.b, z8.b, #224
     314:	0e056909 	trn2	v9.8b, v8.8b, v5.8b
     318:	0301054b 	.inst	0x0301054b ; undefined
     31c:	0f05740d 	orr	v13.2s, #0xa0, lsl #24
     320:	05207403 	trn2	z3.b, z0.b, z0.b
     324:	12053d0e 	and	w14, w8, #0xf80007ff
     328:	20090575 	.inst	0x20090575 ; undefined
     32c:	02000d05 	.inst	0x02000d05 ; undefined
     330:	05210304 	ext	z4.b, z4.b, z24.b, #8
     334:	04020025 	.inst	0x04020025 ; undefined
     338:	1b053b03 	madd	w3, w24, w5, w14
     33c:	01040200 	.inst	0x01040200 ; undefined
     340:	6909053c 	stgp	x28, x1, [x9, #288]
     344:	05430105 	eor	z5.d, z5.d, #0x1ff00000000
     348:	207a030f 	.inst	0x207a030f ; undefined
     34c:	053d1205 	ext	z5.b, z5.b, z16.b, #236
     350:	0d052009 	.inst	0x0d052009 ; undefined
     354:	03040200 	.inst	0x03040200 ; undefined
     358:	00250521 	.inst	0x00250521 ; NYI
     35c:	3b030402 	.inst	0x3b030402 ; undefined
     360:	02001b05 	.inst	0x02001b05 ; undefined
     364:	053c0104 	ext	z4.b, z4.b, z8.b, #224
     368:	01056909 	.inst	0x01056909 ; undefined
     36c:	3e5e054c 	.inst	0x3e5e054c ; undefined
     370:	05690805 	ext	z5.b, {z0.b, z1.b}, #74
     374:	04020022 	.inst	0x04020022 ; undefined
     378:	1f053c01 	fmadd	s1, s0, s5, s15
     37c:	01040200 	.inst	0x01040200 ; undefined
     380:	303a054a 	adr	x10, 74429 <_start-0xbbd7>
     384:	053c2605 	.inst	0x053c2605 ; undefined
     388:	1c05201e 	ldr	s30, a788 <_start-0x75878>
     38c:	3e080520 	.inst	0x3e080520 ; undefined
     390:	02002205 	.inst	0x02002205 ; undefined
     394:	053c0104 	ext	z4.b, z4.b, z8.b, #224
     398:	0402001f 	.inst	0x0402001f ; undefined
     39c:	38054a01 	sttrb	w1, [x16, #84]
     3a0:	3c24052f 	.inst	0x3c24052f ; undefined
     3a4:	05201c05 	ext	z5.b, z5.b, z0.b, #7
     3a8:	0105201a 	.inst	0x0105201a ; undefined
     3ac:	3e20053e 	.inst	0x3e20053e ; undefined
     3b0:	053d1805 	ext	z5.b, z5.b, z0.b, #238
     3b4:	08054c09 	stxrb	w5, w9, [x0]
     3b8:	4b09054a 	sub	w10, w10, w9, lsl #1
     3bc:	242e053d 	cmphi	p13.b, p1/z, z9.b, #56
     3c0:	054a0b05 	.inst	0x054a0b05 ; undefined
     3c4:	0b053d1f 	add	wzr, w8, w5, lsl #15
     3c8:	21240531 	.inst	0x21240531 ; undefined
     3cc:	054b4305 	.inst	0x054b4305 ; undefined
     3d0:	22052e57 	.inst	0x22052e57 ; undefined
     3d4:	3d09052e 	str	b14, [x9, #577]
     3d8:	053d1105 	ext	z5.b, z5.b, z8.b, #236
     3dc:	23053814 	.inst	0x23053814 ; undefined
     3e0:	002e052e 	.inst	0x002e052e ; NYI
     3e4:	2e010402 	.inst	0x2e010402 ; undefined
     3e8:	02002305 	.inst	0x02002305 ; undefined
     3ec:	052e0104 	ext	z4.b, z4.b, z8.b, #112
     3f0:	4e053605 	.inst	0x4e053605 ; undefined
     3f4:	3c50054a 	ldr	b10, [x10], #-256
     3f8:	054a4e05 	.inst	0x054a4e05 ; undefined
     3fc:	01052005 	.inst	0x01052005 ; undefined
     400:	0003023d 	.inst	0x0003023d ; undefined
     404:	02230101 	.inst	0x02230101 ; undefined
     408:	00050000 	.inst	0x00050000 ; undefined
     40c:	005e0008 	.inst	0x005e0008 ; undefined
     410:	01040000 	.inst	0x01040000 ; undefined
     414:	0d0efb01 	.inst	0x0d0efb01 ; undefined
     418:	01010100 	.inst	0x01010100 ; undefined
     41c:	00000001 	udf	#1
     420:	01000001 	.inst	0x01000001 ; undefined
     424:	041f0101 	.inst	0x041f0101 ; undefined
     428:	00000000 	udf	#0
     42c:	00000032 	udf	#50
     430:	000000a1 	udf	#161
     434:	00000079 	udf	#121
     438:	021f0102 	.inst	0x021f0102 ; undefined
     43c:	006d0a0f 	.inst	0x006d0a0f ; undefined
     440:	6d010000 	stp	d0, d0, [x0, #16]
     444:	01000000 	.inst	0x01000000 ; undefined
     448:	000000a9 	udf	#169
     44c:	0000b502 	udf	#46338
     450:	00be0300 	.inst	0x00be0300 ; undefined
     454:	c8020000 	stxr	w2, x0, [x0]
     458:	02000000 	.inst	0x02000000 ; undefined
     45c:	00000052 	udf	#82
     460:	00006002 	udf	#24578
     464:	00d10200 	.inst	0x00d10200 ; undefined
     468:	da020000 	sbc	x0, x0, x2
     46c:	02000000 	.inst	0x02000000 ; undefined
     470:	09000d05 	.inst	0x09000d05 ; undefined
     474:	0809f802 	stlxrb	w9, w2, [x0]
     478:	00000000 	udf	#0
     47c:	010e0300 	.inst	0x010e0300 ; undefined
     480:	052f0505 	ext	z5.b, z5.b, z8.b, #121
     484:	0105210f 	.inst	0x0105210f ; undefined
     488:	3e0f0575 	.inst	0x3e0f0575 ; undefined
     48c:	7514052f 	.inst	0x7514052f ; undefined
     490:	053c0805 	ext	z5.b, z5.b, z0.b, #226
     494:	01052f09 	.inst	0x01052f09 ; undefined
     498:	3e270521 	.inst	0x3e270521 ; undefined
     49c:	0a030505 	and	w5, w8, w3, lsl #1
     4a0:	2119053c 	.inst	0x2119053c ; undefined
     4a4:	052e0905 	ext	z5.b, z5.b, z8.b, #114
     4a8:	09052305 	.inst	0x09052305 ; undefined
     4ac:	2f143d02 	.inst	0x2f143d02 ; undefined
     4b0:	05232305 	mov	z5.b, z24.b[1]
     4b4:	05672e09 	tbx	z9.h, z16.h, z7.h
     4b8:	09052224 	.inst	0x09052224 ; undefined
     4bc:	1e05672e 	.inst	0x1e05672e ; undefined
     4c0:	2e090522 	.inst	0x2e090522 ; undefined
     4c4:	05203005 	tbl	z5.b, {z0.b}, z0.b
     4c8:	223d2e09 	.inst	0x223d2e09 ; undefined
     4cc:	2216052f 	.inst	0x2216052f ; undefined
     4d0:	3d2e0905 	str	b5, [x8, #2946]
     4d4:	05222a05 	tbl	z5.b, {z16.b, z17.b}, z2.b
     4d8:	43052e09 	.inst	0x43052e09 ; undefined
     4dc:	2e090520 	.inst	0x2e090520 ; undefined
     4e0:	2216053d 	.inst	0x2216053d ; undefined
     4e4:	3d2e0905 	str	b5, [x8, #2946]
     4e8:	05221c05 	ext	z5.b, z5.b, z0.b, #23
     4ec:	32052e09 	orr	w9, w16, #0xf800007f
     4f0:	2e090520 	.inst	0x2e090520 ; undefined
     4f4:	2218053d 	.inst	0x2218053d ; undefined
     4f8:	052e0905 	ext	z5.b, z5.b, z8.b, #114
     4fc:	09052021 	.inst	0x09052021 ; undefined
     500:	2f223d2e 	.inst	0x2f223d2e ; undefined
     504:	3f010522 	.inst	0x3f010522 ; undefined
     508:	054c2705 	.inst	0x054c2705 ; undefined
     50c:	18053e09 	ldr	w9, accc <_start-0x75334>
     510:	2008053c 	.inst	0x2008053c ; undefined
     514:	052f1105 	ext	z5.b, z5.b, z8.b, #124
     518:	09053c21 	.inst	0x09053c21 ; undefined
     51c:	5a0d0520 	.inst	0x5a0d0520 ; undefined
     520:	21224b21 	.inst	0x21224b21 ; undefined
     524:	240e054b 	cmphs	p11.b, p1/z, z10.b, z14.b
     528:	053c2605 	.inst	0x053c2605 ; undefined
     52c:	0905200d 	.inst	0x0905200d ; undefined
     530:	054b212f 	.inst	0x054b212f ; undefined
     534:	1c052216 	ldr	s22, a974 <_start-0x7568c>
     538:	2023054a 	.inst	0x2023054a ; undefined
     53c:	053c0c05 	ext	z5.b, z5.b, z0.b, #227
     540:	05252f0d 	tbx	z13.b, z24.b, z5.b
     544:	08052e18 	stxrb	w5, w24, [x16]
     548:	2f090520 	ushr	v0.8b, v9.8b, #7
     54c:	05300105 	ext	z5.b, z5.b, z8.b, #128
     550:	05053e27 	.inst	0x05053e27 ; undefined
     554:	2f2f4c3d 	.inst	0x2f2f4c3d ; undefined
     558:	02000b05 	.inst	0x02000b05 ; undefined
     55c:	05590104 	mov	z4.h, p9/z, #8
     560:	1005241a 	adr	x26, a9e0 <_start-0x75620>
     564:	3c0e052f 	str	b15, [x9], #224
     568:	053d0d05 	ext	z5.b, z5.b, z8.b, #235
     56c:	0d053c14 	.inst	0x0d053c14 ; undefined
     570:	3c14054b 	str	b11, [x10], #-192
     574:	054b0105 	.inst	0x054b0105 ; undefined
     578:	14053e3a 	b	14fe60 <thread_list+0xc7440>
     57c:	2e10053d 	.inst	0x2e10053d ; undefined
     580:	3d07052f 	str	b15, [x9, #449]
     584:	052e1405 	ext	z5.b, z5.b, z0.b, #117
     588:	01052f0e 	.inst	0x01052f0e ; undefined
     58c:	3e1d053d 	.inst	0x3e1d053d ; undefined
     590:	05130505 	mov	z5.b, p3/z, #40
     594:	1e052101 	.inst	0x1e052101 ; undefined
     598:	13050530 	sbfiz	w16, w9, #27, #2
     59c:	05210105 	ext	z5.b, z5.b, z8.b, #8
     5a0:	16053036 	b	fffffffff814c678 <_end+0xfffffffff575aee8>
     5a4:	3d14054c 	str	b12, [x10, #1281]
     5a8:	053d1905 	ext	z5.b, z5.b, z8.b, #238
     5ac:	1c053f05 	ldr	s5, ad8c <_start-0x75274>
     5b0:	3c0f0523 	str	b3, [x9], #240
     5b4:	052f0505 	ext	z5.b, z5.b, z8.b, #121
     5b8:	20052111 	.inst	0x20052111 ; undefined
     5bc:	2e0c052e 	.inst	0x2e0c052e ; undefined
     5c0:	3d2f0d05 	str	b5, [x8, #3011]
     5c4:	051d1f05 	mov	z5.b, p13/z, #-8
     5c8:	0402000f 	.inst	0x0402000f ; undefined
     5cc:	0c053c01 	.inst	0x0c053c01 ; undefined
     5d0:	3c08056d 	str	b13, [x11], #128
     5d4:	053d0905 	ext	z5.b, z5.b, z8.b, #234
     5d8:	0b053f05 	add	w5, w24, w5, lsl #15
     5dc:	03090523 	.inst	0x03090523 ; undefined
     5e0:	1e05200a 	.inst	0x1e05200a ; undefined
     5e4:	4a0f0521 	eor	w1, w9, w15, lsl #1
     5e8:	05301f05 	ext	z5.b, z5.b, z24.b, #135
     5ec:	11053c13 	add	w19, w0, #0x14f
     5f0:	3c1b052f 	str	b15, [x9], #-80
     5f4:	052e1805 	ext	z5.b, z5.b, z0.b, #118
     5f8:	1705210a 	b	fffffffffc148a20 <_end+0xfffffffff9757290>
     5fc:	4b09052e 	sub	w14, w9, w9, lsl #1
     600:	230a052f 	.inst	0x230a052f ; undefined
     604:	6c031405 	stnp	d5, d5, [x0, #48]
     608:	4a1b052e 	eor	w14, w9, w27, lsl #1
     60c:	16030105 	b	fffffffff80c0a20 <_end+0xfffffffff56cf290>
     610:	4c140558 	.inst	0x4c140558 ; undefined
     614:	2f310505 	ushr	v5.2s, v8.2s, #15
     618:	053d1305 	ext	z5.b, z5.b, z24.b, #236
     61c:	052f2e05 	tbx	z5.b, z16.b, z15.b
     620:	17053d11 	b	fffffffffc14fa64 <_end+0xfffffffff975e2d4>
     624:	2101052e 	.inst	0x2101052e ; undefined
     628:	01000202 	.inst	0x01000202 ; undefined
     62c:	00009e01 	udf	#40449
     630:	08000500 	stxrb	w0, w0, [x8]
     634:	00005500 	udf	#21760
     638:	01010400 	.inst	0x01010400 ; undefined
     63c:	000d0efb 	.inst	0x000d0efb ; undefined
     640:	01010101 	.inst	0x01010101 ; undefined
     644:	01000000 	.inst	0x01000000 ; undefined
     648:	01010000 	.inst	0x01010000 ; undefined
     64c:	00031f01 	.inst	0x00031f01 ; undefined
     650:	32000000 	orr	w0, w0, #0x1
     654:	a1000000 	.inst	0xa1000000 ; undefined
     658:	02000000 	.inst	0x02000000 ; undefined
     65c:	0f021f01 	.inst	0x0f021f01 ; undefined
     660:	0000e609 	udf	#58889
     664:	00e60100 	.inst	0x00e60100 ; undefined
     668:	ed010000 	.inst	0xed010000 ; undefined
     66c:	02000000 	.inst	0x02000000 ; undefined
     670:	000000c8 	udf	#200
     674:	00006002 	udf	#24578
     678:	00520200 	.inst	0x00520200 ; undefined
     67c:	a9020000 	stp	x0, x0, [x0, #32]
     680:	02000000 	.inst	0x02000000 ; undefined
     684:	000000da 	udf	#218
     688:	00005a02 	udf	#23042
     68c:	16050200 	b	fffffffff8140e8c <_end+0xfffffffff574f6fc>
     690:	94020900 	bl	82a90 <do_cmd_simple_malloc+0x24>
     694:	00000810 	udf	#2064
     698:	03000000 	.inst	0x03000000 ; undefined
     69c:	0505010c 	.inst	0x0505010c ; undefined
     6a0:	220d053e 	.inst	0x220d053e ; undefined
     6a4:	764b0505 	.inst	0x764b0505 ; undefined
     6a8:	21222121 	.inst	0x21222121 ; undefined
     6ac:	0521224b 	mov	z11.b, b18
     6b0:	04020009 	.inst	0x04020009 ; undefined
     6b4:	02002301 	.inst	0x02002301 ; undefined
     6b8:	004b0104 	.inst	0x004b0104 ; undefined
     6bc:	3d010402 	str	b2, [x0, #65]
     6c0:	01040200 	.inst	0x01040200 ; undefined
     6c4:	0402003d 	.inst	0x0402003d ; undefined
     6c8:	01023901 	.inst	0x01023901 ; undefined
     6cc:	9e010100 	.inst	0x9e010100 ; undefined
     6d0:	05000000 	orr	z0.s, z0.s, #0x1
     6d4:	3c000800 	.inst	0x3c000800 ; undefined
     6d8:	04000000 	add	z0.b, p0/m, z0.b, z0.b
     6dc:	0efb0101 	.inst	0x0efb0101 ; undefined
     6e0:	0101000d 	.inst	0x0101000d ; undefined
     6e4:	00000101 	udf	#257
     6e8:	00000100 	udf	#256
     6ec:	1f010101 	fmadd	s1, s8, s1, s0
     6f0:	00000003 	udf	#3
     6f4:	00003200 	udf	#12800
     6f8:	0000a100 	udf	#41216
     6fc:	1f010200 	fmadd	s0, s16, s1, s0
     700:	f9040f02 	str	x2, [x24, #2072]
     704:	01000000 	.inst	0x01000000 ; undefined
     708:	000000f9 	udf	#249
     70c:	00010001 	.inst	0x00010001 ; undefined
     710:	00520200 	.inst	0x00520200 ; undefined
     714:	05020000 	orr	z0.d, z0.d, #0x1
     718:	02090040 	.inst	0x02090040 ; undefined
     71c:	00081134 	.inst	0x00081134 ; undefined
     720:	00000000 	udf	#0
     724:	4c0b0519 	.inst	0x4c0b0519 ; undefined
     728:	0d054c3d 	.inst	0x0d054c3d ; undefined
     72c:	01040200 	.inst	0x01040200 ; undefined
     730:	00300520 	.inst	0x00300520 ; NYI
     734:	3c010402 	str	b2, [x0], #16
     738:	052f0505 	ext	z5.b, z5.b, z8.b, #121
     73c:	0f052e11 	.inst	0x0f052e11 ; undefined
     740:	01040200 	.inst	0x01040200 ; undefined
     744:	00100532 	.inst	0x00100532 ; undefined
     748:	20010402 	.inst	0x20010402 ; undefined
     74c:	02001d05 	.inst	0x02001d05 ; undefined
     750:	053c0104 	ext	z4.b, z4.b, z8.b, #224
     754:	04020010 	.inst	0x04020010 ; undefined
     758:	16052001 	b	fffffffff814875c <_end+0xfffffffff5756fcc>
     75c:	3c0c052f 	str	b15, [x9], #192
     760:	053e0d05 	ext	z5.b, z5.b, z8.b, #243
     764:	1a054b16 	.inst	0x1a054b16 ; undefined
     768:	4e01053c 	dup	v28.16b, v9.b[0]
     76c:	01000202 	.inst	0x01000202 ; undefined
     770:	0006c001 	.inst	0x0006c001 ; undefined
     774:	08000500 	stxrb	w0, w0, [x8]
     778:	00003c00 	udf	#15360
     77c:	01010400 	.inst	0x01010400 ; undefined
     780:	000d0efb 	.inst	0x000d0efb ; undefined
     784:	01010101 	.inst	0x01010101 ; undefined
     788:	01000000 	.inst	0x01000000 ; undefined
     78c:	01010000 	.inst	0x01010000 ; undefined
     790:	00031f01 	.inst	0x00031f01 ; undefined
     794:	32000000 	orr	w0, w0, #0x1
     798:	a1000000 	.inst	0xa1000000 ; undefined
     79c:	02000000 	.inst	0x02000000 ; undefined
     7a0:	0f021f01 	.inst	0x0f021f01 ; undefined
     7a4:	00010b04 	.inst	0x00010b04 ; undefined
     7a8:	010b0100 	.inst	0x010b0100 ; undefined
     7ac:	60010000 	.inst	0x60010000 ; undefined
     7b0:	02000000 	.inst	0x02000000 ; undefined
     7b4:	00000052 	udf	#82
     7b8:	00280502 	.inst	0x00280502 ; NYI
     7bc:	11f00209 	.inst	0x11f00209 ; undefined
     7c0:	00000008 	udf	#8
     7c4:	051a0000 	mov	z0.b, p10/z, #0
     7c8:	0b053618 	add	w24, w16, w5, lsl #13
     7cc:	3118053c 	adds	w28, w9, #0x601
     7d0:	052e0a05 	ext	z5.b, z5.b, z16.b, #114
     7d4:	20053019 	.inst	0x20053019 ; undefined
     7d8:	300e052e 	adr	x14, 1c87d <_start-0x63783>
     7dc:	05840c05 	.inst	0x05840c05 ; undefined
     7e0:	16052101 	b	fffffffff8148be4 <_end+0xfffffffff5757454>
     7e4:	2f010530 	mvni	v16.2s, #0x29
     7e8:	0c033005 	.inst	0x0c033005 ; undefined
     7ec:	3d14053c 	str	b28, [x9, #1281]
     7f0:	2f2e1005 	.inst	0x2f2e1005 ; undefined
     7f4:	053d0905 	ext	z5.b, z5.b, z8.b, #234
     7f8:	09052e16 	.inst	0x09052e16 ; undefined
     7fc:	2e16052f 	.inst	0x2e16052f ; undefined
     800:	052f0105 	ext	z5.b, z5.b, z8.b, #120
     804:	1c053f17 	ldr	s23, afe4 <_start-0x7501c>
     808:	3c110530 	str	b16, [x9], #-240
     80c:	053d0e05 	ext	z5.b, z5.b, z16.b, #235
     810:	1f052005 	fmadd	s5, s0, s5, s8
     814:	03040200 	.inst	0x03040200 ; undefined
     818:	002b0521 	.inst	0x002b0521 ; NYI
     81c:	3c030402 	str	b2, [x0], #48
     820:	02001405 	.inst	0x02001405 ; undefined
     824:	052e0304 	ext	z4.b, z4.b, z24.b, #112
     828:	0402001f 	.inst	0x0402001f ; undefined
     82c:	1d056603 	cpyprtwn	[x3]!, [x5]!, x16!
     830:	03040200 	.inst	0x03040200 ; undefined
     834:	001f0520 	.inst	0x001f0520 ; undefined
     838:	21030402 	.inst	0x21030402 ; undefined
     83c:	02002b05 	.inst	0x02002b05 ; undefined
     840:	053c0304 	ext	z4.b, z4.b, z24.b, #224
     844:	04020014 	.inst	0x04020014 ; undefined
     848:	1f052e03 	fmadd	s3, s16, s5, s11
     84c:	03040200 	.inst	0x03040200 ; undefined
     850:	001d0566 	.inst	0x001d0566 ; undefined
     854:	20030402 	.inst	0x20030402 ; undefined
     858:	02001405 	.inst	0x02001405 ; undefined
     85c:	05210304 	ext	z4.b, z4.b, z24.b, #8
     860:	0402001c 	.inst	0x0402001c ; undefined
     864:	14056603 	b	15a070 <thread_list+0xd1650>
     868:	03040200 	.inst	0x03040200 ; undefined
     86c:	001c0521 	.inst	0x001c0521 ; undefined
     870:	66030402 	.inst	0x66030402 ; undefined
     874:	02001405 	.inst	0x02001405 ; undefined
     878:	052f0304 	ext	z4.b, z4.b, z24.b, #120
     87c:	0402001d 	.inst	0x0402001d ; undefined
     880:	14056603 	b	15a08c <thread_list+0xd166c>
     884:	03040200 	.inst	0x03040200 ; undefined
     888:	0023052f 	.inst	0x0023052f ; NYI
     88c:	66030402 	.inst	0x66030402 ; undefined
     890:	02002405 	.inst	0x02002405 ; undefined
     894:	7a030304 	sbcs	w4, w24, w3
     898:	0017052e 	.inst	0x0017052e ; undefined
     89c:	3c010402 	str	b2, [x0], #16
     8a0:	0a032005 	and	w5, w0, w3, lsl #8
     8a4:	3c15053c 	str	b28, [x9], #-176
     8a8:	053d0e05 	ext	z5.b, z5.b, z16.b, #235
     8ac:	18052005 	ldr	w5, acac <_start-0x75354>
     8b0:	03040200 	.inst	0x03040200 ; undefined
     8b4:	00200521 	.inst	0x00200521 ; NYI
     8b8:	66030402 	.inst	0x66030402 ; undefined
     8bc:	02002305 	.inst	0x02002305 ; undefined
     8c0:	052f0304 	ext	z4.b, z4.b, z24.b, #120
     8c4:	04020033 	.inst	0x04020033 ; undefined
     8c8:	18053c03 	ldr	w3, b048 <_start-0x74fb8>
     8cc:	03040200 	.inst	0x03040200 ; undefined
     8d0:	0023052e 	.inst	0x0023052e ; NYI
     8d4:	66030402 	.inst	0x66030402 ; undefined
     8d8:	02002105 	.inst	0x02002105 ; undefined
     8dc:	05200304 	ext	z4.b, z4.b, z24.b, #0
     8e0:	04020023 	.inst	0x04020023 ; undefined
     8e4:	33052103 	bfxil	w3, w8, #5, #4
     8e8:	03040200 	.inst	0x03040200 ; undefined
     8ec:	0018053c 	.inst	0x0018053c ; undefined
     8f0:	2e030402 	.inst	0x2e030402 ; undefined
     8f4:	02002305 	.inst	0x02002305 ; undefined
     8f8:	05660304 	ext	z4.b, {z24.b, z25.b}, #48
     8fc:	04020021 	.inst	0x04020021 ; undefined
     900:	2c052003 	stnp	s3, s8, [x0, #40]
     904:	03040200 	.inst	0x03040200 ; undefined
     908:	0017051d 	.inst	0x0017051d ; undefined
     90c:	3c010402 	str	b2, [x0], #16
     910:	05420e05 	eor	z5.d, z5.d, #0x8000ffffffffffff
     914:	14052005 	b	148928 <thread_list+0xbff08>
     918:	03040200 	.inst	0x03040200 ; undefined
     91c:	001c0521 	.inst	0x001c0521 ; undefined
     920:	66030402 	.inst	0x66030402 ; undefined
     924:	02000905 	.inst	0x02000905 ; undefined
     928:	052f0304 	ext	z4.b, z4.b, z24.b, #120
     92c:	04020027 	.inst	0x04020027 ; undefined
     930:	09053c03 	.inst	0x09053c03 ; undefined
     934:	03040200 	.inst	0x03040200 ; undefined
     938:	0025052e 	.inst	0x0025052e ; NYI
     93c:	80030402 	.inst	0x80030402 ; undefined
     940:	02001705 	.inst	0x02001705 ; undefined
     944:	053c0104 	ext	z4.b, z4.b, z8.b, #224
     948:	14054216 	b	1511a0 <thread_list+0xc8780>
     94c:	3d0e053c 	str	b28, [x9, #897]
     950:	05200505 	ext	z5.b, z5.b, z8.b, #1
     954:	04020022 	.inst	0x04020022 ; undefined
     958:	31052103 	adds	w3, w8, #0x148
     95c:	03040200 	.inst	0x03040200 ; undefined
     960:	0017053c 	.inst	0x0017053c ; undefined
     964:	2e030402 	.inst	0x2e030402 ; undefined
     968:	02002205 	.inst	0x02002205 ; undefined
     96c:	05660304 	ext	z4.b, {z24.b, z25.b}, #48
     970:	04020020 	.inst	0x04020020 ; undefined
     974:	22052003 	.inst	0x22052003 ; undefined
     978:	03040200 	.inst	0x03040200 ; undefined
     97c:	00310521 	.inst	0x00310521 ; NYI
     980:	3c030402 	str	b2, [x0], #48
     984:	02001705 	.inst	0x02001705 ; undefined
     988:	052e0304 	ext	z4.b, z4.b, z24.b, #112
     98c:	04020022 	.inst	0x04020022 ; undefined
     990:	20056603 	.inst	0x20056603 ; undefined
     994:	03040200 	.inst	0x03040200 ; undefined
     998:	002c0520 	.inst	0x002c0520 ; NYI
     99c:	1e030402 	.inst	0x1e030402 ; undefined
     9a0:	02001705 	.inst	0x02001705 ; undefined
     9a4:	053c0104 	ext	z4.b, z4.b, z8.b, #224
     9a8:	3c120301 	stur	b1, [x24, #-224]
     9ac:	054d2605 	.inst	0x054d2605 ; undefined
     9b0:	36053e1e 	tbz	w30, #0, ffffffffffffb170 <_end+0xfffffffffd6099e0>
     9b4:	2e41052e 	fmaxnmp	v14.4h, v9.4h, v1.4h
     9b8:	053c2d05 	tbx	z5.b, z8.b, z28.b
     9bc:	0a052009 	and	w9, w0, w5, lsl #8
     9c0:	2f0b0523 	ushr	v3.8b, v9.8b, #5
     9c4:	05230e05 	ext	z5.b, z5.b, z16.b, #27
     9c8:	0d05220c 	.inst	0x0d05220c ; undefined
     9cc:	10053d3d 	adr	x29, b170 <_start-0x74e90>
     9d0:	4a0c0524 	eor	w4, w9, w12, lsl #1
     9d4:	02003005 	.inst	0x02003005 ; undefined
     9d8:	053c0104 	ext	z4.b, z4.b, z8.b, #224
     9dc:	04020033 	.inst	0x04020033 ; undefined
     9e0:	3c056601 	str	b1, [x16], #86
     9e4:	01040200 	.inst	0x01040200 ; undefined
     9e8:	004c0520 	.inst	0x004c0520 ; undefined
     9ec:	3c010402 	str	b2, [x0], #16
     9f0:	02003c05 	.inst	0x02003c05 ; undefined
     9f4:	052e0104 	ext	z4.b, z4.b, z8.b, #112
     9f8:	0402001e 	.inst	0x0402001e ; undefined
     9fc:	2a052001 	orr	w1, w0, w5, lsl #8
     a00:	66140530 	.inst	0x66140530 ; undefined
     a04:	052f3705 	.inst	0x052f3705 ; undefined
     a08:	4d052e28 	.inst	0x4d052e28 ; undefined
     a0c:	201c0520 	.inst	0x201c0520 ; undefined
     a10:	05281705 	ext	z5.b, z5.b, z24.b, #69
     a14:	11053d18 	add	w24, w8, #0x14f
     a18:	2e24053f 	uhadd	v31.8b, v9.8b, v4.8b
     a1c:	052e1e05 	ext	z5.b, z5.b, z16.b, #119
     a20:	24052111 	cmpne	p1.b, p0/z, z8.b, z5.d
     a24:	2e1e052e 	.inst	0x2e1e052e ; undefined
     a28:	3d211805 	str	b5, [x0, #2118]
     a2c:	3f3f0d05 	.inst	0x3f3f0d05 ; undefined
     a30:	60031705 	.inst	0x60031705 ; undefined
     a34:	3e0c0520 	.inst	0x3e0c0520 ; undefined
     a38:	05202203 	.inst	0x05202203 ; undefined
     a3c:	38052101 	sturb	w1, [x8, #82]
     a40:	4c0b0531 	.inst	0x4c0b0531 ; undefined
     a44:	05221305 	ext	z5.b, z5.b, z24.b, #20
     a48:	29055b18 	stp	w24, w22, [x24, #40]
     a4c:	2e3b053c 	uhadd	v28.8b, v9.8b, v27.8b
     a50:	052e3405 	.inst	0x052e3405 ; undefined
     a54:	24052e2f 	cmpeq	p15.b, p3/z, z17.b, z5.d
     a58:	2010052e 	.inst	0x2010052e ; undefined
     a5c:	052f1a05 	ext	z5.b, z5.b, z16.b, #126
     a60:	09052e14 	.inst	0x09052e14 ; undefined
     a64:	3c370531 	.inst	0x3c370531 ; undefined
     a68:	053c3205 	tbl	z5.b, {z16.b}, z28.b
     a6c:	10052009 	adr	x9, ae6c <_start-0x75194>
     a70:	054a7703 	.inst	0x054a7703 ; undefined
     a74:	30052e1a 	adr	x26, b035 <_start-0x74fcb>
     a78:	01040200 	.inst	0x01040200 ; undefined
     a7c:	0036052e 	.inst	0x0036052e ; NYI
     a80:	2e010402 	.inst	0x2e010402 ; undefined
     a84:	02002805 	.inst	0x02002805 ; undefined
     a88:	05200104 	ext	z4.b, z4.b, z8.b, #0
     a8c:	0402001a 	.inst	0x0402001a ; undefined
     a90:	01053c01 	.inst	0x01053c01 ; undefined
     a94:	053c0f03 	ext	z3.b, z3.b, z24.b, #227
     a98:	1d053f1b 	.inst	0x1d053f1b ; undefined
     a9c:	3c43053e 	ldr	b30, [x9], #48
     aa0:	05205605 	.inst	0x05205605 ; undefined
     aa4:	1d052029 	.inst	0x1d052029 ; undefined
     aa8:	200c0520 	.inst	0x200c0520 ; undefined
     aac:	05261305 	ext	z5.b, z5.b, z24.b, #52
     ab0:	0b05201a 	add	w26, w0, w5, lsl #8
     ab4:	000c0531 	.inst	0x000c0531 ; undefined
     ab8:	20010402 	.inst	0x20010402 ; undefined
     abc:	02002605 	.inst	0x02002605 ; undefined
     ac0:	052e0104 	ext	z4.b, z4.b, z8.b, #112
     ac4:	46053105 	.inst	0x46053105 ; undefined
     ac8:	3c37054a 	.inst	0x3c37054a ; undefined
     acc:	05200505 	ext	z5.b, z5.b, z8.b, #1
     ad0:	1b054d01 	madd	w1, w8, w5, w19
     ad4:	2f0c053f 	ushr	v31.8b, v9.8b, #4
     ad8:	053e1405 	ext	z5.b, z5.b, z0.b, #245
     adc:	41053c2a 	.inst	0x41053c2a ; undefined
     ae0:	2e35052e 	uhadd	v14.8b, v9.8b, v21.8b
     ae4:	052e3005 	tbl	z5.b, {z0.b}, z14.b
     ae8:	0c052e20 	.inst	0x0c052e20 ; undefined
     aec:	31120520 	adds	w0, w9, #0x481
     af0:	052e2005 	mov	z5.h, z0.h[3]
     af4:	10052e08 	adr	x8, b0b4 <_start-0x74f4c>
     af8:	310e052f 	adds	w15, w9, #0x381
     afc:	052e0805 	ext	z5.b, z5.b, z0.b, #114
     b00:	0a052f10 	and	w16, w24, w5, lsl #11
     b04:	2e1e0533 	.inst	0x2e1e0533 ; undefined
     b08:	052e1705 	ext	z5.b, z5.b, z24.b, #117
     b0c:	1e05210a 	.inst	0x1e05210a ; undefined
     b10:	2e17052e 	.inst	0x2e17052e ; undefined
     b14:	05230e05 	ext	z5.b, z5.b, z16.b, #27
     b18:	08052e1f 	stxrb	w5, wzr, [x16]
     b1c:	2f0e052e 	ushr	v14.8b, v9.8b, #2
     b20:	053f0605 	ext	z5.b, z5.b, z16.b, #249
     b24:	10052e0b 	adr	x11, b0e4 <_start-0x74f1c>
     b28:	300c0520 	adr	x0, 18bcd <_start-0x67433>
     b2c:	05210105 	ext	z5.b, z5.b, z8.b, #8
     b30:	0505301d 	.inst	0x0505301d ; undefined
     b34:	0e053d2f 	umov	w15, v9.b[2]
     b38:	2005053d 	.inst	0x2005053d ; undefined
     b3c:	05212405 	.inst	0x05212405 ; undefined
     b40:	0d056610 	.inst	0x0d056610 ; undefined
     b44:	210f052f 	.inst	0x210f052f ; undefined
     b48:	3d221005 	str	b5, [x0, #2180]
     b4c:	05391605 	ext	z5.b, z5.b, z16.b, #205
     b50:	16053c26 	b	fffffffff814fbe8 <_end+0xfffffffff575e458>
     b54:	2013052e 	.inst	0x2013052e ; undefined
     b58:	02004d05 	.inst	0x02004d05 ; undefined
     b5c:	05410204 	eor	z4.s, z4.s, #0x1ffff
     b60:	04020009 	.inst	0x04020009 ; undefined
     b64:	29052e02 	stp	w2, w11, [x16, #40]
     b68:	02040200 	.inst	0x02040200 ; undefined
     b6c:	05747803 	.inst	0x05747803 ; undefined
     b70:	04020017 	.inst	0x04020017 ; undefined
     b74:	05053c01 	.inst	0x05053c01 ; undefined
     b78:	053c0a03 	ext	z3.b, z3.b, z16.b, #226
     b7c:	21053d01 	.inst	0x21053d01 ; undefined
     b80:	3e12053f 	.inst	0x3e12053f ; undefined
     b84:	053d1305 	ext	z5.b, z5.b, z24.b, #236
     b88:	4d053c3a 	.inst	0x4d053c3a ; undefined
     b8c:	201f0520 	.inst	0x201f0520 ; undefined
     b90:	05200c05 	ext	z5.b, z5.b, z0.b, #3
     b94:	09052f16 	.inst	0x09052f16 ; undefined
     b98:	4b0e053f 	sub	wzr, w9, w14, lsl #1
     b9c:	05200505 	ext	z5.b, z5.b, z8.b, #1
     ba0:	04020030 	.inst	0x04020030 ; undefined
     ba4:	15052303 	b	41497b0 <_end+0x1758020>
     ba8:	03040200 	.inst	0x03040200 ; undefined
     bac:	00240520 	.inst	0x00240520 ; NYI
     bb0:	3d030402 	str	b2, [x0, #193]
     bb4:	02002a05 	.inst	0x02002a05 ; undefined
     bb8:	05660304 	ext	z4.b, {z24.b, z25.b}, #48
     bbc:	04020014 	.inst	0x04020014 ; undefined
     bc0:	16052003 	b	fffffffff8148bcc <_end+0xfffffffff575743c>
     bc4:	03040200 	.inst	0x03040200 ; undefined
     bc8:	0025052f 	.inst	0x0025052f ; NYI
     bcc:	3c030402 	str	b2, [x0], #48
     bd0:	02001605 	.inst	0x02001605 ; undefined
     bd4:	052e0304 	ext	z4.b, z4.b, z24.b, #112
     bd8:	04020014 	.inst	0x04020014 ; undefined
     bdc:	0d052003 	.inst	0x0d052003 ; undefined
     be0:	03040200 	.inst	0x03040200 ; undefined
     be4:	001a052f 	.inst	0x001a052f ; undefined
     be8:	2e030402 	.inst	0x2e030402 ; undefined
     bec:	02000d05 	.inst	0x02000d05 ; undefined
     bf0:	052f0304 	ext	z4.b, z4.b, z24.b, #120
     bf4:	0402001a 	.inst	0x0402001a ; undefined
     bf8:	26052e03 	.inst	0x26052e03 ; undefined
     bfc:	03040200 	.inst	0x03040200 ; undefined
     c00:	052e7903 	.inst	0x052e7903 ; undefined
     c04:	04020017 	.inst	0x04020017 ; undefined
     c08:	01054a01 	.inst	0x01054a01 ; undefined
     c0c:	053c0a03 	ext	z3.b, z3.b, z16.b, #226
     c10:	1d054d29 	.inst	0x1d054d29 ; undefined
     c14:	2e35053e 	uhadd	v30.8b, v9.8b, v21.8b
     c18:	052e3f05 	.inst	0x052e3f05 ; undefined
     c1c:	09053c2c 	.inst	0x09053c2c ; undefined
     c20:	220a0520 	.inst	0x220a0520 ; undefined
     c24:	05310905 	ext	z5.b, z5.b, z8.b, #138
     c28:	0d05210b 	.inst	0x0d05210b ; undefined
     c2c:	3b0f0521 	.inst	0x3b0f0521 ; undefined
     c30:	054a1805 	.inst	0x054a1805 ; undefined
     c34:	1d054017 	.inst	0x1d054017 ; undefined
     c38:	20260566 	.inst	0x20260566 ; undefined
     c3c:	053c3505 	.inst	0x053c3505 ; undefined
     c40:	08052e26 	stxrb	w5, w6, [x17]
     c44:	30090520 	adr	x0, 12ce9 <_start-0x6d317>
     c48:	05312505 	.inst	0x05312505 ; undefined
     c4c:	2405660b 	cmplt	p11.b, p1/z, z16.b, z5.d
     c50:	66110530 	.inst	0x66110530 ; undefined
     c54:	052f0705 	ext	z5.b, z5.b, z24.b, #121
     c58:	14052e18 	b	14c4b8 <thread_list+0xc3a98>
     c5c:	2107052e 	.inst	0x2107052e ; undefined
     c60:	052e1805 	ext	z5.b, z5.b, z0.b, #118
     c64:	0c052e14 	.inst	0x0c052e14 ; undefined
     c68:	21010525 	.inst	0x21010525 ; undefined
     c6c:	05301e05 	ext	z5.b, z5.b, z16.b, #135
     c70:	3505301b 	cbnz	w27, b270 <_start-0x74d90>
     c74:	2048053c 	.inst	0x2048053c ; undefined
     c78:	05201b05 	ext	z5.b, z5.b, z24.b, #6
     c7c:	11052e09 	add	w9, w16, #0x14b
     c80:	33200530 	.inst	0x33200530 ; undefined
     c84:	05662605 	.inst	0x05662605 ; undefined
     c88:	12052010 	and	w16, w0, #0xf800000f
     c8c:	3c21052f 	.inst	0x3c21052f ; undefined
     c90:	052e1205 	ext	z5.b, z5.b, z16.b, #116
     c94:	09052010 	.inst	0x09052010 ; undefined
     c98:	2e16052f 	.inst	0x2e16052f ; undefined
     c9c:	052f0905 	ext	z5.b, z5.b, z8.b, #122
     ca0:	01052e16 	.inst	0x01052e16 ; undefined
     ca4:	3e1c0531 	.inst	0x3e1c0531 ; undefined
     ca8:	3d2f0505 	str	b5, [x8, #3009]
     cac:	053d0e05 	ext	z5.b, z5.b, z16.b, #235
     cb0:	28052005 	stnp	w5, w8, [x0, #40]
     cb4:	66150521 	.inst	0x66150521 ; undefined
     cb8:	052f0d05 	ext	z5.b, z5.b, z8.b, #123
     cbc:	1005210f 	adr	x15, b0dc <_start-0x74f24>
     cc0:	16053d21 	b	fffffffff8150144 <_end+0xfffffffff575e9b4>
     cc4:	3c25053a 	.inst	0x3c25053a ; undefined
     cc8:	052e1605 	ext	z5.b, z5.b, z16.b, #117
     ccc:	09052013 	.inst	0x09052013 ; undefined
     cd0:	02040200 	.inst	0x02040200 ; undefined
     cd4:	00290540 	.inst	0x00290540 ; NYI
     cd8:	03020402 	.inst	0x03020402 ; undefined
     cdc:	17058279 	b	fffffffffc1616c0 <_end+0xfffffffff976ff30>
     ce0:	01040200 	.inst	0x01040200 ; undefined
     ce4:	0305053c 	.inst	0x0305053c ; undefined
     ce8:	01053c09 	.inst	0x01053c09 ; undefined
     cec:	3e22053d 	.inst	0x3e22053d ; undefined
     cf0:	053e0805 	ext	z5.b, z5.b, z0.b, #242
     cf4:	054c3d10 	.inst	0x054c3d10 ; undefined
     cf8:	01053d0c 	.inst	0x01053d0c ; undefined
     cfc:	30170521 	adr	x1, 2eda1 <_start-0x5125f>
     d00:	053e1805 	ext	z5.b, z5.b, z0.b, #246
     d04:	51053c3e 	sub	w30, w1, #0x14f
     d08:	20240520 	.inst	0x20240520 ; undefined
     d0c:	05200c05 	ext	z5.b, z5.b, z0.b, #3
     d10:	08052f12 	stxrb	w5, w18, [x24]
     d14:	2f09052e 	ushr	v14.8b, v9.8b, #7
     d18:	05310105 	ext	z5.b, z5.b, z8.b, #136
     d1c:	01051f09 	.inst	0x01051f09 ; undefined
     d20:	3f47052f 	.inst	0x3f47052f ; undefined
     d24:	054d0b05 	.inst	0x054d0b05 ; undefined
     d28:	54053d10 	bc.eq	b4c8 <_start-0x74b38>  // bc.none
     d2c:	0402002e 	.inst	0x0402002e ; undefined
     d30:	052e0601 	ext	z1.b, z1.b, z16.b, #113
     d34:	0402006f 	.inst	0x0402006f ; undefined
     d38:	053c0602 	ext	z2.b, z2.b, z16.b, #225
     d3c:	04020054 	.inst	0x04020054 ; undefined
     d40:	09052e02 	.inst	0x09052e02 ; undefined
     d44:	04040200 	.inst	0x04040200 ; undefined
     d48:	000e0520 	.inst	0x000e0520 ; undefined
     d4c:	23040402 	.inst	0x23040402 ; undefined
     d50:	02000505 	.inst	0x02000505 ; undefined
     d54:	052e0404 	ext	z4.b, z4.b, z0.b, #113
     d58:	15052229 	b	41495fc <_end+0x1757e6c>
     d5c:	2e090566 	.inst	0x2e090566 ; undefined
     d60:	05222105 	mov	z5.h, h8
     d64:	36052e11 	tbz	w17, #0, ffffffffffffb324 <_end+0xfffffffffd609b94>
     d68:	2e460520 	fmaxnmp	v0.4h, v9.4h, v6.4h
     d6c:	052e4105 	zip1	p5.b, p8.b, p14.b
     d70:	28052e3c 	stnp	w28, w11, [x17, #40]
     d74:	22170520 	.inst	0x22170520 ; undefined
     d78:	05201005 	ext	z5.b, z5.b, z0.b, #4
     d7c:	04020033 	.inst	0x04020033 ; undefined
     d80:	26053c01 	.inst	0x26053c01 ; undefined
     d84:	01040200 	.inst	0x01040200 ; undefined
     d88:	3f1a0520 	.inst	0x3f1a0520 ; undefined
     d8c:	053d1305 	ext	z5.b, z5.b, z24.b, #236
     d90:	20052e24 	.inst	0x20052e24 ; undefined
     d94:	2113052e 	.inst	0x2113052e ; undefined
     d98:	052e2405 	.inst	0x052e2405 ; undefined
     d9c:	14052e20 	b	14c61c <thread_list+0xc3bfc>
     da0:	4d220521 	.inst	0x4d220521 ; undefined
     da4:	05201505 	ext	z5.b, z5.b, z8.b, #5
     da8:	04020036 	.inst	0x04020036 ; undefined
     dac:	29053c01 	stp	w1, w15, [x0, #40]
     db0:	01040200 	.inst	0x01040200 ; undefined
     db4:	3d140520 	str	b0, [x9, #1281]
     db8:	054e1305 	.inst	0x054e1305 ; undefined
     dbc:	20052e24 	.inst	0x20052e24 ; undefined
     dc0:	2113052e 	.inst	0x2113052e ; undefined
     dc4:	052e2405 	.inst	0x052e2405 ; undefined
     dc8:	05222e20 	tbx	z0.b, z17.b, z2.b
     dcc:	43053c2f 	.inst	0x43053c2f ; undefined
     dd0:	2e3a052e 	uhadd	v14.8b, v9.8b, v26.8b
     dd4:	052e3505 	.inst	0x052e3505 ; undefined
     dd8:	18052e2c 	ldr	w12, b39c <_start-0x74c64>
     ddc:	2f130520 	ushr	v0.4h, v9.4h, #13
     de0:	052e1805 	ext	z5.b, z5.b, z0.b, #118
     de4:	1c053d20 	ldr	s0, b588 <_start-0x74a78>
     de8:	3018052e 	adr	x14, 30e8d <_start-0x4f173>
     dec:	053e1105 	ext	z5.b, z5.b, z8.b, #244
     df0:	11053c3a 	add	w26, w1, #0x14f
     df4:	37054b3c 	tbnz	w28, #0, ffffffffffffb758 <_end+0xfffffffffd609fc8>
     df8:	3c11053c 	str	b28, [x9], #-240
     dfc:	054c1405 	.inst	0x054c1405 ; undefined
     e00:	0402003c 	.inst	0x0402003c ; undefined
     e04:	2e620301 	uaddl	v1.4s, v24.4h, v2.4h
     e08:	02004c05 	.inst	0x02004c05 ; undefined
     e0c:	053c0104 	ext	z4.b, z4.b, z8.b, #224
     e10:	0402003c 	.inst	0x0402003c ; undefined
     e14:	39052e01 	strb	w1, [x16, #331]
     e18:	01040200 	.inst	0x01040200 ; undefined
     e1c:	00320520 	.inst	0x00320520 ; NYI
     e20:	3a020402 	.inst	0x3a020402 ; undefined
     e24:	02002805 	.inst	0x02002805 ; undefined
     e28:	053c0104 	ext	z4.b, z4.b, z8.b, #224
     e2c:	3c240301 	.inst	0x3c240301 ; undefined
     e30:	01000402 	.inst	0x01000402 ; undefined
     e34:	00050a01 	.inst	0x00050a01 ; undefined
     e38:	08000500 	stxrb	w0, w0, [x8]
     e3c:	00006800 	udf	#26624
     e40:	01010400 	.inst	0x01010400 ; undefined
     e44:	000d0efb 	.inst	0x000d0efb ; undefined
     e48:	01010101 	.inst	0x01010101 ; undefined
     e4c:	01000000 	.inst	0x01000000 ; undefined
     e50:	01010000 	.inst	0x01010000 ; undefined
     e54:	00041f01 	.inst	0x00041f01 ; undefined
     e58:	32000000 	orr	w0, w0, #0x1
     e5c:	a1000000 	.inst	0xa1000000 ; undefined
     e60:	79000000 	strh	w0, [x0]
     e64:	02000000 	.inst	0x02000000 ; undefined
     e68:	0f021f01 	.inst	0x0f021f01 ; undefined
     e6c:	0001180c 	.inst	0x0001180c ; undefined
     e70:	01180100 	.inst	0x01180100 ; undefined
     e74:	ed010000 	.inst	0xed010000 ; undefined
     e78:	02000000 	.inst	0x02000000 ; undefined
     e7c:	00000036 	udf	#54
     e80:	00005a02 	udf	#23042
     e84:	01000200 	.inst	0x01000200 ; undefined
     e88:	b5020000 	cbnz	x0, 4e88 <_start-0x7b178>
     e8c:	03000000 	.inst	0x03000000 ; undefined
     e90:	000000c8 	udf	#200
     e94:	00006002 	udf	#24578
     e98:	00da0200 	.inst	0x00da0200 ; undefined
     e9c:	3d020000 	str	b0, [x0, #128]
     ea0:	02000000 	.inst	0x02000000 ; undefined
     ea4:	00000052 	udf	#82
     ea8:	00220502 	.inst	0x00220502 ; NYI
     eac:	210c0209 	.inst	0x210c0209 ; undefined
     eb0:	00000008 	udf	#8
     eb4:	25030000 	cmpge	p0.b, p0/z, z0.b, #3
     eb8:	401e0501 	.inst	0x401e0501 ; undefined
     ebc:	054d0b05 	.inst	0x054d0b05 ; undefined
     ec0:	0c052215 	.inst	0x0c052215 ; undefined
     ec4:	3d0d0575 	str	b21, [x11, #833]
     ec8:	0c05243d 	.inst	0x0c05243d ; undefined
     ecc:	3421053c 	cbz	w28, 42f70 <_start-0x3d090>
     ed0:	3d3d0d05 	str	b5, [x8, #3907]
     ed4:	05241805 	ext	z5.b, z5.b, z0.b, #38
     ed8:	0d05200c 	.inst	0x0d05200c ; undefined
     edc:	0317052f 	.inst	0x0317052f ; undefined
     ee0:	01054a6a 	.inst	0x01054a6a ; undefined
     ee4:	053c1803 	ext	z3.b, z3.b, z0.b, #230
     ee8:	1a054c34 	.inst	0x1a054c34 ; undefined
     eec:	20052f3d 	.inst	0x20052f3d ; undefined
     ef0:	3c0c0532 	str	b18, [x9], #192
     ef4:	052f2005 	mov	z5.b, z0.b[7]
     ef8:	052f3c0c 	.inst	0x052f3c0c ; undefined
     efc:	11053d17 	add	w23, w8, #0x14f
     f00:	4b0f054b 	sub	w11, w10, w15, lsl #1
     f04:	053d0105 	ext	z5.b, z5.b, z8.b, #232
     f08:	0e05302e 	tbx	v14.8b, {v1.16b, v2.16b}, v5.8b
     f0c:	2005053d 	.inst	0x2005053d ; undefined
     f10:	02000f05 	.inst	0x02000f05 ; undefined
     f14:	05210304 	ext	z4.b, z4.b, z24.b, #8
     f18:	04020013 	.inst	0x04020013 ; undefined
     f1c:	22053c03 	.inst	0x22053c03 ; undefined
     f20:	03040200 	.inst	0x03040200 ; undefined
     f24:	0017051f 	.inst	0x0017051f ; undefined
     f28:	3c010402 	str	b2, [x0], #16
     f2c:	054d0105 	.inst	0x054d0105 ; undefined
     f30:	09054c21 	.inst	0x09054c21 ; undefined
     f34:	2312053d 	.inst	0x2312053d ; undefined
     f38:	05300c05 	ext	z5.b, z5.b, z0.b, #131
     f3c:	19053e13 	.inst	0x19053e13 ; undefined
     f40:	210d053c 	.inst	0x210d053c ; undefined
     f44:	05211305 	ext	z5.b, z5.b, z24.b, #12
     f48:	0402001c 	.inst	0x0402001c ; undefined
     f4c:	17053c01 	b	fffffffffc14ff50 <_end+0xfffffffff975e7c0>
     f50:	4a13053e 	eor	w30, w9, w19, lsl #1
     f54:	052e1b05 	ext	z5.b, z5.b, z24.b, #118
     f58:	10053d13 	adr	x19, b6f8 <_start-0x74908>
     f5c:	3d1b053e 	str	b30, [x9, #1729]
     f60:	054a1705 	.inst	0x054a1705 ; undefined
     f64:	11052e1f 	add	wsp, w16, #0x14b
     f68:	052f2f21 	tbx	z1.b, z25.b, z15.b
     f6c:	0f05400d 	.inst	0x0f05400d ; undefined
     f70:	01040200 	.inst	0x01040200 ; undefined
     f74:	05206c03 	uzp2	z3.b, z0.b, z0.b
     f78:	20170301 	.inst	0x20170301 ; undefined
     f7c:	053e2105 	mov	z5.h, z8.h[7]
     f80:	0b053d08 	add	w8, w8, w5, lsl #15
     f84:	320d053f 	orr	wsp, w9, #0x180000
     f88:	052e0c05 	ext	z5.b, z5.b, z0.b, #115
     f8c:	0d052f13 	.inst	0x0d052f13 ; undefined
     f90:	0c05222f 	.inst	0x0c05222f ; undefined
     f94:	2f15052e 	ushr	v14.4h, v9.4h, #11
     f98:	052f1305 	ext	z5.b, z5.b, z24.b, #124
     f9c:	0f053d0d 	.inst	0x0f053d0d ; undefined
     fa0:	030c0522 	.inst	0x030c0522 ; undefined
     fa4:	09053c77 	.inst	0x09053c77 ; undefined
     fa8:	05200c03 	ext	z3.b, z3.b, z0.b, #3
     fac:	09054a08 	.inst	0x09054a08 ; undefined
     fb0:	3d10052f 	str	b15, [x9, #1025]
     fb4:	054a0f05 	.inst	0x054a0f05 ; undefined
     fb8:	10052f09 	adr	x9, b598 <_start-0x74a68>
     fbc:	4a0f052f 	eor	w15, w9, w15, lsl #1
     fc0:	052f0905 	ext	z5.b, z5.b, z8.b, #122
     fc4:	0f052f10 	.inst	0x0f052f10 ; undefined
     fc8:	2f09054a 	ushr	v10.8b, v10.8b, #7
     fcc:	052f1005 	ext	z5.b, z5.b, z0.b, #124
     fd0:	09054a0f 	.inst	0x09054a0f ; undefined
     fd4:	2f10052f 	ushr	v15.4h, v9.4h, #16
     fd8:	054a0f05 	.inst	0x054a0f05 ; undefined
     fdc:	10052f09 	adr	x9, b5bc <_start-0x74a44>
     fe0:	4a0f052f 	eor	w15, w9, w15, lsl #1
     fe4:	052f0905 	ext	z5.b, z5.b, z8.b, #122
     fe8:	0f053d10 	.inst	0x0f053d10 ; undefined
     fec:	2f09054a 	ushr	v10.8b, v10.8b, #7
     ff0:	053d1005 	ext	z5.b, z5.b, z0.b, #236
     ff4:	09054a0f 	.inst	0x09054a0f ; undefined
     ff8:	2f10052f 	ushr	v15.4h, v9.4h, #16
     ffc:	054a0f05 	.inst	0x054a0f05 ; undefined
    1000:	10052f09 	adr	x9, b5e0 <_start-0x74a20>
    1004:	4a0f054b 	eor	w11, w10, w15, lsl #1
    1008:	052f1505 	ext	z5.b, z5.b, z8.b, #125
    100c:	10053d09 	adr	x9, b7ac <_start-0x74854>
    1010:	4a0f0567 	eor	w7, w11, w15, lsl #1
    1014:	052f0905 	ext	z5.b, z5.b, z8.b, #122
    1018:	0f052f10 	.inst	0x0f052f10 ; undefined
    101c:	2f09054a 	ushr	v10.8b, v10.8b, #7
    1020:	052f1005 	ext	z5.b, z5.b, z0.b, #124
    1024:	09054a0f 	.inst	0x09054a0f ; undefined
    1028:	2f10052f 	ushr	v15.4h, v9.4h, #16
    102c:	054a0f05 	.inst	0x054a0f05 ; undefined
    1030:	03302f09 	.inst	0x03302f09 ; undefined
    1034:	0105584e 	.inst	0x0105584e ; undefined
    1038:	05203403 	.inst	0x05203403 ; undefined
    103c:	0905301d 	.inst	0x0905301d ; undefined
    1040:	3e0d0530 	.inst	0x3e0d0530 ; undefined
    1044:	05210f05 	ext	z5.b, z5.b, z24.b, #11
    1048:	17052116 	b	fffffffffc1494a0 <_end+0xfffffffff9757d10>
    104c:	3c1b052f 	str	b15, [x9], #-80
    1050:	054b1005 	.inst	0x054b1005 ; undefined
    1054:	11053914 	add	w20, w8, #0x14e
    1058:	2213054e 	.inst	0x2213054e ; undefined
    105c:	05200c05 	ext	z5.b, z5.b, z0.b, #3
    1060:	04020027 	.inst	0x04020027 ; undefined
    1064:	1e052e01 	.inst	0x1e052e01 ; undefined
    1068:	01040200 	.inst	0x01040200 ; undefined
    106c:	30120520 	adr	x0, 25111 <_start-0x5aeef>
    1070:	05200905 	ext	z5.b, z5.b, z8.b, #2
    1074:	0402000d 	.inst	0x0402000d ; undefined
    1078:	23052103 	.inst	0x23052103 ; undefined
    107c:	03040200 	.inst	0x03040200 ; undefined
    1080:	001b0549 	.inst	0x001b0549 ; undefined
    1084:	3c010402 	str	b2, [x0], #16
    1088:	2f4d0905 	mla	v5.4h, v8.4h, v13.h[4]
    108c:	70030f05 	adr	x5, 726f <_start-0x78d91>
    1090:	0301052e 	.inst	0x0301052e ; undefined
    1094:	19052012 	stlurb	w18, [x0, #82]
    1098:	2f05053e 	mvni	v30.2s, #0xa9
    109c:	01053d3d 	.inst	0x01053d3d ; undefined
    10a0:	3e21053d 	.inst	0x3e21053d ; undefined
    10a4:	05401e05 	eor	z5.b, z5.b, #0x20
    10a8:	15054d0b 	b	41544d4 <_end+0x1762d44>
    10ac:	750c0522 	.inst	0x750c0522 ; undefined
    10b0:	3d3d0d05 	str	b5, [x8, #3907]
    10b4:	3c0c0523 	str	b3, [x9], #192
    10b8:	592f0d05 	.inst	0x592f0d05 ; undefined
    10bc:	05241805 	ext	z5.b, z5.b, z0.b, #38
    10c0:	0d05200c 	.inst	0x0d05200c ; undefined
    10c4:	0317052f 	.inst	0x0317052f ; undefined
    10c8:	05054a71 	.inst	0x05054a71 ; undefined
    10cc:	053c1203 	ext	z3.b, z3.b, z16.b, #228
    10d0:	13053d01 	sbfx	w1, w8, #5, #11
    10d4:	2f05053e 	mvni	v30.2s, #0xa9
    10d8:	05750105 	ext	z5.b, {z8.b, z9.b}, #168
    10dc:	0e053e14 	umov	w20, v16.b[2]
    10e0:	2005052f 	.inst	0x2005052f ; undefined
    10e4:	02002205 	.inst	0x02002205 ; undefined
    10e8:	05210304 	ext	z4.b, z4.b, z24.b, #8
    10ec:	04020009 	.inst	0x04020009 ; undefined
    10f0:	02005803 	.inst	0x02005803 ; undefined
    10f4:	05210304 	ext	z4.b, z4.b, z24.b, #8
    10f8:	04020022 	.inst	0x04020022 ; undefined
    10fc:	09053d03 	.inst	0x09053d03 ; undefined
    1100:	03040200 	.inst	0x03040200 ; undefined
    1104:	04020066 	.inst	0x04020066 ; undefined
    1108:	27052103 	.inst	0x27052103 ; undefined
    110c:	03040200 	.inst	0x03040200 ; undefined
    1110:	00170538 	.inst	0x00170538 ; undefined
    1114:	3c010402 	str	b2, [x0], #16
    1118:	05420105 	eor	z5.d, z5.d, #0x1ff
    111c:	05054c15 	.inst	0x05054c15 ; undefined
    1120:	3d01052f 	str	b15, [x9, #65]
    1124:	053e1405 	ext	z5.b, z5.b, z0.b, #245
    1128:	3d4b300b 	ldr	b11, [x0, #716]
    112c:	3d3d4b59 	str	b25, [x26, #3922]
    1130:	3e09053d 	.inst	0x3e09053d ; undefined
    1134:	05580805 	mov	z5.h, p8/z, #64
    1138:	15052f09 	b	414cd5c <_end+0x175b5cc>
    113c:	3c09053d 	str	b29, [x9], #144
    1140:	05211505 	ext	z5.b, z5.b, z8.b, #13
    1144:	05213c09 	.inst	0x05213c09 ; undefined
    1148:	3d4b3f0b 	ldr	b11, [x24, #719]
    114c:	3d3d4b59 	str	b25, [x26, #3922]
    1150:	3e09053d 	.inst	0x3e09053d ; undefined
    1154:	05580805 	mov	z5.h, p8/z, #64
    1158:	15052f09 	b	414cd7c <_end+0x175b5ec>
    115c:	3c09053d 	str	b29, [x9], #144
    1160:	15053d21 	b	41505e4 <_end+0x175ee54>
    1164:	3c09053d 	str	b29, [x9], #144
    1168:	3e010521 	.inst	0x3e010521 ; undefined
    116c:	053e1d05 	ext	z5.b, z5.b, z8.b, #247
    1170:	05052f13 	.inst	0x05052f13 ; undefined
    1174:	1305593d 	sbfx	w29, w9, #5, #18
    1178:	3d05054c 	str	b12, [x10, #321]
    117c:	4c130559 	.inst	0x4c130559 ; undefined
    1180:	593d0505 	.inst	0x593d0505 ; undefined
    1184:	054b0105 	.inst	0x054b0105 ; undefined
    1188:	1e053e1b 	.inst	0x1e053e1b ; undefined
    118c:	4c0b0540 	.inst	0x4c0b0540 ; undefined
    1190:	05211505 	ext	z5.b, z5.b, z8.b, #13
    1194:	0d05750c 	.inst	0x0d05750c ; undefined
    1198:	18053d3d 	ldr	w29, b93c <_start-0x746c4>
    119c:	200c0523 	.inst	0x200c0523 ; undefined
    11a0:	052f0d05 	ext	z5.b, z5.b, z8.b, #123
    11a4:	58780317 	ldr	x23, f1204 <thread_list+0x687e4>
    11a8:	0b030105 	add	w5, w8, w3
    11ac:	4c16053c 	.inst	0x4c16053c ; undefined
    11b0:	052f0505 	ext	z5.b, z5.b, z8.b, #121
    11b4:	0f053d1c 	.inst	0x0f053d1c ; undefined
    11b8:	4b1c053d 	sub	w29, w9, w28, lsl #1
    11bc:	053d0f05 	ext	z5.b, z5.b, z24.b, #235
    11c0:	23054b01 	.inst	0x23054b01 ; undefined
    11c4:	3f05053e 	.inst	0x3f05053e ; undefined
    11c8:	2b052f2f 	adds	w15, w25, w5, lsl #11
    11cc:	20290584 	.inst	0x20290584 ; undefined
    11d0:	05200505 	ext	z5.b, z5.b, z8.b, #1
    11d4:	2a055901 	orr	w1, w8, w5, lsl #22
    11d8:	5929053e 	.inst	0x5929053e ; undefined
    11dc:	05202b05 	tbl	z5.b, {z24.b, z25.b}, z0.b
    11e0:	05052029 	.inst	0x05052029 ; undefined
    11e4:	59010520 	.inst	0x59010520 ; undefined
    11e8:	054c1805 	.inst	0x054c1805 ; undefined
    11ec:	3d4b2f10 	ldr	b16, [x24, #715]
    11f0:	3d05053d 	str	b29, [x9, #321]
    11f4:	052f2f2f 	tbx	z15.b, z25.b, z15.b
    11f8:	3d3d2f0f 	str	b15, [x24, #3915]
    11fc:	2f3e0505 	ushr	v5.2s, v8.2s, #2
    1200:	3009052f 	adr	x15, 132a5 <_start-0x6cd5b>
    1204:	053d1005 	ext	z5.b, z5.b, z0.b, #236
    1208:	10053d09 	adr	x9, b9a8 <_start-0x74658>
    120c:	3d09053d 	str	b29, [x9, #577]
    1210:	053d1005 	ext	z5.b, z5.b, z0.b, #236
    1214:	10053d0f 	adr	x15, b9b4 <_start-0x7464c>
    1218:	3d0f053d 	str	b29, [x9, #961]
    121c:	053d1005 	ext	z5.b, z5.b, z0.b, #236
    1220:	10053e0f 	adr	x15, b9e0 <_start-0x74620>
    1224:	3d0f053d 	str	b29, [x9, #961]
    1228:	053d1005 	ext	z5.b, z5.b, z0.b, #236
    122c:	10053d0f 	adr	x15, b9cc <_start-0x74634>
    1230:	3e05053d 	.inst	0x3e05053d ; undefined
    1234:	2f2f2f2f 	.inst	0x2f2f2f2f ; undefined
    1238:	2f2f2f2f 	.inst	0x2f2f2f2f ; undefined
    123c:	2f2f302f 	.inst	0x2f2f302f ; undefined
    1240:	052f2f2f 	tbx	z15.b, z25.b, z15.b
    1244:	1b052f01 	madd	w1, w24, w5, w11
    1248:	2f0e053e 	ushr	v30.8b, v9.8b, #2
    124c:	05200505 	ext	z5.b, z5.b, z8.b, #1
    1250:	04020028 	.inst	0x04020028 ; undefined
    1254:	09052103 	.inst	0x09052103 ; undefined
    1258:	03040200 	.inst	0x03040200 ; undefined
    125c:	001d053c 	.inst	0x001d053c ; undefined
    1260:	57030402 	.inst	0x57030402 ; undefined
    1264:	02001705 	.inst	0x02001705 ; undefined
    1268:	053c0104 	ext	z4.b, z4.b, z8.b, #224
    126c:	01054005 	.inst	0x01054005 ; undefined
    1270:	3e1c0521 	.inst	0x3e1c0521 ; undefined
    1274:	3d2f0505 	str	b5, [x8, #3009]
    1278:	05210105 	ext	z5.b, z5.b, z8.b, #8
    127c:	09053e13 	.inst	0x09053e13 ; undefined
    1280:	21050521 	.inst	0x21050521 ; undefined
    1284:	0c052121 	.inst	0x0c052121 ; undefined
    1288:	2101052f 	.inst	0x2101052f ; undefined
    128c:	05302f05 	tbx	z5.b, z24.b, z16.b
    1290:	05053d09 	.inst	0x05053d09 ; undefined
    1294:	212f2f21 	.inst	0x212f2f21 ; undefined
    1298:	2f0c0521 	ushr	v1.8b, v9.8b, #4
    129c:	05210105 	ext	z5.b, z5.b, z8.b, #8
    12a0:	09053036 	.inst	0x09053036 ; undefined
    12a4:	2105053d 	.inst	0x2105053d ; undefined
    12a8:	21212f2f 	.inst	0x21212f2f ; undefined
    12ac:	052f0c05 	ext	z5.b, z5.b, z0.b, #123
    12b0:	11052101 	add	w1, w8, #0x148
    12b4:	21090530 	.inst	0x21090530 ; undefined
    12b8:	21210505 	.inst	0x21210505 ; undefined
    12bc:	2f0c0521 	ushr	v1.8b, v9.8b, #4
    12c0:	05210105 	ext	z5.b, z5.b, z8.b, #8
    12c4:	05053012 	.inst	0x05053012 ; undefined
    12c8:	01052113 	.inst	0x01052113 ; undefined
    12cc:	303a0521 	adr	x1, 75371 <_start-0xac8f>
    12d0:	053d0905 	ext	z5.b, z5.b, z8.b, #234
    12d4:	2f2f2105 	.inst	0x2f2f2105 ; undefined
    12d8:	0c052121 	.inst	0x0c052121 ; undefined
    12dc:	2101052f 	.inst	0x2101052f ; undefined
    12e0:	05301905 	ext	z5.b, z5.b, z8.b, #134
    12e4:	212f2f05 	.inst	0x212f2f05 ; undefined
    12e8:	05210105 	ext	z5.b, z5.b, z8.b, #8
    12ec:	05053f12 	.inst	0x05053f12 ; undefined
    12f0:	3d3d3230 	str	b16, [x17, #3916]
    12f4:	5909053f 	.inst	0x5909053f ; undefined
    12f8:	2f10052f 	ushr	v15.4h, v9.4h, #16
    12fc:	052e0805 	ext	z5.b, z5.b, z0.b, #114
    1300:	ad2f3e09 	stp	q9, q15, [x16, #-544]
    1304:	053e1405 	ext	z5.b, z5.b, z0.b, #245
    1308:	0d052e0c 	.inst	0x0d052e0c ; undefined
    130c:	11052f3d 	add	w29, w25, #0x14b
    1310:	1a052fbd 	.inst	0x1a052fbd ; undefined
    1314:	201105ad 	.inst	0x201105ad ; undefined
    1318:	02001505 	.inst	0x02001505 ; undefined
    131c:	05210304 	ext	z4.b, z4.b, z24.b, #8
    1320:	0402002f 	.inst	0x0402002f ; undefined
    1324:	23051f03 	.inst	0x23051f03 ; undefined
    1328:	01040200 	.inst	0x01040200 ; undefined
    132c:	5a11053c 	.inst	0x5a11053c ; undefined
    1330:	05371805 	ext	z5.b, z5.b, z0.b, #190
    1334:	4a090309 	eor	w9, w24, w9
    1338:	05680505 	ext	z5.b, {z8.b, z9.b}, #65
    133c:	03022501 	.inst	0x03022501 ; undefined
    1340:	0b010100 	add	w0, w8, w1
    1344:	05000001 	orr	z1.s, z1.s, #0x1
    1348:	46000800 	.inst	0x46000800 ; undefined
    134c:	04000000 	add	z0.b, p0/m, z0.b, z0.b
    1350:	0efb0101 	.inst	0x0efb0101 ; undefined
    1354:	0101000d 	.inst	0x0101000d ; undefined
    1358:	00000101 	udf	#257
    135c:	00000100 	udf	#256
    1360:	1f010101 	fmadd	s1, s8, s1, s0
    1364:	00000003 	udf	#3
    1368:	00003200 	udf	#12800
    136c:	0000a100 	udf	#41216
    1370:	1f010200 	fmadd	s0, s16, s1, s0
    1374:	24060f02 	cmphs	p2.b, p3/z, z24.b, z6.b
    1378:	01000001 	.inst	0x01000001 ; undefined
    137c:	00000124 	udf	#292
    1380:	0000be01 	udf	#48641
    1384:	00c80200 	.inst	0x00c80200 ; undefined
    1388:	a9020000 	stp	x0, x0, [x0, #32]
    138c:	02000000 	.inst	0x02000000 ; undefined
    1390:	00000060 	udf	#96
    1394:	001f0502 	.inst	0x001f0502 ; undefined
    1398:	31d00209 	.inst	0x31d00209 ; undefined
    139c:	00000008 	udf	#8
    13a0:	051a0000 	mov	z0.b, p10/z, #0
    13a4:	05052f0d 	.inst	0x05052f0d ; undefined
    13a8:	4b010520 	sub	w0, w9, w1, lsl #1
    13ac:	053e2405 	.inst	0x053e2405 ; undefined
    13b0:	16053e09 	b	fffffffff8150bd4 <_end+0xfffffffff575f444>
    13b4:	20080520 	.inst	0x20080520 ; undefined
    13b8:	21300505 	.inst	0x21300505 ; undefined
    13bc:	052e2505 	.inst	0x052e2505 ; undefined
    13c0:	0e052f05 	smov	w5, v24.b[2]
    13c4:	20050522 	.inst	0x20050522 ; undefined
    13c8:	05211805 	ext	z5.b, z5.b, z0.b, #14
    13cc:	0d052009 	.inst	0x0d052009 ; undefined
    13d0:	2e24052f 	uhadd	v15.8b, v9.8b, v4.8b
    13d4:	05580c05 	mov	z5.h, p8/z, #96
    13d8:	05212f0d 	tbx	z13.b, z24.b, z1.b
    13dc:	27052024 	.inst	0x27052024 ; undefined
    13e0:	670d0558 	.inst	0x670d0558 ; undefined
    13e4:	00270521 	.inst	0x00270521 ; NYI
    13e8:	03020402 	.inst	0x03020402 ; undefined
    13ec:	17053c7a 	b	fffffffffc1505d4 <_end+0xfffffffff975ee44>
    13f0:	01040200 	.inst	0x01040200 ; undefined
    13f4:	0305053c 	.inst	0x0305053c ; undefined
    13f8:	05213c0a 	.inst	0x05213c0a ; undefined
    13fc:	05052025 	.inst	0x05052025 ; undefined
    1400:	03090521 	.inst	0x03090521 ; undefined
    1404:	01052e6f 	.inst	0x01052e6f ; undefined
    1408:	05201203 	ext	z3.b, z3.b, z16.b, #4
    140c:	2a05302b 	orr	w11, w1, w5, lsl #12
    1410:	2e050559 	.inst	0x2e050559 ; undefined
    1414:	052e4705 	.inst	0x052e4705 ; undefined
    1418:	09053c28 	.inst	0x09053c28 ; undefined
    141c:	20160523 	.inst	0x20160523 ; undefined
    1420:	05200805 	ext	z5.b, z5.b, z0.b, #2
    1424:	05214b09 	.inst	0x05214b09 ; undefined
    1428:	0505241f 	.inst	0x0505241f ; undefined
    142c:	3d3b053d 	str	b29, [x9, #3777]
    1430:	052e0505 	ext	z5.b, z5.b, z8.b, #113
    1434:	0505212e 	.inst	0x0505212e ; undefined
    1438:	0105212e 	.inst	0x0105212e ; undefined
    143c:	3e1f0521 	.inst	0x3e1f0521 ; undefined
    1440:	052f0605 	ext	z5.b, z5.b, z16.b, #121
    1444:	05052013 	.inst	0x05052013 ; undefined
    1448:	01052130 	.inst	0x01052130 ; undefined
    144c:	00030221 	.inst	0x00030221 ; undefined
    1450:	034f0101 	.inst	0x034f0101 ; undefined
    1454:	00050000 	.inst	0x00050000 ; undefined
    1458:	00680008 	.inst	0x00680008 ; undefined
    145c:	01040000 	.inst	0x01040000 ; undefined
    1460:	0d0efb01 	.inst	0x0d0efb01 ; undefined
    1464:	01010100 	.inst	0x01010100 ; undefined
    1468:	00000001 	udf	#1
    146c:	01000001 	.inst	0x01000001 ; undefined
    1470:	041f0101 	.inst	0x041f0101 ; undefined
    1474:	00000000 	udf	#0
    1478:	00000032 	udf	#50
    147c:	000000a1 	udf	#161
    1480:	00000079 	udf	#121
    1484:	021f0102 	.inst	0x021f0102 ; undefined
    1488:	01310c0f 	.inst	0x01310c0f ; undefined
    148c:	31010000 	adds	w0, w0, #0x40
    1490:	01000001 	.inst	0x01000001 ; undefined
    1494:	000000be 	udf	#190
    1498:	0000b502 	udf	#46338
    149c:	00360300 	.inst	0x00360300 ; NYI
    14a0:	00020000 	.inst	0x00020000 ; undefined
    14a4:	02000001 	.inst	0x02000001 ; undefined
    14a8:	000000c8 	udf	#200
    14ac:	00003d02 	udf	#15618
    14b0:	00520200 	.inst	0x00520200 ; undefined
    14b4:	60020000 	.inst	0x60020000 ; undefined
    14b8:	02000000 	.inst	0x02000000 ; undefined
    14bc:	000000a9 	udf	#169
    14c0:	0000d102 	udf	#53506
    14c4:	1d050200 	.inst	0x1d050200 ; undefined
    14c8:	9c020900 	ldr	q0, 55e8 <_start-0x7aa18>
    14cc:	00000833 	udf	#2099
    14d0:	03000000 	.inst	0x03000000 ; undefined
    14d4:	0f05011c 	.inst	0x0f05011c ; undefined
    14d8:	201c053d 	.inst	0x201c053d ; undefined
    14dc:	052e0d05 	ext	z5.b, z5.b, z8.b, #115
    14e0:	19052f0c 	.inst	0x19052f0c ; undefined
    14e4:	21010520 	.inst	0x21010520 ; undefined
    14e8:	05313c05 	.inst	0x05313c05 ; undefined
    14ec:	0b056709 	add	w9, w24, w5, lsl #25
    14f0:	210e0521 	.inst	0x210e0521 ; undefined
    14f4:	054a0c05 	.inst	0x054a0c05 ; undefined
    14f8:	12052e14 	and	w20, w16, #0xf800007f
    14fc:	1f0e052e 	fmadd	s14, s9, s14, s1
    1500:	054c0d05 	.inst	0x054c0d05 ; undefined
    1504:	01053d0c 	.inst	0x01053d0c ; undefined
    1508:	3f430521 	.inst	0x3f430521 ; undefined
    150c:	05590905 	mov	z5.h, p9/z, #72
    1510:	1e05210b 	.inst	0x1e05210b ; undefined
    1514:	4a1c0521 	eor	w1, w9, w28, lsl #1
    1518:	052e0905 	ext	z5.b, z5.b, z8.b, #114
    151c:	0d052d0e 	.inst	0x0d052d0e ; undefined
    1520:	3d0c054c 	str	b12, [x10, #769]
    1524:	05210105 	ext	z5.b, z5.b, z8.b, #8
    1528:	1a053141 	.inst	0x1a053141 ; undefined
    152c:	2f1c0567 	ushr	v7.4h, v11.4h, #4
    1530:	053c1a05 	ext	z5.b, z5.b, z16.b, #230
    1534:	1e052f16 	.inst	0x1e052f16 ; undefined
    1538:	3c46052e 	ldr	b14, [x9], #96
    153c:	052e0505 	ext	z5.b, z5.b, z8.b, #113
    1540:	05054d0e 	.inst	0x05054d0e ; undefined
    1544:	00270520 	.inst	0x00270520 ; NYI
    1548:	21030402 	.inst	0x21030402 ; undefined
    154c:	03040200 	.inst	0x03040200 ; undefined
    1550:	00170565 	.inst	0x00170565 ; undefined
    1554:	3c010402 	str	b2, [x0], #16
    1558:	053f2d05 	tbx	z5.b, z8.b, z31.b
    155c:	12052e14 	and	w20, w16, #0xf800007f
    1560:	2f2c0520 	ushr	v0.2s, v9.2s, #20
    1564:	052e3d05 	.inst	0x052e3d05 ; undefined
    1568:	0d052011 	.inst	0x0d052011 ; undefined
    156c:	2f0c052f 	ushr	v15.8b, v9.8b, #4
    1570:	05210105 	ext	z5.b, z5.b, z8.b, #8
    1574:	05053f1b 	.inst	0x05053f1b ; undefined
    1578:	2223053d 	.inst	0x2223053d ; undefined
    157c:	05203005 	tbl	z5.b, {z0.b}, z0.b
    1580:	16052015 	b	fffffffff81495d4 <_end+0xfffffffff5757e44>
    1584:	2f09052f 	ushr	v15.8b, v9.8b, #7
    1588:	053d1d05 	ext	z5.b, z5.b, z8.b, #239
    158c:	11052e15 	add	w21, w16, #0x14b
    1590:	2e29052f 	uhadd	v15.8b, v9.8b, v9.8b
    1594:	052e0505 	ext	z5.b, z5.b, z8.b, #113
    1598:	2b054b11 	adds	w17, w24, w5, lsl #18
    159c:	2e05052e 	.inst	0x2e05052e ; undefined
    15a0:	054d0e05 	.inst	0x054d0e05 ; undefined
    15a4:	3a052005 	.inst	0x3a052005 ; undefined
    15a8:	03040200 	.inst	0x03040200 ; undefined
    15ac:	00220521 	.inst	0x00220521 ; NYI
    15b0:	4a030402 	eor	w2, w0, w3, lsl #1
    15b4:	02002705 	.inst	0x02002705 ; undefined
    15b8:	05490304 	.inst	0x05490304 ; undefined
    15bc:	04020017 	.inst	0x04020017 ; undefined
    15c0:	25053c01 	cmplt	p1.b, p7/z, z0.b, #5
    15c4:	20050540 	.inst	0x20050540 ; undefined
    15c8:	05230905 	ext	z5.b, z5.b, z8.b, #26
    15cc:	08052016 	stxrb	w5, w22, [x0]
    15d0:	3e320520 	.inst	0x3e320520 ; undefined
    15d4:	052e4d05 	uzp2	p5.b, p8.b, p14.b
    15d8:	0d052e45 	.inst	0x0d052e45 ; undefined
    15dc:	3e15052e 	.inst	0x3e15052e ; undefined
    15e0:	052e1d05 	ext	z5.b, z5.b, z8.b, #119
    15e4:	2e052e36 	.inst	0x2e052e36 ; undefined
    15e8:	2015052e 	.inst	0x2015052e ; undefined
    15ec:	053d1105 	ext	z5.b, z5.b, z8.b, #236
    15f0:	10052f09 	adr	x9, bbd0 <_start-0x74430>
    15f4:	32160521 	orr	w1, w9, #0xc00
    15f8:	052e1405 	ext	z5.b, z5.b, z0.b, #117
    15fc:	2105e63b 	.inst	0x2105e63b ; undefined
    1600:	206c052e 	.inst	0x206c052e ; undefined
    1604:	052e1805 	ext	z5.b, z5.b, z0.b, #118
    1608:	05672f17 	tbx	z23.h, z24.h, z7.h
    160c:	0d056814 	.inst	0x0d056814 ; undefined
    1610:	2f05053c 	mvni	v28.2s, #0xa9
    1614:	05211105 	ext	z5.b, z5.b, z8.b, #12
    1618:	28052f01 	stnp	w1, w11, [x24, #40]
    161c:	4b050530 	sub	w16, w9, w5, lsl #1
    1620:	05210105 	ext	z5.b, z5.b, z8.b, #8
    1624:	3c090346 	stur	b6, [x26, #144]
    1628:	05590505 	mov	z5.h, p9/z, #40
    162c:	3905212b 	strb	w11, [x9, #328]
    1630:	2e12052e 	.inst	0x2e12052e ; undefined
    1634:	05300b05 	ext	z5.b, z5.b, z24.b, #130
    1638:	0402000c 	.inst	0x0402000c ; undefined
    163c:	05052001 	.inst	0x05052001 ; undefined
    1640:	2e11055a 	.inst	0x2e11055a ; undefined
    1644:	02000f05 	.inst	0x02000f05 ; undefined
    1648:	05310104 	ext	z4.b, z4.b, z8.b, #136
    164c:	04020010 	.inst	0x04020010 ; undefined
    1650:	1d052001 	.inst	0x1d052001 ; undefined
    1654:	01040200 	.inst	0x01040200 ; undefined
    1658:	0010053c 	.inst	0x0010053c ; undefined
    165c:	20010402 	.inst	0x20010402 ; undefined
    1660:	05301205 	ext	z5.b, z5.b, z16.b, #132
    1664:	1c053c0c 	ldr	s12, bde4 <_start-0x7421c>
    1668:	3c20053d 	.inst	0x3c20053d ; undefined
    166c:	05581505 	mov	z5.h, p8/z, #-88
    1670:	18052f0d 	ldr	w13, bc50 <_start-0x743b0>
    1674:	3c1c0521 	str	b1, [x9], #-64
    1678:	05500105 	mov	z5.h, p0/z, #8
    167c:	08053025 	stxrb	w5, w5, [x1]
    1680:	0011054b 	.inst	0x0011054b ; undefined
    1684:	3c010402 	str	b2, [x0], #16
    1688:	02003605 	.inst	0x02003605 ; undefined
    168c:	054a0204 	.inst	0x054a0204 ; undefined
    1690:	04020022 	.inst	0x04020022 ; undefined
    1694:	0505ac02 	.inst	0x0505ac02 ; undefined
    1698:	211f0530 	.inst	0x211f0530 ; undefined
    169c:	21bb0505 	.inst	0x21bb0505 ; undefined
    16a0:	052a0905 	ext	z5.b, z5.b, z8.b, #82
    16a4:	35052501 	cbnz	w1, bb44 <_start-0x744bc>
    16a8:	4b080531 	sub	w17, w9, w8, lsl #1
    16ac:	02001405 	.inst	0x02001405 ; undefined
    16b0:	053c0104 	ext	z4.b, z4.b, z8.b, #224
    16b4:	2b053e05 	adds	w5, w16, w5, lsl #15
    16b8:	5709052e 	.inst	0x5709052e ; undefined
    16bc:	05220105 	ext	z5.b, z5.b, z8.b, #16
    16c0:	08053027 	stxrb	w5, w7, [x1]
    16c4:	0011054b 	.inst	0x0011054b ; undefined
    16c8:	3c010402 	str	b2, [x0], #16
    16cc:	02003605 	.inst	0x02003605 ; undefined
    16d0:	054a0204 	.inst	0x054a0204 ; undefined
    16d4:	04020022 	.inst	0x04020022 ; undefined
    16d8:	0505ac02 	.inst	0x0505ac02 ; undefined
    16dc:	211f0530 	.inst	0x211f0530 ; undefined
    16e0:	05bb0505 	zip2	z5.q, z8.q, z27.q
    16e4:	01052b09 	.inst	0x01052b09 ; undefined
    16e8:	30250524 	adr	x4, 4b78d <_start-0x34873>
    16ec:	053e2f05 	tbx	z5.b, z24.b, z30.b
    16f0:	67052e38 	.inst	0x67052e38 ; undefined
    16f4:	00500520 	.inst	0x00500520 ; undefined
    16f8:	2e010402 	.inst	0x2e010402 ; undefined
    16fc:	02006705 	.inst	0x02006705 ; undefined
    1700:	052e0104 	ext	z4.b, z4.b, z8.b, #112
    1704:	0402006c 	.inst	0x0402006c ; undefined
    1708:	67052e02 	.inst	0x67052e02 ; undefined
    170c:	02040200 	.inst	0x02040200 ; undefined
    1710:	0018052e 	.inst	0x0018052e ; undefined
    1714:	20040402 	.inst	0x20040402 ; undefined
    1718:	02000505 	.inst	0x02000505 ; undefined
    171c:	05210404 	ext	z4.b, z4.b, z0.b, #9
    1720:	04020013 	.inst	0x04020013 ; undefined
    1724:	05053104 	.inst	0x05053104 ; undefined
    1728:	04040200 	.inst	0x04040200 ; undefined
    172c:	00010520 	.inst	0x00010520 ; undefined
    1730:	2f040402 	mvni	v2.2s, #0x80
    1734:	053f2805 	tbl	z5.b, {z0.b, z1.b}, z31.b
    1738:	0b053f1e 	add	w30, w24, w5, lsl #15
    173c:	2115054d 	.inst	0x2115054d ; undefined
    1740:	05750c05 	ext	z5.b, {z0.b, z1.b}, #171
    1744:	14053d0d 	b	150b78 <thread_list+0xc8158>
    1748:	300d053d 	adr	x29, 1b7ed <_start-0x64813>
    174c:	053c0c05 	ext	z5.b, z5.b, z0.b, #227
    1750:	12052f14 	and	w20, w24, #0xf800007f
    1754:	200c0531 	.inst	0x200c0531 ; undefined
    1758:	052f0d05 	ext	z5.b, z5.b, z8.b, #123
    175c:	4a750311 	eon	w17, w24, w21, lsr #0
    1760:	0d030c05 	.inst	0x0d030c05 ; undefined
    1764:	0001053c 	.inst	0x0001053c ; undefined
    1768:	21010402 	.inst	0x21010402 ; undefined
    176c:	05302205 	mov	z5.q, q16
    1770:	0b053f1e 	add	w30, w24, w5, lsl #15
    1774:	2115054d 	.inst	0x2115054d ; undefined
    1778:	05750c05 	ext	z5.b, {z0.b, z1.b}, #171
    177c:	223d3d0d 	.inst	0x223d3d0d ; undefined
    1780:	053c0c05 	ext	z5.b, z5.b, z0.b, #227
    1784:	12052f14 	and	w20, w24, #0xf800007f
    1788:	200c0531 	.inst	0x200c0531 ; undefined
    178c:	052f0d05 	ext	z5.b, z5.b, z8.b, #123
    1790:	4a750311 	eon	w17, w24, w21, lsr #0
    1794:	0d030c05 	.inst	0x0d030c05 ; undefined
    1798:	0001053c 	.inst	0x0001053c ; undefined
    179c:	21010402 	.inst	0x21010402 ; undefined
    17a0:	01000202 	.inst	0x01000202 ; undefined
    17a4:	00029301 	.inst	0x00029301 ; undefined
    17a8:	08000500 	stxrb	w0, w0, [x8]
    17ac:	00005500 	udf	#21760
    17b0:	01010400 	.inst	0x01010400 ; undefined
    17b4:	000d0efb 	.inst	0x000d0efb ; undefined
    17b8:	01010101 	.inst	0x01010101 ; undefined
    17bc:	01000000 	.inst	0x01000000 ; undefined
    17c0:	01010000 	.inst	0x01010000 ; undefined
    17c4:	00031f01 	.inst	0x00031f01 ; undefined
    17c8:	32000000 	orr	w0, w0, #0x1
    17cc:	a1000000 	.inst	0xa1000000 ; undefined
    17d0:	02000000 	.inst	0x02000000 ; undefined
    17d4:	0f021f01 	.inst	0x0f021f01 ; undefined
    17d8:	00013f09 	.inst	0x00013f09 ; undefined
    17dc:	013f0100 	.inst	0x013f0100 ; undefined
    17e0:	c8010000 	stxr	w1, x0, [x0]
    17e4:	02000000 	.inst	0x02000000 ; undefined
    17e8:	000000da 	udf	#218
    17ec:	00005202 	udf	#20994
    17f0:	003d0200 	.inst	0x003d0200 ; NYI
    17f4:	60020000 	.inst	0x60020000 ; undefined
    17f8:	02000000 	.inst	0x02000000 ; undefined
    17fc:	000000d1 	udf	#209
    1800:	0000a902 	udf	#43266
    1804:	14050200 	b	142004 <thread_list+0xb95e4>
    1808:	c4020900 	ld1sb	{z0.d}, p2/z, [x8, z2.d, uxtw]
    180c:	0000083b 	udf	#2107
    1810:	03000000 	.inst	0x03000000 ; undefined
    1814:	0505010d 	.inst	0x0505010d ; undefined
    1818:	2211052f 	.inst	0x2211052f ; undefined
    181c:	053c0f05 	ext	z5.b, z5.b, z24.b, #227
    1820:	15053d0e 	b	4150c58 <_end+0x175f4c8>
    1824:	4b0e053c 	sub	w28, w9, w14, lsl #1
    1828:	053c1505 	ext	z5.b, z5.b, z8.b, #229
    182c:	14054b0e 	b	154464 <thread_list+0xcba44>
    1830:	300e053c 	adr	x28, 1d8d5 <_start-0x6272b>
    1834:	05200505 	ext	z5.b, z5.b, z8.b, #1
    1838:	0402001f 	.inst	0x0402001f ; undefined
    183c:	21052103 	.inst	0x21052103 ; undefined
    1840:	03040200 	.inst	0x03040200 ; undefined
    1844:	001c05ad 	.inst	0x001c05ad ; undefined
    1848:	ad030402 	stp	q2, q1, [x0, #96]
    184c:	02002405 	.inst	0x02002405 ; undefined
    1850:	05b70304 	zip1	z4.q, z24.q, z23.q
    1854:	04020017 	.inst	0x04020017 ; undefined
    1858:	1a053c01 	.inst	0x1a053c01 ; undefined
    185c:	4b050550 	sub	w16, w10, w5, lsl #1
    1860:	21010530 	.inst	0x21010530 ; undefined
    1864:	053e3205 	tbl	z5.b, {z16.b}, z30.b
    1868:	11053d05 	add	w5, w8, #0x14f
    186c:	3c080522 	str	b2, [x9], #128
    1870:	053d1005 	ext	z5.b, z5.b, z0.b, #236
    1874:	0805321e 	stxrb	w5, w30, [x16]
    1878:	2f2a05d6 	ushr	v22.2s, v14.2s, #22
    187c:	05741405 	ext	z5.b, {z0.b, z1.b}, #165
    1880:	1805b11a 	ldr	w26, cea0 <_start-0x73160>
    1884:	3d22052f 	str	b15, [x9, #2177]
    1888:	053c2005 	mov	z5.s, z0.s[3]
    188c:	22053024 	.inst	0x22053024 ; undefined
    1890:	301e053c 	adr	x28, 3d935 <_start-0x426cb>
    1894:	05201c05 	ext	z5.b, z5.b, z0.b, #7
    1898:	48053037 	stxrh	w5, w23, [x1]
    189c:	201c052e 	.inst	0x201c052e ; undefined
    18a0:	052f3105 	tbl	z5.b, {z8.b}, z15.b
    18a4:	22052e1c 	.inst	0x22052e1c ; undefined
    18a8:	2f0e0531 	ushr	v17.8b, v9.8b, #2
    18ac:	05200505 	ext	z5.b, z5.b, z8.b, #1
    18b0:	20700310 	.inst	0x20700310 ; undefined
    18b4:	02002105 	.inst	0x02002105 ; undefined
    18b8:	11030304 	add	w4, w24, #0xc0
    18bc:	0027052e 	.inst	0x0027052e ; NYI
    18c0:	67030402 	.inst	0x67030402 ; undefined
    18c4:	03040200 	.inst	0x03040200 ; undefined
    18c8:	00170564 	.inst	0x00170564 ; undefined
    18cc:	3c010402 	str	b2, [x0], #16
    18d0:	05422105 	eor	z5.d, z5.d, #0xf00000000000001f
    18d4:	052f4a16 	.inst	0x052f4a16 ; undefined
    18d8:	1c05590f 	ldr	s15, c3f8 <_start-0x73c08>
    18dc:	2f0f052e 	ushr	v14.8b, v9.8b, #1
    18e0:	052e1c05 	ext	z5.b, z5.b, z0.b, #119
    18e4:	0c053005 	.inst	0x0c053005 ; undefined
    18e8:	21010521 	.inst	0x21010521 ; undefined
    18ec:	05302105 	mov	z5.q, q8
    18f0:	05052f2c 	.inst	0x05052f2c ; undefined
    18f4:	05212120 	mov	z0.b, b9
    18f8:	05052f33 	.inst	0x05052f33 ; undefined
    18fc:	2126052e 	.inst	0x2126052e ; undefined
    1900:	052e3905 	.inst	0x052e3905 ; undefined
    1904:	05212005 	mov	z5.b, b0
    1908:	11052101 	add	w1, w8, #0x148
    190c:	2f05053f 	mvni	v31.2s, #0xa9
    1910:	05221a05 	ext	z5.b, z5.b, z16.b, #22
    1914:	04020014 	.inst	0x04020014 ; undefined
    1918:	19053001 	stlurb	w1, [x0, #83]
    191c:	01040200 	.inst	0x01040200 ; undefined
    1920:	6705053d 	.inst	0x6705053d ; undefined
    1924:	05240f05 	ext	z5.b, z5.b, z24.b, #35
    1928:	01052005 	.inst	0x01052005 ; undefined
    192c:	3e0d052f 	.inst	0x3e0d052f ; undefined
    1930:	02000905 	.inst	0x02000905 ; undefined
    1934:	00300104 	.inst	0x00300104 ; NYI
    1938:	21010402 	.inst	0x21010402 ; undefined
    193c:	01040200 	.inst	0x01040200 ; undefined
    1940:	2514051f 	cmpgt	p15.b, p1/z, z8.b, #-12
    1944:	212f0505 	.inst	0x212f0505 ; undefined
    1948:	052e1d05 	ext	z5.b, z5.b, z8.b, #119
    194c:	05212f05 	tbx	z5.b, z24.b, z1.b
    1950:	14052101 	b	149d54 <thread_list+0xc1334>
    1954:	2f05053e 	mvni	v30.2s, #0xa9
    1958:	05212105 	mov	z5.b, b8
    195c:	05053c12 	.inst	0x05053c12 ; undefined
    1960:	2110052e 	.inst	0x2110052e ; undefined
    1964:	052e0c05 	ext	z5.b, z5.b, z0.b, #115
    1968:	22053010 	.inst	0x22053010 ; undefined
    196c:	2e1d052e 	.inst	0x2e1d052e ; undefined
    1970:	05211005 	ext	z5.b, z5.b, z0.b, #12
    1974:	1d052e22 	.inst	0x1d052e22 ; undefined
    1978:	2216052e 	.inst	0x2216052e ; undefined
    197c:	052e0d05 	ext	z5.b, z5.b, z8.b, #115
    1980:	0d052116 	.inst	0x0d052116 ; undefined
    1984:	2219052e 	.inst	0x2219052e ; undefined
    1988:	052f1b05 	ext	z5.b, z5.b, z24.b, #126
    198c:	0402003f 	.inst	0x0402003f ; undefined
    1990:	2e760302 	uaddl	v2.4s, v24.4h, v22.4h
    1994:	02002d05 	.inst	0x02002d05 ; undefined
    1998:	053c0104 	ext	z4.b, z4.b, z8.b, #224
    199c:	660d0305 	.inst	0x660d0305 ; undefined
    19a0:	05210105 	ext	z5.b, z5.b, z8.b, #8
    19a4:	11053f35 	add	w21, w25, #0x14f
    19a8:	0f053d4b 	.inst	0x0f053d4b ; undefined
    19ac:	3c0d053d 	str	b29, [x9], #208
    19b0:	2e05052f 	.inst	0x2e05052f ; undefined
    19b4:	054b2505 	.inst	0x054b2505 ; undefined
    19b8:	13052e15 	sbfx	w21, w16, #5, #7
    19bc:	2f2d0520 	ushr	v0.2s, v9.2s, #19
    19c0:	05200505 	ext	z5.b, z5.b, z8.b, #1
    19c4:	05052135 	.inst	0x05052135 ; undefined
    19c8:	3405212e 	cbz	w14, bdec <_start-0x74214>
    19cc:	2e05052f 	.inst	0x2e05052f ; undefined
    19d0:	05212705 	.inst	0x05212705 ; undefined
    19d4:	05052e3a 	.inst	0x05052e3a ; undefined
    19d8:	21230520 	.inst	0x21230520 ; undefined
    19dc:	67200505 	.inst	0x67200505 ; undefined
    19e0:	05210105 	ext	z5.b, z5.b, z8.b, #8
    19e4:	2e053e17 	.inst	0x2e053e17 ; undefined
    19e8:	203d0530 	.inst	0x203d0530 ; undefined
    19ec:	05200505 	ext	z5.b, z5.b, z8.b, #1
    19f0:	0c056701 	.inst	0x0c056701 ; undefined
    19f4:	2f0e053e 	ushr	v30.8b, v9.8b, #2
    19f8:	05200505 	ext	z5.b, z5.b, z8.b, #1
    19fc:	0905212d 	.inst	0x0905212d ; undefined
    1a00:	67120520 	.inst	0x67120520 ; undefined
    1a04:	05200905 	ext	z5.b, z5.b, z8.b, #2
    1a08:	0402000d 	.inst	0x0402000d ; undefined
    1a0c:	28052103 	stnp	w3, w8, [x8, #40]
    1a10:	03040200 	.inst	0x03040200 ; undefined
    1a14:	001b051f 	.inst	0x001b051f ; undefined
    1a18:	3c010402 	str	b2, [x0], #16
    1a1c:	02000905 	.inst	0x02000905 ; undefined
    1a20:	055a0204 	mov	z4.h, p10/z, #16
    1a24:	0402001d 	.inst	0x0402001d ; undefined
    1a28:	17051c02 	b	fffffffffc148a30 <_end+0xfffffffff97572a0>
    1a2c:	01040200 	.inst	0x01040200 ; undefined
    1a30:	4205053c 	.inst	0x4205053c ; undefined
    1a34:	02210105 	.inst	0x02210105 ; undefined
    1a38:	01010003 	.inst	0x01010003 ; undefined
    1a3c:	0000017d 	udf	#381
    1a40:	00080005 	.inst	0x00080005 ; undefined
    1a44:	00000046 	udf	#70
    1a48:	fb010104 	.inst	0xfb010104 ; undefined
    1a4c:	01000d0e 	.inst	0x01000d0e ; undefined
    1a50:	00010101 	.inst	0x00010101 ; undefined
    1a54:	00010000 	.inst	0x00010000 ; undefined
    1a58:	01010100 	.inst	0x01010100 ; undefined
    1a5c:	0000031f 	udf	#799
    1a60:	00320000 	.inst	0x00320000 ; NYI
    1a64:	00a10000 	.inst	0x00a10000 ; undefined
    1a68:	01020000 	.inst	0x01020000 ; undefined
    1a6c:	060f021f 	.inst	0x060f021f ; undefined
    1a70:	0000014c 	udf	#332
    1a74:	00014c01 	.inst	0x00014c01 ; undefined
    1a78:	00da0100 	.inst	0x00da0100 ; undefined
    1a7c:	52020000 	eor	w0, w0, #0x40000000
    1a80:	02000000 	.inst	0x02000000 ; undefined
    1a84:	0000003d 	udf	#61
    1a88:	00006002 	udf	#24578
    1a8c:	18050200 	ldr	w0, bacc <_start-0x74534>
    1a90:	08020900 	stxrb	w2, w0, [x8]
    1a94:	00000842 	udf	#2114
    1a98:	19000000 	stlurb	w0, [x0]
    1a9c:	052f1205 	ext	z5.b, z5.b, z16.b, #124
    1aa0:	0f053c10 	.inst	0x0f053c10 ; undefined
    1aa4:	3c16053d 	str	b29, [x9], #-160
    1aa8:	054b0f05 	.inst	0x054b0f05 ; undefined
    1aac:	01053c16 	.inst	0x01053c16 ; undefined
    1ab0:	3e40054b 	.inst	0x3e40054b ; undefined
    1ab4:	053d1405 	ext	z5.b, z5.b, z0.b, #237
    1ab8:	052f2e10 	tbx	z16.b, z16.b, z15.b
    1abc:	14053d07 	b	150ed8 <thread_list+0xc84b8>
    1ac0:	2f0e052e 	ushr	v14.8b, v9.8b, #2
    1ac4:	053d0105 	ext	z5.b, z5.b, z8.b, #232
    1ac8:	05053e1d 	.inst	0x05053e1d ; undefined
    1acc:	21212121 	.inst	0x21212121 ; undefined
    1ad0:	21212121 	.inst	0x21212121 ; undefined
    1ad4:	2f090522 	ushr	v2.8b, v9.8b, #7
    1ad8:	053d0505 	ext	z5.b, z5.b, z8.b, #233
    1adc:	1f052f01 	fmadd	s1, s24, s5, s11
    1ae0:	1305053e 	sbfiz	w30, w9, #27, #2
    1ae4:	21010521 	.inst	0x21010521 ; undefined
    1ae8:	05302005 	mov	z5.q, q0
    1aec:	05211305 	ext	z5.b, z5.b, z24.b, #12
    1af0:	16052101 	b	fffffffff8149ef4 <_end+0xfffffffff5758764>
    1af4:	2f220530 	ushr	v16.2s, v9.2s, #30
    1af8:	053c1105 	ext	z5.b, z5.b, z8.b, #228
    1afc:	1a053013 	.inst	0x1a053013 ; undefined
    1b00:	3c08054a 	str	b10, [x10], #128
    1b04:	05302005 	mov	z5.q, q0
    1b08:	0d052e0a 	.inst	0x0d052e0a ; undefined
    1b0c:	2e20054e 	uhadd	v14.8b, v10.8b, v0.8b
    1b10:	052e1a05 	ext	z5.b, z5.b, z16.b, #118
    1b14:	2005210d 	.inst	0x2005210d ; undefined
    1b18:	2e1a052e 	.inst	0x2e1a052e ; undefined
    1b1c:	05211205 	ext	z5.b, z5.b, z16.b, #12
    1b20:	05212e09 	tbx	z9.b, z16.b, z1.b
    1b24:	1a053113 	.inst	0x1a053113 ; undefined
    1b28:	3c08054a 	str	b10, [x10], #128
    1b2c:	052f2f05 	tbx	z5.b, z24.b, z15.b
    1b30:	01054a09 	.inst	0x01054a09 ; undefined
    1b34:	1f090531 	fmadd	s17, s9, s9, s1
    1b38:	053d0105 	ext	z5.b, z5.b, z8.b, #232
    1b3c:	18053f47 	ldr	w7, c324 <_start-0x73cdc>
    1b40:	3d10055a 	str	b26, [x10, #1025]
    1b44:	59140559 	.inst	0x59140559 ; undefined
    1b48:	053e0505 	ext	z5.b, z5.b, z8.b, #241
    1b4c:	1a052f24 	.inst	0x1a052f24 ; undefined
    1b50:	2f1f053c 	ushr	v28.4h, v9.4h, #1
    1b54:	052e1105 	ext	z5.b, z5.b, z8.b, #116
    1b58:	05053c0f 	.inst	0x05053c0f ; undefined
    1b5c:	4d20052f 	st2	{v15.b, v16.b}[9], [x9]
    1b60:	053c1105 	ext	z5.b, z5.b, z8.b, #228
    1b64:	11052f05 	add	w5, w24, #0x14b
    1b68:	2e260521 	uhadd	v1.8b, v9.8b, v6.8b
    1b6c:	052e0c05 	ext	z5.b, z5.b, z0.b, #115
    1b70:	053d2f0d 	tbx	z13.b, z24.b, z29.b
    1b74:	0f051d21 	.inst	0x0f051d21 ; undefined
    1b78:	01040200 	.inst	0x01040200 ; undefined
    1b7c:	6d0c053c 	stp	d28, d1, [x9, #192]
    1b80:	053c0805 	ext	z5.b, z5.b, z0.b, #226
    1b84:	2b053d09 	adds	w9, w8, w5, lsl #15
    1b88:	4a050569 	eor	w9, w11, w5, lsl #1
    1b8c:	052f0105 	ext	z5.b, z5.b, z8.b, #120
    1b90:	05053e21 	.inst	0x05053e21 ; undefined
    1b94:	4b01053d 	sub	w29, w9, w1, lsl #1
    1b98:	053f3a05 	.inst	0x053f3a05 ; undefined
    1b9c:	2f212f05 	.inst	0x2f212f05 ; undefined
    1ba0:	05210105 	ext	z5.b, z5.b, z8.b, #8
    1ba4:	05053e3b 	.inst	0x05053e3b ; undefined
    1ba8:	2f01052f 	mvni	v15.2s, #0x29
    1bac:	053e1e05 	ext	z5.b, z5.b, z16.b, #247
    1bb0:	0c052205 	.inst	0x0c052205 ; undefined
    1bb4:	2101052f 	.inst	0x2101052f ; undefined
    1bb8:	01000402 	.inst	0x01000402 ; undefined
    1bbc:	00028c01 	.inst	0x00028c01 ; undefined
    1bc0:	08000500 	stxrb	w0, w0, [x8]
    1bc4:	00003c00 	udf	#15360
    1bc8:	01010400 	.inst	0x01010400 ; undefined
    1bcc:	000d0efb 	.inst	0x000d0efb ; undefined
    1bd0:	01010101 	.inst	0x01010101 ; undefined
    1bd4:	01000000 	.inst	0x01000000 ; undefined
    1bd8:	01010000 	.inst	0x01010000 ; undefined
    1bdc:	00031f01 	.inst	0x00031f01 ; undefined
    1be0:	32000000 	orr	w0, w0, #0x1
    1be4:	a1000000 	.inst	0xa1000000 ; undefined
    1be8:	02000000 	.inst	0x02000000 ; undefined
    1bec:	0f021f01 	.inst	0x0f021f01 ; undefined
    1bf0:	00015804 	.inst	0x00015804 ; undefined
    1bf4:	01580100 	.inst	0x01580100 ; undefined
    1bf8:	3d010000 	str	b0, [x0, #64]
    1bfc:	02000000 	.inst	0x02000000 ; undefined
    1c00:	00000160 	udf	#352
    1c04:	00120500 	.inst	0x00120500 ; undefined
    1c08:	45f00209 	.inst	0x45f00209 ; undefined
    1c0c:	00000008 	udf	#8
    1c10:	0e030000 	tbl	v0.8b, {v0.16b}, v3.8b
    1c14:	05052401 	.inst	0x05052401 ; undefined
    1c18:	2e160575 	.inst	0x2e160575 ; undefined
    1c1c:	05230505 	ext	z5.b, z5.b, z8.b, #25
    1c20:	05052e15 	.inst	0x05052e15 ; undefined
    1c24:	2e150521 	.inst	0x2e150521 ; undefined
    1c28:	052f0505 	ext	z5.b, z5.b, z8.b, #121
    1c2c:	05052e15 	.inst	0x05052e15 ; undefined
    1c30:	2e160521 	.inst	0x2e160521 ; undefined
    1c34:	052f0505 	ext	z5.b, z5.b, z8.b, #121
    1c38:	09052e15 	.inst	0x09052e15 ; undefined
    1c3c:	2e070531 	.inst	0x2e070531 ; undefined
    1c40:	21212121 	.inst	0x21212121 ; undefined
    1c44:	05210505 	ext	z5.b, z5.b, z8.b, #9
    1c48:	05052e0e 	.inst	0x05052e0e ; undefined
    1c4c:	2e0c0523 	.inst	0x2e0c0523 ; undefined
    1c50:	05210705 	ext	z5.b, z5.b, z24.b, #9
    1c54:	0905210b 	.inst	0x0905210b ; undefined
    1c58:	1f0d0521 	fmadd	s1, s9, s13, s1
    1c5c:	052e0c05 	ext	z5.b, z5.b, z0.b, #115
    1c60:	10053105 	adr	x5, c280 <_start-0x73d80>
    1c64:	2f07052e 	mvni	v14.2s, #0xe9
    1c68:	05210b05 	ext	z5.b, z5.b, z24.b, #10
    1c6c:	0d052109 	.inst	0x0d052109 ; undefined
    1c70:	2e0c051f 	.inst	0x2e0c051f ; undefined
    1c74:	05310505 	ext	z5.b, z5.b, z8.b, #137
    1c78:	05052e10 	.inst	0x05052e10 ; undefined
    1c7c:	2e160522 	.inst	0x2e160522 ; undefined
    1c80:	052f1405 	ext	z5.b, z5.b, z0.b, #125
    1c84:	12057501 	and	w1, w8, #0xf9ffffff
    1c88:	220b053f 	.inst	0x220b053f ; undefined
    1c8c:	02000e05 	.inst	0x02000e05 ; undefined
    1c90:	05200104 	ext	z4.b, z4.b, z8.b, #0
    1c94:	0402001e 	.inst	0x0402001e ; undefined
    1c98:	0c053c01 	.inst	0x0c053c01 ; undefined
    1c9c:	01040200 	.inst	0x01040200 ; undefined
    1ca0:	2f100520 	ushr	v0.4h, v9.4h, #16
    1ca4:	053c0705 	ext	z5.b, z5.b, z24.b, #225
    1ca8:	0105210c 	.inst	0x0105210c ; undefined
    1cac:	30120521 	adr	x1, 25d51 <_start-0x5a2af>
    1cb0:	05310b05 	ext	z5.b, z5.b, z24.b, #138
    1cb4:	0402000e 	.inst	0x0402000e ; undefined
    1cb8:	1e052001 	.inst	0x1e052001 ; undefined
    1cbc:	01040200 	.inst	0x01040200 ; undefined
    1cc0:	000c053c 	.inst	0x000c053c ; undefined
    1cc4:	20010402 	.inst	0x20010402 ; undefined
    1cc8:	052f1005 	ext	z5.b, z5.b, z0.b, #124
    1ccc:	09053c07 	.inst	0x09053c07 ; undefined
    1cd0:	3c080521 	str	b1, [x9], #128
    1cd4:	052f0905 	ext	z5.b, z5.b, z8.b, #122
    1cd8:	0d052f0c 	.inst	0x0d052f0c ; undefined
    1cdc:	311d053d 	adds	w29, w9, #0x741
    1ce0:	01040200 	.inst	0x01040200 ; undefined
    1ce4:	02003c06 	.inst	0x02003c06 ; undefined
    1ce8:	052e0204 	ext	z4.b, z4.b, z16.b, #112
    1cec:	04020001 	.inst	0x04020001 ; undefined
    1cf0:	05210604 	ext	z4.b, z4.b, z16.b, #9
    1cf4:	0b053018 	add	w24, w0, w5, lsl #12
    1cf8:	000e052f 	.inst	0x000e052f ; undefined
    1cfc:	20010402 	.inst	0x20010402 ; undefined
    1d00:	02001e05 	.inst	0x02001e05 ; undefined
    1d04:	053c0104 	ext	z4.b, z4.b, z8.b, #224
    1d08:	0402000c 	.inst	0x0402000c ; undefined
    1d0c:	05052001 	.inst	0x05052001 ; undefined
    1d10:	2e14052f 	.inst	0x2e14052f ; undefined
    1d14:	052f0105 	ext	z5.b, z5.b, z8.b, #120
    1d18:	0c053e20 	.inst	0x0c053e20 ; undefined
    1d1c:	2e05053f 	.inst	0x2e05053f ; undefined
    1d20:	05211005 	ext	z5.b, z5.b, z0.b, #12
    1d24:	1b053c0b 	madd	w11, w0, w5, w15
    1d28:	0402002f 	.inst	0x0402002f ; undefined
    1d2c:	003c0601 	.inst	0x003c0601 ; NYI
    1d30:	2e020402 	.inst	0x2e020402 ; undefined
    1d34:	02000b05 	.inst	0x02000b05 ; undefined
    1d38:	20060404 	.inst	0x20060404 ; undefined
    1d3c:	02000905 	.inst	0x02000905 ; undefined
    1d40:	053d0404 	ext	z4.b, z4.b, z0.b, #233
    1d44:	0402001c 	.inst	0x0402001c ; undefined
    1d48:	14053904 	b	150158 <thread_list+0xc7738>
    1d4c:	02040200 	.inst	0x02040200 ; undefined
    1d50:	4101053c 	.inst	0x4101053c ; undefined
    1d54:	054c2305 	.inst	0x054c2305 ; undefined
    1d58:	0b05a005 	.inst	0x0b05a005 ; undefined
    1d5c:	2f110593 	ushr	v19.4h, v12.4h, #15
    1d60:	05ac0905 	uzp1	z5.q, z8.q, z12.q
    1d64:	0d05220b 	.inst	0x0d05220b ; undefined
    1d68:	2e0c0521 	.inst	0x2e0c0521 ; undefined
    1d6c:	052f0d05 	ext	z5.b, z5.b, z8.b, #123
    1d70:	09053017 	.inst	0x09053017 ; undefined
    1d74:	2a0c053c 	orr	w28, w9, w12, lsl #1
    1d78:	21010551 	.inst	0x21010551 ; undefined
    1d7c:	05301c05 	ext	z5.b, z5.b, z0.b, #135
    1d80:	08053017 	stxrb	w5, w23, [x0]
    1d84:	2f090566 	ushr	v6.8b, v11.8b, #7
    1d88:	23050521 	.inst	0x23050521 ; undefined
    1d8c:	05220b05 	ext	z5.b, z5.b, z24.b, #18
    1d90:	28052135 	stnp	w21, w8, [x9, #40]
    1d94:	4a090574 	eor	w20, w11, w9, lsl #1
    1d98:	052e1805 	ext	z5.b, z5.b, z0.b, #118
    1d9c:	19052116 	stlurb	w22, [x8, #82]
    1da0:	87010572 	.inst	0x87010572 ; undefined
    1da4:	05301c05 	ext	z5.b, z5.b, z0.b, #135
    1da8:	1d053e18 	.inst	0x1d053e18 ; undefined
    1dac:	2034054a 	.inst	0x2034054a ; undefined
    1db0:	053c0805 	ext	z5.b, z5.b, z0.b, #226
    1db4:	05212f09 	tbx	z9.b, z24.b, z1.b
    1db8:	0b052405 	add	w5, w0, w5, lsl #9
    1dbc:	21250523 	.inst	0x21250523 ; undefined
    1dc0:	05742b05 	tbl	z5.h, {z24.h, z25.h}, z20.h
    1dc4:	17052e29 	b	fffffffffc14d668 <_end+0xfffffffff975bed8>
    1dc8:	721a054b 	ands	w11, w10, #0xc0
    1dcc:	054a1f05 	.inst	0x054a1f05 ; undefined
    1dd0:	01052036 	.inst	0x01052036 ; undefined
    1dd4:	3e1e055d 	.inst	0x3e1e055d ; undefined
    1dd8:	053e0b05 	ext	z5.b, z5.b, z24.b, #242
    1ddc:	0402001c 	.inst	0x0402001c ; undefined
    1de0:	21052001 	.inst	0x21052001 ; undefined
    1de4:	01040200 	.inst	0x01040200 ; undefined
    1de8:	0039054a 	.inst	0x0039054a ; NYI
    1dec:	20010402 	.inst	0x20010402 ; undefined
    1df0:	05590505 	mov	z5.h, p9/z, #40
    1df4:	25052121 	cmplt	p1.b, p0/z, z9.b, #5
    1df8:	59130574 	.inst	0x59130574 ; undefined
    1dfc:	05750505 	ext	z5.b, {z8.b, z9.b}, #169
    1e00:	18052101 	ldr	w1, c220 <_start-0x73de0>
    1e04:	3005053e 	adr	x30, bea9 <_start-0x74157>
    1e08:	05210b05 	ext	z5.b, z5.b, z24.b, #10
    1e0c:	04020019 	.inst	0x04020019 ; undefined
    1e10:	05052001 	.inst	0x05052001 ; undefined
    1e14:	21290584 	.inst	0x21290584 ; undefined
    1e18:	05740a05 	ext	z5.b, {z16.b, z17.b}, #162
    1e1c:	0c055912 	.inst	0x0c055912 ; undefined
    1e20:	21010575 	.inst	0x21010575 ; undefined
    1e24:	05301b05 	ext	z5.b, z5.b, z24.b, #134
    1e28:	01051315 	.inst	0x01051315 ; undefined
    1e2c:	301c0575 	adr	x21, 39ed9 <_start-0x46127>
    1e30:	05131505 	mov	z5.b, p3/z, #-88
    1e34:	1b057501 	madd	w1, w8, w5, w29
    1e38:	13150530 	sbfiz	w16, w9, #11, #2
    1e3c:	05750105 	ext	z5.b, {z8.b, z9.b}, #168
    1e40:	1505301c 	b	414deb0 <_end+0x175c720>
    1e44:	75010513 	.inst	0x75010513 ; undefined
    1e48:	01000202 	.inst	0x01000202 ; undefined
    1e4c:	00039101 	.inst	0x00039101 ; undefined
    1e50:	08000500 	stxrb	w0, w0, [x8]
    1e54:	00003c00 	udf	#15360
    1e58:	01010400 	.inst	0x01010400 ; undefined
    1e5c:	000d0efb 	.inst	0x000d0efb ; undefined
    1e60:	01010101 	.inst	0x01010101 ; undefined
    1e64:	01000000 	.inst	0x01000000 ; undefined
    1e68:	01010000 	.inst	0x01010000 ; undefined
    1e6c:	00031f01 	.inst	0x00031f01 ; undefined
    1e70:	32000000 	orr	w0, w0, #0x1
    1e74:	79000000 	strh	w0, [x0]
    1e78:	02000000 	.inst	0x02000000 ; undefined
    1e7c:	0f021f01 	.inst	0x0f021f01 ; undefined
    1e80:	00016f04 	.inst	0x00016f04 ; undefined
    1e84:	016f0100 	.inst	0x016f0100 ; undefined
    1e88:	b5010000 	cbnz	x0, 3e88 <_start-0x7c178>
    1e8c:	02000000 	.inst	0x02000000 ; undefined
    1e90:	00000160 	udf	#352
    1e94:	00450500 	.inst	0x00450500 ; undefined
    1e98:	4ca80209 	.inst	0x4ca80209 ; undefined
    1e9c:	00000008 	udf	#8
    1ea0:	05160000 	mov	z0.b, p6/z, #0
    1ea4:	08054f0f 	stxrb	w5, w15, [x24]
    1ea8:	001a0531 	.inst	0x001a0531 ; undefined
    1eac:	3c010402 	str	b2, [x0], #16
    1eb0:	053d1005 	ext	z5.b, z5.b, z0.b, #236
    1eb4:	0b053209 	add	w9, w16, w5, lsl #12
    1eb8:	21110521 	.inst	0x21110521 ; undefined
    1ebc:	053c0c05 	ext	z5.b, z5.b, z0.b, #227
    1ec0:	0d052f14 	.inst	0x0d052f14 ; undefined
    1ec4:	2e0c0532 	.inst	0x2e0c0532 ; undefined
    1ec8:	052f1005 	ext	z5.b, z5.b, z0.b, #124
    1ecc:	10053e11 	adr	x17, c68c <_start-0x73974>
    1ed0:	3211052e 	orr	w14, w9, #0x18000
    1ed4:	05211305 	ext	z5.b, z5.b, z24.b, #12
    1ed8:	18052115 	ldr	w21, c2f8 <_start-0x73d08>
    1edc:	2e1d0567 	.inst	0x2e1d0567 ; undefined
    1ee0:	05201505 	ext	z5.b, z5.b, z8.b, #5
    1ee4:	05393d14 	.inst	0x05393d14 ; undefined
    1ee8:	23052e20 	.inst	0x23052e20 ; undefined
    1eec:	01040200 	.inst	0x01040200 ; undefined
    1ef0:	0020052e 	.inst	0x0020052e ; NYI
    1ef4:	2e010402 	.inst	0x2e010402 ; undefined
    1ef8:	05341105 	ext	z5.b, z5.b, z8.b, #164
    1efc:	14052e10 	b	14d73c <thread_list+0xc4d1c>
    1f00:	3f11052f 	.inst	0x3f11052f ; undefined
    1f04:	052e1005 	ext	z5.b, z5.b, z0.b, #116
    1f08:	15052f2e 	b	414dbc0 <_end+0x175c430>
    1f0c:	052f4a08 	.inst	0x052f4a08 ; undefined
    1f10:	18053c1a 	ldr	w26, c690 <_start-0x73970>
    1f14:	2114052e 	.inst	0x2114052e ; undefined
    1f18:	053d1105 	ext	z5.b, z5.b, z8.b, #236
    1f1c:	15052316 	b	414ab74 <_end+0x17593e4>
    1f20:	2f2e052e 	ushr	v14.2s, v9.2s, #18
    1f24:	4a081505 	eor	w5, w8, w8, lsl #5
    1f28:	052f1605 	ext	z5.b, z5.b, z16.b, #125
    1f2c:	14052115 	b	14a380 <thread_list+0xc1960>
    1f30:	2f190520 	ushr	v0.4h, v9.4h, #7
    1f34:	053d1a05 	ext	z5.b, z5.b, z16.b, #238
    1f38:	19053014 	stlurb	w20, [x0, #83]
    1f3c:	4e130567 	dup	v7.16b, v11.b[9]
    1f40:	052f1b05 	ext	z5.b, z5.b, z24.b, #126
    1f44:	0402002e 	.inst	0x0402002e ; undefined
    1f48:	27053e02 	.inst	0x27053e02 ; undefined
    1f4c:	02040200 	.inst	0x02040200 ; undefined
    1f50:	002105ba 	.inst	0x002105ba ; NYI
    1f54:	20020402 	.inst	0x20020402 ; undefined
    1f58:	02002705 	.inst	0x02002705 ; undefined
    1f5c:	053c0204 	ext	z4.b, z4.b, z16.b, #224
    1f60:	04020021 	.inst	0x04020021 ; undefined
    1f64:	19052e02 	.inst	0x19052e02 ; undefined
    1f68:	02040200 	.inst	0x02040200 ; undefined
    1f6c:	0023053d 	.inst	0x0023053d ; NYI
    1f70:	83020402 	.inst	0x83020402 ; undefined
    1f74:	01040200 	.inst	0x01040200 ; undefined
    1f78:	14053c06 	b	150f90 <thread_list+0xc8570>
    1f7c:	21053d06 	.inst	0x21053d06 ; undefined
    1f80:	7614053d 	.inst	0x7614053d ; undefined
    1f84:	02001d05 	.inst	0x02001d05 ; undefined
    1f88:	053c0104 	ext	z4.b, z4.b, z8.b, #224
    1f8c:	25053d1b 	cmple	p11.b, p7/z, z8.b, #5
    1f90:	73230521 	.inst	0x73230521 ; undefined
    1f94:	053c1e05 	ext	z5.b, z5.b, z16.b, #231
    1f98:	11054113 	add	w19, w8, #0x150
    1f9c:	2118054b 	.inst	0x2118054b ; undefined
    1fa0:	052e1705 	ext	z5.b, z5.b, z24.b, #117
    1fa4:	13052f15 	sbfx	w21, w24, #5, #7
    1fa8:	1b055908 	madd	w8, w8, w5, w22
    1fac:	3e22052f 	.inst	0x3e22052f ; undefined
    1fb0:	052e1a05 	ext	z5.b, z5.b, z16.b, #118
    1fb4:	02002f25 	.inst	0x02002f25 ; undefined
    1fb8:	3c060104 	stur	b4, [x8, #96]
    1fbc:	02040200 	.inst	0x02040200 ; undefined
    1fc0:	0021052e 	.inst	0x0021052e ; NYI
    1fc4:	06040402 	.inst	0x06040402 ; undefined
    1fc8:	00250520 	.inst	0x00250520 ; NYI
    1fcc:	3c040402 	str	b2, [x0], #64
    1fd0:	02002105 	.inst	0x02002105 ; undefined
    1fd4:	053c0404 	ext	z4.b, z4.b, z0.b, #225
    1fd8:	04020019 	.inst	0x04020019 ; undefined
    1fdc:	23053d04 	.inst	0x23053d04 ; undefined
    1fe0:	04040200 	.inst	0x04040200 ; undefined
    1fe4:	0402003d 	.inst	0x0402003d ; undefined
    1fe8:	053c0601 	ext	z1.b, z1.b, z16.b, #225
    1fec:	053d0614 	ext	z20.b, z20.b, z16.b, #233
    1ff0:	0402001d 	.inst	0x0402001d ; undefined
    1ff4:	1b053c01 	madd	w1, w0, w5, w15
    1ff8:	2125053d 	.inst	0x2125053d ; undefined
    1ffc:	05732305 	mov	z5.b, z24.b[25]
    2000:	13053c1e 	sbfx	w30, w0, #5, #11
    2004:	4b110540 	sub	w0, w10, w17, lsl #1
    2008:	05211805 	ext	z5.b, z5.b, z0.b, #14
    200c:	13052e17 	sbfx	w23, w16, #5, #7
    2010:	0814052f 	stxrb	w20, w15, [x9]
    2014:	3d17055a 	str	b26, [x10, #1473]
    2018:	2120053e 	.inst	0x2120053e ; undefined
    201c:	053c1905 	ext	z5.b, z5.b, z8.b, #230
    2020:	1c053c1e 	ldr	s30, c7a0 <_start-0x73860>
    2024:	1f180520 	fmadd	s0, s9, s24, s1
    2028:	055d0905 	mov	z5.h, p13/z, #72
    202c:	7fb30311 	.inst	0x7fb30311 ; undefined
    2030:	00ce032e 	.inst	0x00ce032e ; undefined
    2034:	3c160520 	str	b0, [x9], #-160
    2038:	052e1405 	ext	z5.b, z5.b, z0.b, #117
    203c:	a603220c 	.inst	0xa603220c ; undefined
    2040:	0a053c7f 	and	wzr, w3, w5, lsl #15
    2044:	4a00dc03 	.inst	0x4a00dc03 ; undefined
    2048:	052f1005 	ext	z5.b, z5.b, z0.b, #124
    204c:	04020001 	.inst	0x04020001 ; undefined
    2050:	31053d01 	adds	w1, w8, #0x14f
    2054:	a0050530 	.inst	0xa0050530 ; undefined
    2058:	05911605 	mov	z5.s, p1/z, #-80
    205c:	0105bc0c 	.inst	0x0105bc0c ; undefined
    2060:	302c0521 	adr	x1, 5a105 <_start-0x25efb>
    2064:	052f0c05 	ext	z5.b, z5.b, z0.b, #123
    2068:	0e05220b 	tbl	v11.8b, {v16.16b, v17.16b}, v5.8b
    206c:	3b1f0521 	.inst	0x3b1f0521 ; undefined
    2070:	053c1b05 	ext	z5.b, z5.b, z24.b, #230
    2074:	0531200c 	mov	z12.b, z0.b[8]
    2078:	2c052101 	stnp	s1, s8, [x8, #40]
    207c:	3d1a0530 	str	b16, [x9, #1665]
    2080:	3220052f 	orr	w15, w9, #0x3
    2084:	053c0c05 	ext	z5.b, z5.b, z0.b, #227
    2088:	0c052f20 	.inst	0x0c052f20 ; undefined
    208c:	17052f3c 	b	fffffffffc14dd7c <_end+0xfffffffff975c5ec>
    2090:	4b11053d 	sub	w29, w9, w17, lsl #1
    2094:	054b0f05 	.inst	0x054b0f05 ; undefined
    2098:	43053d01 	.inst	0x43053d01 ; undefined
    209c:	4b130530 	sub	w16, w9, w19, lsl #1
    20a0:	21080521 	.inst	0x21080521 ; undefined
    20a4:	053d1005 	ext	z5.b, z5.b, z0.b, #236
    20a8:	10053f24 	adr	x4, c88c <_start-0x73774>
    20ac:	2f24053c 	ushr	v28.2s, v9.2s, #28
    20b0:	2f3c1005 	.inst	0x2f3c1005 ; undefined
    20b4:	02001c05 	.inst	0x02001c05 ; undefined
    20b8:	053c0104 	ext	z4.b, z4.b, z8.b, #224
    20bc:	24054b1b 	cmpgt	p11.b, p2/z, z24.b, z5.d
    20c0:	3c10054b 	str	b11, [x10], #-256
    20c4:	052f2405 	.inst	0x052f2405 ; undefined
    20c8:	052f3c10 	.inst	0x052f3c10 ; undefined
    20cc:	0402001c 	.inst	0x0402001c ; undefined
    20d0:	1b053c01 	madd	w1, w0, w5, w15
    20d4:	4b24054b 	sub	w11, w10, w4, uxtb #1
    20d8:	053c1005 	ext	z5.b, z5.b, z0.b, #228
    20dc:	10052f24 	adr	x4, c6c0 <_start-0x73940>
    20e0:	1c052f3c 	ldr	s28, c6c4 <_start-0x7393c>
    20e4:	01040200 	.inst	0x01040200 ; undefined
    20e8:	4b1b053c 	sub	w28, w9, w27, lsl #1
    20ec:	054b2405 	.inst	0x054b2405 ; undefined
    20f0:	24053c10 	cmpne	p0.b, p7/z, z0.b, z5.d
    20f4:	3c10052f 	str	b15, [x9], #-256
    20f8:	001c052f 	.inst	0x001c052f ; undefined
    20fc:	3c010402 	str	b2, [x0], #16
    2100:	054b1b05 	.inst	0x054b1b05 ; undefined
    2104:	0b054b17 	add	w23, w24, w5, lsl #18
    2108:	20053e68 	.inst	0x20053e68 ; undefined
    210c:	3c0c0521 	str	b1, [x9], #192
    2110:	052f2005 	mov	z5.b, z0.b[7]
    2114:	052f3c0c 	.inst	0x052f3c0c ; undefined
    2118:	04020018 	.inst	0x04020018 ; undefined
    211c:	17053c01 	b	fffffffffc151120 <_end+0xfffffffff975f990>
    2120:	4b0a054b 	sub	w11, w10, w10, lsl #1
    2124:	05370e05 	ext	z5.b, z5.b, z16.b, #187
    2128:	0105430f 	.inst	0x0105430f ; undefined
    212c:	3043053d 	adr	x29, 881d1 <cmd_list+0x929>
    2130:	054b0b05 	.inst	0x054b0b05 ; undefined
    2134:	0b052f11 	add	w17, w24, w5, lsl #11
    2138:	2112052f 	.inst	0x2112052f ; undefined
    213c:	053c0b05 	ext	z5.b, z5.b, z24.b, #226
    2140:	0e053c10 	umov	w16, v0.b[2]
    2144:	1f0f0520 	fmadd	s0, s9, s15, s1
    2148:	313c0c05 	adds	w5, w0, #0xf03
    214c:	05210105 	ext	z5.b, z5.b, z8.b, #8
    2150:	1e05302b 	.inst	0x1e05302b ; undefined
    2154:	2e0c054b 	.inst	0x2e0c054b ; undefined
    2158:	05590105 	mov	z5.h, p9/z, #8
    215c:	0d053022 	.inst	0x0d053022 ; undefined
    2160:	2e0c0531 	.inst	0x2e0c0531 ; undefined
    2164:	052f1105 	ext	z5.b, z5.b, z8.b, #124
    2168:	05222f0d 	tbx	z13.b, z24.b, z2.b
    216c:	13052e0c 	sbfx	w12, w16, #5, #7
    2170:	2f11052f 	ushr	v15.4h, v9.4h, #15
    2174:	223d0d05 	.inst	0x223d0d05 ; undefined
    2178:	77030c05 	.inst	0x77030c05 ; undefined
    217c:	200b033c 	.inst	0x200b033c ; undefined
    2180:	05210105 	ext	z5.b, z5.b, z8.b, #8
    2184:	09053015 	.inst	0x09053015 ; undefined
    2188:	210e052f 	.inst	0x210e052f ; undefined
    218c:	05200505 	ext	z5.b, z5.b, z8.b, #1
    2190:	0c05210d 	.inst	0x0c05210d ; undefined
    2194:	001b052e 	.inst	0x001b052e ; undefined
    2198:	2e010402 	.inst	0x2e010402 ; undefined
    219c:	02001805 	.inst	0x02001805 ; undefined
    21a0:	052e0104 	ext	z4.b, z4.b, z8.b, #112
    21a4:	13052f14 	sbfx	w20, w24, #5, #7
    21a8:	02040200 	.inst	0x02040200 ; undefined
    21ac:	001a052f 	.inst	0x001a052f ; undefined
    21b0:	66020402 	.inst	0x66020402 ; undefined
    21b4:	02001805 	.inst	0x02001805 ; undefined
    21b8:	052e0204 	ext	z4.b, z4.b, z16.b, #112
    21bc:	0402000d 	.inst	0x0402000d ; undefined
    21c0:	23052002 	.inst	0x23052002 ; undefined
    21c4:	02040200 	.inst	0x02040200 ; undefined
    21c8:	0018052b 	.inst	0x0018052b ; undefined
    21cc:	3c010402 	str	b2, [x0], #16
    21d0:	02001c05 	.inst	0x02001c05 ; undefined
    21d4:	054a0104 	.inst	0x054a0104 ; undefined
    21d8:	0105330c 	.inst	0x0105330c ; undefined
    21dc:	00020221 	.inst	0x00020221 ; undefined
    21e0:	Address 0x00000000000021e0 is out of bounds.


Disassembly of section .debug_str:

0000000000000000 <.debug_str>:
   0:	746d5f63 	.inst	0x746d5f63 ; undefined
   4:	00656d69 	.inst	0x00656d69 ; undefined
   8:	69755f63 	ldpsw	x3, x23, [x27, #-88]
   c:	61700064 	.inst	0x61700064 ; undefined
  10:	616e6874 	.inst	0x616e6874 ; undefined
  14:	6300656d 	.inst	0x6300656d ; undefined
  18:	5f6f6970 	.inst	0x5f6f6970 ; undefined
  1c:	6377656e 	.inst	0x6377656e ; undefined
  20:	6165685f 	.inst	0x6165685f ; undefined
  24:	00726564 	.inst	0x00726564 ; undefined
  28:	616d5f63 	.inst	0x616d5f63 ; undefined
  2c:	00636967 	.inst	0x00636967 ; undefined
  30:	64725f63 	.inst	0x64725f63 ; undefined
  34:	616d7665 	.inst	0x616d7665 ; undefined
  38:	00726f6a 	.inst	0x00726f6a ; undefined
  3c:	65645f63 	fnmla	z3.h, p7/m, z27.h, z4.h
  40:	6e696d76 	umin	v22.8h, v11.8h, v9.8h
  44:	6c00726f 	stnp	d15, d28, [x19]
  48:	20676e6f 	.inst	0x20676e6f ; undefined
  4c:	676e6f6c 	.inst	0x676e6f6c ; undefined
  50:	736e7520 	.inst	0x736e7520 ; undefined
  54:	656e6769 	fnmls	z9.h, p1/m, z27.h, z14.h
  58:	6e692064 	usubl2	v4.4s, v3.8h, v9.8h
  5c:	5f630074 	.inst	0x5f630074 ; undefined
  60:	656c6966 	fnmls	z6.h, p2/m, z11.h, z12.h
  64:	657a6973 	fnmls	z19.h, p2/m, z11.h, z26.h
  68:	66666f00 	.inst	0x66666f00 ; undefined
  6c:	00746573 	.inst	0x00746573 ; undefined
  70:	73726170 	.inst	0x73726170 ; undefined
  74:	65685f65 	fnmla	z5.h, p7/m, z27.h, z8.h
  78:	74735f78 	.inst	0x74735f78 ; undefined
  7c:	656e0072 	fmla	z18.h, p0/m, z3.h, z14.h
  80:	685f7478 	.inst	0x685f7478 ; undefined
  84:	65646165 	fnmls	z5.h, p0/m, z11.h, z4.h
  88:	6f705f72 	.inst	0x6f705f72 ; undefined
  8c:	65746e69 	fnmls	z9.h, p3/m, z19.h, z20.h
  90:	5f630072 	.inst	0x5f630072 ; undefined
  94:	6d766564 	ldp	d4, d25, [x11, #-160]
  98:	726f6a61 	.inst	0x726f6a61 ; undefined
  9c:	74617000 	.inst	0x74617000 ; undefined
  a0:	6d616e68 	ldp	d8, d27, [x19, #-496]
  a4:	656c5f65 	fnmla	z5.h, p7/m, z27.h, z12.h
  a8:	6874676e 	.inst	0x6874676e ; undefined
  ac:	72747300 	.inst	0x72747300 ; undefined
  b0:	706d636e 	adr	x14, dad1f <thread_list+0x522ff>
  b4:	6e5f6300 	.inst	0x6e5f6300 ; undefined
  b8:	73656d61 	.inst	0x73656d61 ; undefined
  bc:	00657a69 	.inst	0x00657a69 ; undefined
  c0:	6e695f63 	uqrshl	v3.8h, v27.8h, v9.8h
  c4:	7063006f 	adr	x15, c60d3 <thread_list+0x3d6b3>
  c8:	6e5f6f69 	.inst	0x6e5f6f69 ; undefined
  cc:	5f637765 	sqshl	d5, d27, #35
  d0:	73726170 	.inst	0x73726170 ; undefined
  d4:	65685f65 	fnmla	z5.h, p7/m, z27.h, z8.h
  d8:	72656461 	.inst	0x72656461 ; undefined
  dc:	6d5f6300 	ldp	d0, d24, [x24, #496]
  e0:	0065646f 	.inst	0x0065646f ; undefined
  e4:	64725f63 	.inst	0x64725f63 ; undefined
  e8:	696d7665 	ldpsw	x5, x29, [x19, #-152]
  ec:	00726f6e 	.inst	0x00726f6e ; undefined
  f0:	5f78616d 	.inst	0x5f78616d ; undefined
  f4:	006e656c 	.inst	0x006e656c ; undefined
  f8:	69675f63 	ldpsw	x3, x23, [x27, #-200]
  fc:	5f630064 	.inst	0x5f630064 ; undefined
 100:	6e696c6e 	umin	v14.8h, v3.8h, v9.8h
 104:	6874006b 	.inst	0x6874006b ; undefined
 108:	685f7369 	.inst	0x685f7369 ; undefined
 10c:	65646165 	fnmls	z5.h, p0/m, z11.h, z4.h
 110:	6f705f72 	.inst	0x6f705f72 ; undefined
 114:	65746e69 	fnmls	z9.h, p3/m, z19.h, z20.h
 118:	5f630072 	.inst	0x5f630072 ; undefined
 11c:	63656863 	.inst	0x63656863 ; undefined
 120:	4e47006b 	.inst	0x4e47006b ; undefined
 124:	31432055 	adds	w21, w2, #0xc8, lsl #12
 128:	31312037 	adds	w23, w1, #0xc48
 12c:	302e342e 	adr	x14, 5c7b1 <_start-0x2384f>
 130:	676d2d20 	.inst	0x676d2d20 ; undefined
 134:	72656e65 	.inst	0x72656e65 ; undefined
 138:	722d6c61 	ands	w1, w3, #0xfff87fff
 13c:	2d736765 	ldp	s5, s25, [x27, #-104]
 140:	796c6e6f 	ldrh	w15, [x19, #5686]
 144:	6c6d2d20 	ldnp	d0, d11, [x9, #-304]
 148:	6c747469 	ldnp	d9, d29, [x3, #-192]
 14c:	6e652d65 	uqsub	v5.8h, v11.8h, v5.8h
 150:	6e616964 	fcvtxn2	v4.4s, v11.2d
 154:	616d2d20 	.inst	0x616d2d20 ; undefined
 158:	6c3d6962 	stnp	d2, d26, [x11, #-48]
 15c:	20343670 	.inst	0x20343670 ; undefined
 160:	2d20672d 	stp	s13, s25, [x25, #-256]
 164:	65726666 	fnmls	z6.h, p1/m, z19.h, z18.h
 168:	61747365 	.inst	0x61747365 ; undefined
 16c:	6e69646e 	umax	v14.8h, v3.8h, v9.8h
 170:	662d2067 	.inst	0x662d2067 ; undefined
 174:	6e797361 	uabdl2	v1.4s, v27.8h, v25.8h
 178:	6f726863 	umlsl2	v3.4s, v3.8h, v2.h[7]
 17c:	73756f6e 	.inst	0x73756f6e ; undefined
 180:	776e752d 	.inst	0x776e752d ; undefined
 184:	2d646e69 	ldp	s9, s27, [x19, #-224]
 188:	6c626174 	ldnp	d20, d24, [x11, #-480]
 18c:	2d207365 	stp	s5, s28, [x27, #-256]
 190:	61747366 	.inst	0x61747366 ; undefined
 194:	632d6b63 	.inst	0x632d6b63 ; undefined
 198:	6873616c 	.inst	0x6873616c ; undefined
 19c:	6f72702d 	fcmla	v13.8h, v1.8h, v18.h[1], #270
 1a0:	74636574 	.inst	0x74636574 ; undefined
 1a4:	006e6f69 	.inst	0x006e6f69 ; undefined
 1a8:	5f627464 	sqshl	d4, d3, #34
 1ac:	6c6c6163 	ldnp	d3, d24, [x11, #-320]
 1b0:	6b636162 	.inst	0x6b636162 ; undefined
 1b4:	696e695f 	ldpsw	xzr, x26, [x10, #-144]
 1b8:	6d617274 	ldp	d20, d28, [x19, #-496]
 1bc:	75007366 	.inst	0x75007366 ; undefined
 1c0:	5f747261 	sqdmlsl	s1, h19, v4.h[3]
 1c4:	646e6573 	.inst	0x646e6573 ; undefined
 1c8:	656e696c 	fnmls	z12.h, p2/m, z11.h, z14.h
 1cc:	6c617600 	ldnp	d0, d29, [x16, #-496]
 1d0:	6d006575 	stp	d21, d25, [x11]
 1d4:	726f6d65 	.inst	0x726f6d65 ; undefined
 1d8:	65725f79 	fnmla	z25.h, p7/m, z27.h, z18.h
 1dc:	76726573 	.inst	0x76726573 ; undefined
 1e0:	666f0065 	.inst	0x666f0065 ; undefined
 1e4:	74645f66 	.inst	0x74645f66 ; undefined
 1e8:	7274735f 	.inst	0x7274735f ; undefined
 1ec:	00746375 	.inst	0x00746375 ; undefined
 1f0:	5f627464 	sqshl	d4, d3, #34
 1f4:	6c6c6163 	ldnp	d3, d24, [x11, #-320]
 1f8:	6b636162 	.inst	0x6b636162 ; undefined
 1fc:	6f68735f 	fcmla	v31.8h, v26.8h, v8.h[1], #270
 200:	72745f77 	.inst	0x72745f77 ; undefined
 204:	74006565 	.inst	0x74006565 ; undefined
 208:	6c61746f 	ldnp	d15, d29, [x3, #-496]
 20c:	7a69735f 	.inst	0x7a69735f ; undefined
 210:	666f0065 	.inst	0x666f0065 ; undefined
 214:	656d5f66 	fnmla	z6.h, p7/m, z27.h, z13.h
 218:	73725f6d 	.inst	0x73725f6d ; undefined
 21c:	70616d76 	adr	x22, c2fcb <thread_list+0x3a5ab>
 220:	74646600 	.inst	0x74646600 ; undefined
 224:	7365725f 	.inst	0x7365725f ; undefined
 228:	65767265 	fnmls	z5.h, p4/m, z19.h, z22.h
 22c:	746e655f 	.inst	0x746e655f ; undefined
 230:	73007972 	.inst	0x73007972 ; undefined
 234:	5f657a69 	sqdmlsl	s9, h19, v5.h[6]
 238:	735f7464 	.inst	0x735f7464 ; undefined
 23c:	63757274 	.inst	0x63757274 ; undefined
 240:	64610074 	fmla	z20.h, z3.h, z1.h[4]
 244:	73657264 	.inst	0x73657264 ; undefined
 248:	74730073 	.inst	0x74730073 ; undefined
 24c:	74637572 	.inst	0x74637572 ; undefined
 250:	7a69735f 	.inst	0x7a69735f ; undefined
 254:	6f740065 	mla	v5.8h, v3.8h, v4.h[3]
 258:	5f6e656b 	.inst	0x5f6e656b ; undefined
 25c:	65707974 	fnmls	z20.h, p6/m, z11.h, z16.h
 260:	6e697500 	uabd	v0.8h, v8.8h, v9.8h
 264:	5f343674 	.inst	0x5f343674 ; undefined
 268:	69646e65 	ldpsw	x5, x27, [x19, #-224]
 26c:	625f6e61 	.inst	0x625f6e61 ; undefined
 270:	6c326769 	stnp	d9, d25, [x27, #-224]
 274:	6c747469 	ldnp	d9, d29, [x3, #-192]
 278:	64660065 	fmla	z5.h, z3.h, z6.h[4]
 27c:	65685f74 	fnmla	z20.h, p7/m, z27.h, z8.h
 280:	72656461 	.inst	0x72656461 ; undefined
 284:	73657200 	.inst	0x73657200 ; undefined
 288:	65767265 	fnmls	z5.h, p4/m, z19.h, z22.h
 28c:	746e655f 	.inst	0x746e655f ; undefined
 290:	705f7972 	adr	x18, bf1bf <thread_list+0x3679f>
 294:	61007274 	.inst	0x61007274 ; undefined
 298:	5f726464 	.inst	0x5f726464 ; undefined
 29c:	00727470 	.inst	0x00727470 ; undefined
 2a0:	735f7464 	.inst	0x735f7464 ; undefined
 2a4:	6e697274 	uabdl2	v20.4s, v19.8h, v9.8h
 2a8:	705f7367 	adr	x7, bf117 <thread_list+0x366f7>
 2ac:	75007274 	.inst	0x75007274 ; undefined
 2b0:	33746e69 	.inst	0x33746e69 ; undefined
 2b4:	6e655f32 	uqrshl	v18.8h, v25.8h, v5.8h
 2b8:	6e616964 	fcvtxn2	v4.4s, v11.2d
 2bc:	6769625f 	.inst	0x6769625f ; undefined
 2c0:	74696c32 	.inst	0x74696c32 ; undefined
 2c4:	00656c74 	.inst	0x00656c74 ; undefined
 2c8:	5f627464 	sqshl	d4, d3, #34
 2cc:	00727470 	.inst	0x00727470 ; undefined
 2d0:	4f495043 	.inst	0x4f495043 ; undefined
 2d4:	4645445f 	.inst	0x4645445f ; undefined
 2d8:	544c5541 	b.ne	98d80 <thread_list+0x10360>  // b.any
 2dc:	4154535f 	.inst	0x4154535f ; undefined
 2e0:	6e005452 	.inst	0x6e005452 ; undefined
 2e4:	5f65646f 	.inst	0x5f65646f ; undefined
 2e8:	65707974 	fnmls	z20.h, p6/m, z11.h, z16.h
 2ec:	61727400 	.inst	0x61727400 ; undefined
 2f0:	73726576 	.inst	0x73726576 ; undefined
 2f4:	65645f65 	fnmla	z5.h, p7/m, z27.h, z4.h
 2f8:	65636976 	fnmls	z22.h, p2/m, z11.h, z3.h
 2fc:	6572745f 	fnmls	z31.h, p5/m, z2.h, z18.h
 300:	616e0065 	.inst	0x616e0065 ; undefined
 304:	735f656d 	.inst	0x735f656d ; undefined
 308:	00657a69 	.inst	0x00657a69 ; undefined
 30c:	657a6973 	fnmls	z19.h, p2/m, z11.h, z26.h
 310:	5f74645f 	.inst	0x5f74645f ; undefined
 314:	69727473 	ldpsw	x19, x29, [x3, #-112]
 318:	0073676e 	.inst	0x0073676e ; undefined
 31c:	5f627464 	sqshl	d4, d3, #34
 320:	6c6c6163 	ldnp	d3, d24, [x11, #-320]
 324:	6b636162 	.inst	0x6b636162 ; undefined
 328:	66666f00 	.inst	0x66666f00 ; undefined
 32c:	5f74645f 	.inst	0x5f74645f ; undefined
 330:	69727473 	ldpsw	x19, x29, [x3, #-112]
 334:	0073676e 	.inst	0x0073676e ; undefined
 338:	5f627464 	sqshl	d4, d3, #34
 33c:	5f746567 	.inst	0x5f746567 ; undefined
 340:	65736572 	fnmls	z18.h, p1/m, z11.h, z19.h
 344:	64657672 	.inst	0x64657672 ; undefined
 348:	6d656d5f 	ldp	d31, d27, [x10, #-432]
 34c:	0079726f 	.inst	0x0079726f ; undefined
 350:	7473616c 	.inst	0x7473616c ; undefined
 354:	6d6f635f 	ldp	d31, d24, [x26, #-272]
 358:	65765f70 	fnmla	z16.h, p7/m, z27.h, z22.h
 35c:	6f697372 	fcmla	v18.8h, v27.8h, v9.h[1], #270
 360:	7464006e 	.inst	0x7464006e ; undefined
 364:	7274735f 	.inst	0x7274735f ; undefined
 368:	5f746375 	.inst	0x5f746375 ; undefined
 36c:	00727470 	.inst	0x00727470 ; undefined
 370:	6c727473 	ldnp	d19, d29, [x3, #-224]
 374:	43006e65 	.inst	0x43006e65 ; undefined
 378:	5f4f4950 	.inst	0x5f4f4950 ; undefined
 37c:	41464544 	.inst	0x41464544 ; undefined
 380:	5f544c55 	.inst	0x5f544c55 ; undefined
 384:	00444e45 	.inst	0x00444e45 ; undefined
 388:	746f6f62 	.inst	0x746f6f62 ; undefined
 38c:	7570635f 	.inst	0x7570635f ; undefined
 390:	705f6469 	adr	x9, bf01f <thread_list+0x365ff>
 394:	00737968 	.inst	0x00737968 ; undefined
 398:	5f726c65 	.inst	0x5f726c65 ; undefined
 39c:	00316c65 	.inst	0x00316c65 ; NYI
 3a0:	6f697270 	fcmla	v16.8h, v19.8h, v9.h[1], #270
 3a4:	79746972 	ldrh	w18, [x11, #6708]
 3a8:	7a736900 	.inst	0x7a736900 ; undefined
 3ac:	69626d6f 	ldpsw	x15, x27, [x11, #-240]
 3b0:	69730065 	ldpsw	x5, x0, [x3, #-104]
 3b4:	745f657a 	.inst	0x745f657a ; undefined
 3b8:	6d697400 	ldp	d0, d29, [x0, #-368]
 3bc:	645f7265 	fcmla	z5.h, p4/m, z19.h, z31.h, #270
 3c0:	62617369 	.inst	0x62617369 ; undefined
 3c4:	695f656c 	ldpsw	x12, x25, [x11, #248]
 3c8:	7265746e 	.inst	0x7265746e ; undefined
 3cc:	74707572 	.inst	0x74707572 ; undefined
 3d0:	72687400 	.inst	0x72687400 ; undefined
 3d4:	5f646165 	.inst	0x5f646165 ; undefined
 3d8:	746e6f63 	.inst	0x746e6f63 ; undefined
 3dc:	00747865 	.inst	0x00747865 ; undefined
 3e0:	74726175 	.inst	0x74726175 ; undefined
 3e4:	5f78745f 	sqshl	d31, d2, #56
 3e8:	5f717269 	sqdmlsl	s9, h19, v1.h[3]
 3ec:	61736964 	.inst	0x61736964 ; undefined
 3f0:	00656c62 	.inst	0x00656c62 ; undefined
 3f4:	65686373 	fnmls	z19.h, p0/m, z27.h, z8.h
 3f8:	656c7564 	fnmls	z4.h, p5/m, z11.h, z12.h
 3fc:	646f6300 	.inst	0x646f6300 ; undefined
 400:	7a697365 	.inst	0x7a697365 ; undefined
 404:	6f6c0065 	mla	v5.8h, v3.8h, v12.h[2]
 408:	635f6b63 	.inst	0x635f6b63 ; undefined
 40c:	746e756f 	.inst	0x746e756f ; undefined
 410:	72617500 	.inst	0x72617500 ; undefined
 414:	78745f74 	.inst	0x78745f74 ; undefined
 418:	7172695f 	cmp	w10, #0xc9a, lsl #12
 41c:	6e61685f 	fcvtxn2	v31.4s, v2.2d
 420:	72656c64 	.inst	0x72656c64 ; undefined
 424:	72617500 	.inst	0x72617500 ; undefined
 428:	78725f74 	.inst	0x78725f74 ; undefined
 42c:	7172695f 	cmp	w10, #0xc9a, lsl #12
 430:	6e61685f 	fcvtxn2	v31.4s, v2.2d
 434:	72656c64 	.inst	0x72656c64 ; undefined
 438:	6d697400 	ldp	d0, d29, [x0, #-368]
 43c:	655f7265 	fcmeq	p5.h, p4/z, z19.h, z31.h
 440:	6c62616e 	ldnp	d14, d24, [x11, #-480]
 444:	6e695f65 	uqrshl	v5.8h, v27.8h, v9.8h
 448:	72726574 	.inst	0x72726574 ; undefined
 44c:	00747075 	.inst	0x00747075 ; undefined
 450:	676e6f6c 	.inst	0x676e6f6c ; undefined
 454:	6e6f6c20 	umin	v0.8h, v1.8h, v15.8h
 458:	6e692067 	usubl2	v7.4s, v3.8h, v9.8h
 45c:	75720074 	.inst	0x75720074 ; undefined
 460:	75715f6e 	.inst	0x75715f6e ; undefined
 464:	00657565 	.inst	0x00657565 ; undefined
 468:	6e676973 	.inst	0x6e676973 ; undefined
 46c:	695f6c61 	ldpsw	x1, x27, [x3, #248]
 470:	6f72506e 	fcmla	v14.8h, v3.8h, v18.h[1], #180
 474:	73736563 	.inst	0x73736563 ; undefined
 478:	306c6500 	adr	x0, d9119 <thread_list+0x506f9>
 47c:	6e79735f 	uabdl2	v31.4s, v26.8h, v25.8h
 480:	6f725f63 	.inst	0x6f725f63 ; undefined
 484:	72657475 	.inst	0x72657475 ; undefined
 488:	65686300 	fnmls	z0.h, p0/m, z24.h, z8.h
 48c:	735f6b63 	.inst	0x735f6b63 ; undefined
 490:	616e6769 	.inst	0x616e6769 ; undefined
 494:	7375006c 	.inst	0x7375006c ; undefined
 498:	735f7265 	.inst	0x735f7265 ; undefined
 49c:	6b636174 	.inst	0x6b636174 ; undefined
 4a0:	7274705f 	.inst	0x7274705f ; undefined
 4a4:	72617500 	.inst	0x72617500 ; undefined
 4a8:	68325f74 	.inst	0x68325f74 ; undefined
 4ac:	69007865 	stgp	x5, x30, [x3]
 4b0:	6c61766e 	ldnp	d14, d29, [x19, #-496]
 4b4:	655f6469 	fcmeq	p9.h, p1/z, z3.h, z31.h
 4b8:	70656378 	adr	x24, cb127 <thread_list+0x42707>
 4bc:	6e6f6974 	.inst	0x6e6f6974 ; undefined
 4c0:	756f725f 	.inst	0x756f725f ; undefined
 4c4:	00726574 	.inst	0x00726574 ; undefined
 4c8:	5f316c65 	.inst	0x5f316c65 ; undefined
 4cc:	65746e69 	fnmls	z9.h, p3/m, z19.h, z20.h
 4d0:	70757272 	adr	x18, eb31f <thread_list+0x628ff>
 4d4:	69645f74 	ldpsw	x20, x23, [x27, #-224]
 4d8:	6c626173 	ldnp	d19, d24, [x11, #-480]
 4dc:	72740065 	.inst	0x72740065 ; undefined
 4e0:	665f7061 	.inst	0x665f7061 ; undefined
 4e4:	656d6172 	fnmls	z18.h, p0/m, z11.h, z13.h
 4e8:	6e6f6c00 	umin	v0.8h, v0.8h, v15.8h
 4ec:	6f642067 	umlal2	v7.4s, v3.8h, v4.h[2]
 4f0:	656c6275 	fnmls	z21.h, p0/m, z19.h, z12.h
 4f4:	72617500 	.inst	0x72617500 ; undefined
 4f8:	78725f74 	.inst	0x78725f74 ; undefined
 4fc:	7172695f 	cmp	w10, #0xc9a, lsl #12
 500:	7369645f 	.inst	0x7369645f ; undefined
 504:	656c6261 	fnmls	z1.h, p0/m, z19.h, z12.h
 508:	67697300 	.inst	0x67697300 ; undefined
 50c:	5f6c616e 	.inst	0x5f6c616e ; undefined
 510:	69676572 	ldpsw	x18, x25, [x11, #-200]
 514:	72657473 	.inst	0x72657473 ; undefined
 518:	736e7500 	.inst	0x736e7500 ; undefined
 51c:	656e6769 	fnmls	z9.h, p1/m, z27.h, z14.h
 520:	68632064 	.inst	0x68632064 ; undefined
 524:	74007261 	.inst	0x74007261 ; undefined
 528:	72656d69 	.inst	0x72656d69 ; undefined
 52c:	6e61685f 	fcvtxn2	v31.4s, v2.2d
 530:	72656c64 	.inst	0x72656c64 ; undefined
 534:	73797300 	.inst	0x73797300 ; undefined
 538:	6c6c6163 	ldnp	d3, d24, [x11, #-320]
 53c:	006f6e5f 	.inst	0x006f6e5f ; undefined
 540:	6e676973 	.inst	0x6e676973 ; undefined
 544:	735f6c61 	.inst	0x735f6c61 ; undefined
 548:	64657661 	.inst	0x64657661 ; undefined
 54c:	746e6f43 	.inst	0x746e6f43 ; undefined
 550:	00747865 	.inst	0x00747865 ; undefined
 554:	43746567 	.inst	0x43746567 ; undefined
 558:	65727275 	fnmls	z21.h, p4/m, z19.h, z18.h
 55c:	4c45746e 	.inst	0x4c45746e ; undefined
 560:	6c6e7500 	ldnp	d0, d29, [x8, #-288]
 564:	006b636f 	.inst	0x006b636f ; undefined
 568:	68316c65 	.inst	0x68316c65 ; undefined
 56c:	7172695f 	cmp	w10, #0xc9a, lsl #12
 570:	756f725f 	.inst	0x756f725f ; undefined
 574:	00726574 	.inst	0x00726574 ; undefined
 578:	6b736174 	.inst	0x6b736174 ; undefined
 57c:	6e75665f 	umax	v31.8h, v18.8h, v21.8h
 580:	6f697463 	uqshl	v3.2d, v3.2d, #41
 584:	6c65006e 	ldnp	d14, d0, [x3, #-432]
 588:	6e695f31 	uqrshl	v17.8h, v25.8h, v9.8h
 58c:	72726574 	.inst	0x72726574 ; undefined
 590:	5f747075 	sqdmlsl	s21, h3, v4.h[3]
 594:	62616e65 	.inst	0x62616e65 ; undefined
 598:	6900656c 	stgp	x12, x25, [x11]
 59c:	61747172 	.inst	0x61747172 ; undefined
 5a0:	6c5f6b73 	ldnp	d19, d26, [x27, #496]
 5a4:	5f747369 	sqdmlsl	s9, h27, v4.h[3]
 5a8:	74696e69 	.inst	0x74696e69 ; undefined
 5ac:	73707300 	.inst	0x73707300 ; undefined
 5b0:	6c655f72 	ldnp	d18, d23, [x27, #-432]
 5b4:	75630031 	.inst	0x75630031 ; undefined
 5b8:	735f7272 	.inst	0x735f7272 ; undefined
 5bc:	616e6769 	.inst	0x616e6769 ; undefined
 5c0:	61685f6c 	.inst	0x61685f6c ; undefined
 5c4:	656c646e 	fnmls	z14.h, p1/m, z3.h, z12.h
 5c8:	72690072 	.inst	0x72690072 ; undefined
 5cc:	65685f71 	fnmla	z17.h, p7/m, z27.h, z8.h
 5d0:	73006461 	.inst	0x73006461 ; undefined
 5d4:	6f636769 	sqshlu	v9.2d, v27.2d, #35
 5d8:	00746e75 	.inst	0x00746e75 ; undefined
 5dc:	655f7073 	fcmne	p3.h, p4/z, z3.h, z31.h
 5e0:	6900306c 	stgp	x12, x12, [x3]
 5e4:	65737573 	fnmls	z19.h, p5/m, z11.h, z19.h
 5e8:	69730064 	ldpsw	x4, x0, [x3, #-104]
 5ec:	6c616e67 	ldnp	d7, d27, [x19, #-496]
 5f0:	7465725f 	.inst	0x7465725f ; undefined
 5f4:	006e7275 	.inst	0x006e7275 ; undefined
 5f8:	5f717269 	sqdmlsl	s9, h19, v1.h[3]
 5fc:	7473696c 	.inst	0x7473696c ; undefined
 600:	736e695f 	.inst	0x736e695f ; undefined
 604:	5f747265 	sqdmlsl	s5, h19, v4.h[3]
 608:	6e6f7266 	uabdl2	v6.4s, v19.8h, v15.8h
 60c:	72690074 	.inst	0x72690074 ; undefined
 610:	6f6e5f71 	.inst	0x6f6e5f71 ; undefined
 614:	70006564 	adr	x4, 12c3 <_start-0x7ed3d>
 618:	00766572 	.inst	0x00766572 ; undefined
 61c:	5f646461 	.inst	0x5f646461 ; undefined
 620:	5f717269 	sqdmlsl	s9, h19, v1.h[3]
 624:	6b736174 	.inst	0x6b736174 ; undefined
 628:	72656b00 	.inst	0x72656b00 ; undefined
 62c:	5f6c656e 	.inst	0x5f6c656e ; undefined
 630:	63617473 	.inst	0x63617473 ; undefined
 634:	74705f6b 	.inst	0x74705f6b ; undefined
 638:	656e0072 	fmla	z18.h, p0/m, z3.h, z14.h
 63c:	73007478 	.inst	0x73007478 ; undefined
 640:	616e6769 	.inst	0x616e6769 ; undefined
 644:	696b5f6c 	ldpsw	x12, x23, [x27, #-168]
 648:	69006c6c 	stgp	x12, x27, [x3]
 64c:	5f74696e 	.inst	0x5f74696e ; undefined
 650:	65726874 	fnmls	z20.h, p2/m, z3.h, z18.h
 654:	74006461 	.inst	0x74006461 ; undefined
 658:	72656d69 	.inst	0x72656d69 ; undefined
 65c:	73696c5f 	.inst	0x73696c5f ; undefined
 660:	6e695f74 	uqrshl	v20.8h, v27.8h, v9.8h
 664:	75007469 	.inst	0x75007469 ; undefined
 668:	5f747261 	sqdmlsl	s1, h19, v4.h[3]
 66c:	74696e69 	.inst	0x74696e69 ; undefined
 670:	6d697400 	ldp	d0, d29, [x0, #-368]
 674:	695f7265 	ldpsw	x5, x28, [x19, #248]
 678:	5f74696e 	.inst	0x5f74696e ; undefined
 67c:	65746e69 	fnmls	z9.h, p3/m, z19.h, z20.h
 680:	70757272 	adr	x18, eb4cf <thread_list+0x62aaf>
 684:	616d0074 	.inst	0x616d0074 ; undefined
 688:	61006e69 	.inst	0x61006e69 ; undefined
 68c:	636f6c6c 	.inst	0x636f6c6c ; undefined
 690:	726f7461 	.inst	0x726f7461 ; undefined
 694:	696e695f 	ldpsw	xzr, x26, [x10, #-144]
 698:	6c630074 	ldnp	d20, d0, [x3, #-464]
 69c:	72705f69 	.inst	0x72705f69 ; undefined
 6a0:	5f746e69 	.inst	0x5f746e69 ; undefined
 6a4:	6e6e6162 	rsubhn2	v2.8h, v11.4s, v14.4s
 6a8:	63007265 	.inst	0x63007265 ; undefined
 6ac:	635f696c 	.inst	0x635f696c ; undefined
 6b0:	635f646d 	.inst	0x635f646d ; undefined
 6b4:	7261656c 	.inst	0x7261656c ; undefined
 6b8:	706e6900 	adr	x0, dd3db <thread_list+0x549bb>
 6bc:	625f7475 	.inst	0x625f7475 ; undefined
 6c0:	65666675 	fnmls	z21.h, p1/m, z19.h, z6.h
 6c4:	6c630072 	ldnp	d18, d0, [x3, #-464]
 6c8:	6d635f69 	ldp	d9, d23, [x27, #-464]
 6cc:	78655f64 	.inst	0x78655f64 ; undefined
 6d0:	63006365 	.inst	0x63006365 ; undefined
 6d4:	635f696c 	.inst	0x635f696c ; undefined
 6d8:	725f646d 	.inst	0x725f646d ; undefined
 6dc:	00646165 	.inst	0x00646165 ; undefined
 6e0:	584f424d 	ldr	x13, 9ef28 <thread_list+0x16508>
 6e4:	574f505f 	.inst	0x574f505f ; undefined
 6e8:	4d5f5245 	.inst	0x4d5f5245 ; undefined
 6ec:	47414e41 	.inst	0x47414e41 ; undefined
 6f0:	4e454d45 	.inst	0x4e454d45 ; undefined
 6f4:	424d0054 	.inst	0x424d0054 ; undefined
 6f8:	545f584f 	b.nv	bf200 <thread_list+0x367e0>
 6fc:	5f534741 	.inst	0x5f534741 ; undefined
 700:	5f4d5241 	.inst	0x5f4d5241 ; undefined
 704:	565f4f54 	.inst	0x565f4f54 ; undefined
 708:	424d0043 	.inst	0x424d0043 ; undefined
 70c:	525f584f 	.inst	0x525f584f ; undefined
 710:	45555145 	ssubwb	z5.h, z10.h, z21.b
 714:	535f5453 	.inst	0x535f5453 ; undefined
 718:	45434355 	saddwb	z21.h, z26.h, z3.b
 71c:	6b004445 	subs	w5, w2, w0, lsl #17
 720:	6f626d5f 	.inst	0x6f626d5f ; undefined
 724:	61635f78 	.inst	0x61635f78 ; undefined
 728:	6d006c6c 	stp	d12, d27, [x3]
 72c:	5f786f62 	.inst	0x5f786f62 ; undefined
 730:	6e616863 	fcvtxn2	v3.4s, v3.2d
 734:	5f6c656e 	.inst	0x5f6c656e ; undefined
 738:	65707974 	fnmls	z20.h, p6/m, z11.h, z16.h
 73c:	4f424d00 	.inst	0x4f424d00 ; undefined
 740:	41545f58 	.inst	0x41545f58 ; undefined
 744:	565f5347 	.inst	0x565f5347 ; undefined
 748:	4f545f43 	.inst	0x4f545f43 ; undefined
 74c:	4d52415f 	.inst	0x4d52415f ; undefined
 750:	4d434200 	.inst	0x4d434200 ; undefined
 754:	4d52415f 	.inst	0x4d52415f ; undefined
 758:	5f43565f 	shl	d31, d18, #3
 75c:	465f534d 	.inst	0x465f534d ; undefined
 760:	004c4c55 	.inst	0x004c4c55 ; undefined
 764:	584f424d 	ldr	x13, 9efac <thread_list+0x1658c>
 768:	4843565f 	ldxrh	wzr, [x18]
 76c:	4d005149 	st1	{v9.h}[6], [x10]
 770:	5f584f42 	.inst	0x5f584f42 ; undefined
 774:	55514552 	.inst	0x55514552 ; undefined
 778:	5f545345 	.inst	0x5f545345 ; undefined
 77c:	4c494146 	.inst	0x4c494146 ; undefined
 780:	42004445 	.inst	0x42004445 ; undefined
 784:	415f4d43 	.inst	0x415f4d43 ; undefined
 788:	565f4d52 	.inst	0x565f4d52 ; undefined
 78c:	534d5f43 	.inst	0x534d5f43 ; undefined
 790:	504d455f 	adr	xzr, 9b03a <thread_list+0x1261a>
 794:	4d005954 	st1	{v20.h}[7], [x10]
 798:	5f584f42 	.inst	0x5f584f42 ; undefined
 79c:	4d415246 	.inst	0x4d415246 ; undefined
 7a0:	46554245 	.inst	0x46554245 ; undefined
 7a4:	00524546 	.inst	0x00524546 ; undefined
 7a8:	786f626d 	ldumaxlh	w15, w13, [x19]
 7ac:	6174735f 	.inst	0x6174735f ; undefined
 7b0:	5f737574 	sqshl	d20, d11, #51
 7b4:	5f676572 	.inst	0x5f676572 ; undefined
 7b8:	73746962 	.inst	0x73746962 ; undefined
 7bc:	4f424d00 	.inst	0x4f424d00 ; undefined
 7c0:	45525f58 	usubwt	z24.h, z26.h, z18.b
 7c4:	53455551 	.inst	0x53455551 ; undefined
 7c8:	52505f54 	.inst	0x52505f54 ; undefined
 7cc:	5345434f 	.inst	0x5345434f ; undefined
 7d0:	68630053 	.inst	0x68630053 ; undefined
 7d4:	656e6e61 	fnmls	z1.h, p3/m, z19.h, z14.h
 7d8:	424d006c 	.inst	0x424d006c ; undefined
 7dc:	555f584f 	.inst	0x555f584f ; undefined
 7e0:	4553554e 	ssubwt	z14.h, z10.h, z19.b
 7e4:	43420044 	.inst	0x43420044 ; undefined
 7e8:	52415f4d 	.inst	0x52415f4d ; undefined
 7ec:	43565f4d 	.inst	0x43565f4d ; undefined
 7f0:	5f534d5f 	.inst	0x5f534d5f ; undefined
 7f4:	4556454c 	saddwt	z12.h, z10.h, z22.b
 7f8:	424d004c 	.inst	0x424d004c ; undefined
 7fc:	565f584f 	.inst	0x565f584f ; undefined
 800:	55545249 	.inst	0x55545249 ; undefined
 804:	555f4c41 	.inst	0x555f4c41 ; undefined
 808:	00545241 	.inst	0x00545241 ; undefined
 80c:	584f424d 	ldr	x13, 9f054 <thread_list+0x16634>
 810:	554f545f 	.inst	0x554f545f ; undefined
 814:	43534843 	.inst	0x43534843 ; undefined
 818:	4e454552 	.inst	0x4e454552 ; undefined
 81c:	4f424d00 	.inst	0x4f424d00 ; undefined
 820:	454c5f58 	usubwt	z24.h, z26.h, z12.b
 824:	4d005344 	st1	{v4.h}[6], [x26]
 828:	5f584f42 	.inst	0x5f584f42 ; undefined
 82c:	54545542 	b.cs	a92d4 <thread_list+0x208b4>  // b.hs, b.nlast
 830:	00534e4f 	.inst	0x00534e4f ; undefined
 834:	786f626d 	ldumaxlh	w15, w13, [x19]
 838:	6675625f 	.inst	0x6675625f ; undefined
 83c:	5f726566 	.inst	0x5f726566 ; undefined
 840:	74617473 	.inst	0x74617473 ; undefined
 844:	635f7375 	.inst	0x635f7375 ; undefined
 848:	0065646f 	.inst	0x0065646f ; undefined
 84c:	616e7964 	.inst	0x616e7964 ; undefined
 850:	5f63696d 	.inst	0x5f63696d ; undefined
 854:	65657266 	fnmls	z6.h, p4/m, z19.h, z5.h
 858:	64756200 	.inst	0x64756200 ; undefined
 85c:	72007964 	ands	w4, w11, #0x7fffffff
 860:	61656c65 	.inst	0x61656c65 ; undefined
 864:	725f6573 	.inst	0x725f6573 ; undefined
 868:	6e756465 	umax	v5.8h, v3.8h, v21.8h
 86c:	746e6164 	.inst	0x746e6164 ; undefined
 870:	61726600 	.inst	0x61726600 ; undefined
 874:	735f656d 	.inst	0x735f656d ; undefined
 878:	00746f6c 	.inst	0x00746f6c ; undefined
 87c:	65676170 	fnmls	z16.h, p0/m, z11.h, z7.h
 880:	736e6900 	.inst	0x736e6900 ; undefined
 884:	5f747265 	sqdmlsl	s5, h19, v4.h[3]
 888:	6d617266 	ldp	d6, d28, [x19, #-496]
 88c:	6f6e5f65 	.inst	0x6f6e5f65 ; undefined
 890:	6b006564 	subs	w4, w11, w0, lsl #25
 894:	65657266 	fnmls	z6.h, p4/m, z19.h, z5.h
 898:	67617000 	.inst	0x67617000 ; undefined
 89c:	72665f65 	.inst	0x72665f65 ; undefined
 8a0:	70006565 	adr	x5, 154f <_start-0x7eab1>
 8a4:	5f656761 	.inst	0x5f656761 ; undefined
 8a8:	6c6c616d 	ldnp	d13, d24, [x11, #-320]
 8ac:	6600636f 	.inst	0x6600636f ; undefined
 8b0:	656d6172 	fnmls	z18.h, p0/m, z11.h, z13.h
 8b4:	6174735f 	.inst	0x6174735f ; undefined
 8b8:	61007472 	.inst	0x61007472 ; undefined
 8bc:	636f6c6c 	.inst	0x636f6c6c ; undefined
 8c0:	64657461 	.inst	0x64657461 ; undefined
 8c4:	6464615f 	.inst	0x6464615f ; undefined
 8c8:	6c730072 	ldnp	d18, d0, [x3, #-208]
 8cc:	615f746f 	.inst	0x615f746f ; undefined
 8d0:	00726464 	.inst	0x00726464 ; undefined
 8d4:	746f6c73 	.inst	0x746f6c73 ; undefined
 8d8:	76656c5f 	.inst	0x76656c5f ; undefined
 8dc:	6e006c65 	.inst	0x6e006c65 ; undefined
 8e0:	65646565 	fnmls	z5.h, p1/m, z11.h, z4.h
 8e4:	72665f64 	.inst	0x72665f64 ; undefined
 8e8:	00656d61 	.inst	0x00656d61 ; undefined
 8ec:	6c616d6b 	ldnp	d11, d27, [x11, #-496]
 8f0:	00636f6c 	.inst	0x00636f6c ; undefined
 8f4:	706d7564 	adr	x4, db7a3 <thread_list+0x52d83>
 8f8:	6572665f 	fnmls	z31.h, p1/m, z18.h, z18.h
 8fc:	6c735f65 	ldnp	d5, d23, [x27, #-208]
 900:	6c5f746f 	ldnp	d15, d29, [x3, #496]
 904:	00747369 	.inst	0x00747369 ; undefined
 908:	746f6c73 	.inst	0x746f6c73 ; undefined
 90c:	7a69735f 	.inst	0x7a69735f ; undefined
 910:	72660065 	.inst	0x72660065 ; undefined
 914:	5f656d61 	.inst	0x5f656d61 ; undefined
 918:	00646e65 	.inst	0x00646e65 ; undefined
 91c:	6f707865 	fcmla	v5.8h, v3.8h, v16.h[3], #270
 920:	61726600 	.inst	0x61726600 ; undefined
 924:	615f656d 	.inst	0x615f656d ; undefined
 928:	79617272 	ldrh	w18, [x19, #4280]
 92c:	65685f00 	fnmla	z0.h, p7/m, z24.h, z8.h
 930:	745f7061 	.inst	0x745f7061 ; undefined
 934:	6800706f 	.inst	0x6800706f ; undefined
 938:	5f706f74 	.inst	0x5f706f74 ; undefined
 93c:	00727470 	.inst	0x00727470 ; undefined
 940:	616e7964 	.inst	0x616e7964 ; undefined
 944:	5f63696d 	.inst	0x5f63696d ; undefined
 948:	6c6c616d 	ldnp	d13, d24, [x11, #-320]
 94c:	6300636f 	.inst	0x6300636f ; undefined
 950:	705f7475 	adr	x21, bf7df <thread_list+0x36dbf>
 954:	5f656761 	.inst	0x5f656761 ; undefined
 958:	735f6f74 	.inst	0x735f6f74 ; undefined
 95c:	00746f6c 	.inst	0x00746f6c ; undefined
 960:	65676170 	fnmls	z16.h, p0/m, z11.h, z7.h
 964:	6172665f 	.inst	0x6172665f ; undefined
 968:	705f656d 	adr	x13, bf617 <thread_list+0x36bf7>
 96c:	64007274 	.inst	0x64007274 ; undefined
 970:	5f706d75 	.inst	0x5f706d75 ; undefined
 974:	65657266 	fnmls	z6.h, p4/m, z19.h, z5.h
 978:	6172665f 	.inst	0x6172665f ; undefined
 97c:	6c5f656d 	ldnp	d13, d25, [x11, #496]
 980:	00747369 	.inst	0x00747369 ; undefined
 984:	746f6c73 	.inst	0x746f6c73 ; undefined
 988:	65656e5f 	fnmls	z31.h, p3/m, z18.h, z5.h
 98c:	00646564 	.inst	0x00646564 ; undefined
 990:	6c616f63 	ldnp	d3, d27, [x27, #-496]
 994:	65637365 	fnmls	z5.h, p4/m, z27.h, z3.h
 998:	65687400 	fnmls	z0.h, p5/m, z0.h, z8.h
 99c:	6172665f 	.inst	0x6172665f ; undefined
 9a0:	6700656d 	.inst	0x6700656d ; undefined
 9a4:	69547465 	ldpsw	x5, x29, [x3, #160]
 9a8:	4672656d 	.inst	0x4672656d ; undefined
 9ac:	00716572 	.inst	0x00716572 ; undefined
 9b0:	584f424d 	ldr	x13, 9f1f8 <thread_list+0x167d8>
 9b4:	4741545f 	.inst	0x4741545f ; undefined
 9b8:	5445475f 	bc.nv	8b2a0 <thread_list+0x2880>
 9bc:	5f43565f 	shl	d31, d18, #3
 9c0:	4f4d454d 	.inst	0x4f4d454d ; undefined
 9c4:	4d005952 	st1	{v18.h}[7], [x10]
 9c8:	5f584f42 	.inst	0x5f584f42 ; undefined
 9cc:	5f474154 	.inst	0x5f474154 ; undefined
 9d0:	5f544547 	.inst	0x5f544547 ; undefined
 9d4:	434f4c43 	.inst	0x434f4c43 ; undefined
 9d8:	6300534b 	.inst	0x6300534b ; undefined
 9dc:	6c69665f 	ldnp	d31, d25, [x18, #-368]
 9e0:	74616465 	.inst	0x74616465 ; undefined
 9e4:	65740061 	fmla	z1.h, p0/m, z3.h, z20.h
 9e8:	00317473 	.inst	0x00317473 ; NYI
 9ec:	74736574 	.inst	0x74736574 ; undefined
 9f0:	6978655f 	ldpsw	xzr, x25, [x10, #-64]
 9f4:	65740074 	fmla	z20.h, p0/m, z3.h, z20.h
 9f8:	00337473 	.inst	0x00337473 ; NYI
 9fc:	635f6f64 	.inst	0x635f6f64 ; undefined
 a00:	745f646d 	.inst	0x745f646d ; undefined
 a04:	41747365 	.inst	0x41747365 ; undefined
 a08:	636e7973 	.inst	0x636e7973 ; undefined
 a0c:	74726155 	.inst	0x74726155 ; undefined
 a10:	67647700 	.inst	0x67647700 ; undefined
 a14:	6464615f 	.inst	0x6464615f ; undefined
 a18:	64610072 	fmla	z18.h, z3.h, z1.h[4]
 a1c:	69745f64 	ldpsw	x4, x23, [x27, #-96]
 a20:	0072656d 	.inst	0x0072656d ; undefined
 a24:	635f6f64 	.inst	0x635f6f64 ; undefined
 a28:	655f646d 	fcmeq	p13.h, p1/z, z3.h, z31.h
 a2c:	00636578 	.inst	0x00636578 ; undefined
 a30:	635f6f64 	.inst	0x635f6f64 ; undefined
 a34:	685f646d 	.inst	0x685f646d ; undefined
 a38:	00706c65 	.inst	0x00706c65 ; undefined
 a3c:	636d656d 	.inst	0x636d656d ; undefined
 a40:	74007970 	.inst	0x74007970 ; undefined
 a44:	61657268 	.inst	0x61657268 ; undefined
 a48:	78655f64 	.inst	0x78655f64 ; undefined
 a4c:	4d006365 	st3	{v5.h-v7.h}[4], [x27]
 a50:	5f584f42 	.inst	0x5f584f42 ; undefined
 a54:	5f474154 	.inst	0x5f474154 ; undefined
 a58:	5f544547 	.inst	0x5f544547 ; undefined
 a5c:	52414f42 	.inst	0x52414f42 ; undefined
 a60:	45535f44 	usubwt	z4.h, z26.h, z19.b
 a64:	4c414952 	.inst	0x4c414952 ; undefined
 a68:	61656800 	.inst	0x61656800 ; undefined
 a6c:	5f726564 	.inst	0x5f726564 ; undefined
 a70:	00727470 	.inst	0x00727470 ; undefined
 a74:	584f424d 	ldr	x13, 9f2bc <thread_list+0x1689c>
 a78:	4741545f 	.inst	0x4741545f ; undefined
 a7c:	5445475f 	bc.nv	8b364 <thread_list+0x2944>
 a80:	414f425f 	.inst	0x414f425f ; undefined
 a84:	4d5f4452 	.inst	0x4d5f4452 ; undefined
 a88:	4c45444f 	.inst	0x4c45444f ; undefined
 a8c:	73657400 	.inst	0x73657400 ; undefined
 a90:	696b5f74 	ldpsw	x20, x23, [x27, #-168]
 a94:	66006c6c 	.inst	0x66006c6c ; undefined
 a98:	5f6d6f72 	.inst	0x5f6d6f72 ; undefined
 a9c:	5f316c65 	.inst	0x5f316c65 ; undefined
 aa0:	655f6f74 	fcmne	p4.h, p3/z, z27.h, z31.h
 aa4:	6300306c 	.inst	0x6300306c ; undefined
 aa8:	616d6d6f 	.inst	0x616d6d6f ; undefined
 aac:	7300646e 	.inst	0x7300646e ; undefined
 ab0:	535f7274 	.inst	0x535f7274 ; undefined
 ab4:	79627065 	ldrh	w5, [x3, #4408]
 ab8:	63617053 	.inst	0x63617053 ; undefined
 abc:	6f640065 	mla	v5.8h, v3.8h, v4.h[2]
 ac0:	646d635f 	.inst	0x646d635f ; undefined
 ac4:	00736c5f 	.inst	0x00736c5f ; undefined
 ac8:	74726175 	.inst	0x74726175 ; undefined
 acc:	7973615f 	ldrh	wzr, [x10, #6576]
 ad0:	675f636e 	.inst	0x675f636e ; undefined
 ad4:	00637465 	.inst	0x00637465 ; undefined
 ad8:	635f6f64 	.inst	0x635f6f64 ; undefined
 adc:	685f646d 	.inst	0x685f646d ; undefined
 ae0:	6f6c6c65 	.inst	0x6f6c6c65 ; undefined
 ae4:	67726100 	.inst	0x67726100 ; undefined
 ae8:	63007376 	.inst	0x63007376 ; undefined
 aec:	6c5f646d 	ldnp	d13, d25, [x3, #496]
 af0:	00747369 	.inst	0x00747369 ; undefined
 af4:	635f6f64 	.inst	0x635f6f64 ; undefined
 af8:	645f646d 	fcmla	z13.h, p1/m, z3.h, z31.h, #270
 afc:	64006274 	.inst	0x64006274 ; undefined
 b00:	6d635f6f 	ldp	d15, d23, [x27, #-464]
 b04:	61635f64 	.inst	0x61635f64 ; undefined
 b08:	6f640074 	mla	v20.8h, v3.8h, v4.h[2]
 b0c:	646d635f 	.inst	0x646d635f ; undefined
 b10:	6d656d5f 	ldp	d31, d27, [x10, #-432]
 b14:	7365745f 	.inst	0x7365745f ; undefined
 b18:	6f640074 	mla	v20.8h, v3.8h, v4.h[2]
 b1c:	646d635f 	.inst	0x646d635f ; undefined
 b20:	7379735f 	.inst	0x7379735f ; undefined
 b24:	6c6c6163 	ldnp	d3, d24, [x11, #-320]
 b28:	7365745f 	.inst	0x7365745f ; undefined
 b2c:	73720074 	.inst	0x73720074 ; undefined
 b30:	64615f74 	.inst	0x64615f74 ; undefined
 b34:	75007264 	.inst	0x75007264 ; undefined
 b38:	5f747261 	sqdmlsl	s1, h19, v4.h[3]
 b3c:	76636572 	.inst	0x76636572 ; undefined
 b40:	6863655f 	.inst	0x6863655f ; undefined
 b44:	6c665f6f 	ldnp	d15, d23, [x27, #-416]
 b48:	75006761 	.inst	0x75006761 ; undefined
 b4c:	5f747261 	sqdmlsl	s1, h19, v4.h[3]
 b50:	6e797361 	uabdl2	v1.4s, v27.8h, v25.8h
 b54:	75705f63 	.inst	0x75705f63 ; undefined
 b58:	74006374 	.inst	0x74006374 ; undefined
 b5c:	5f747365 	sqdmlsl	s5, h27, v4.h[3]
 b60:	70746567 	adr	x7, e980f <thread_list+0x60def>
 b64:	74006469 	.inst	0x74006469 ; undefined
 b68:	5f747365 	sqdmlsl	s5, h27, v4.h[3]
 b6c:	6b726f66 	.inst	0x6b726f66 ; undefined
 b70:	5f6f6400 	.inst	0x5f6f6400 ; undefined
 b74:	5f646d63 	.inst	0x5f646d63 ; undefined
 b78:	65726874 	fnmls	z20.h, p2/m, z3.h, z18.h
 b7c:	745f6461 	.inst	0x745f6461 ; undefined
 b80:	00747365 	.inst	0x00747365 ; undefined
 b84:	74736574 	.inst	0x74736574 ; undefined
 b88:	7261755f 	.inst	0x7261755f ; undefined
 b8c:	65725f74 	fnmla	z20.h, p7/m, z27.h, z18.h
 b90:	74006461 	.inst	0x74006461 ; undefined
 b94:	32747365 	.inst	0x32747365 ; undefined
 b98:	6c646900 	ldnp	d0, d26, [x8, #-448]
 b9c:	6f640065 	mla	v5.8h, v3.8h, v4.h[2]
 ba0:	646d635f 	.inst	0x646d635f ; undefined
 ba4:	7465735f 	.inst	0x7465735f ; undefined
 ba8:	656d6954 	fnmls	z20.h, p2/m, z10.h, z13.h
 bac:	65740072 	fmla	z18.h, p0/m, z3.h, z20.h
 bb0:	755f7473 	.inst	0x755f7473 ; undefined
 bb4:	5f747261 	sqdmlsl	s1, h19, v4.h[3]
 bb8:	74697277 	.inst	0x74697277 ; undefined
 bbc:	626d0065 	.inst	0x626d0065 ; undefined
 bc0:	6500786f 	.inst	0x6500786f ; undefined
 bc4:	726f7272 	.inst	0x726f7272 ; undefined
 bc8:	4f424d00 	.inst	0x4f424d00 ; undefined
 bcc:	41545f58 	.inst	0x41545f58 ; undefined
 bd0:	45475f47 	usubwt	z7.h, z26.h, z7.b
 bd4:	4f425f54 	.inst	0x4f425f54 ; undefined
 bd8:	5f445241 	.inst	0x5f445241 ; undefined
 bdc:	5f43414d 	.inst	0x5f43414d ; undefined
 be0:	52444441 	.inst	0x52444441 ; undefined
 be4:	00535345 	.inst	0x00535345 ; undefined
 be8:	6b726f66 	.inst	0x6b726f66 ; undefined
 bec:	7365745f 	.inst	0x7365745f ; undefined
 bf0:	74610074 	.inst	0x74610074 ; undefined
 bf4:	6400696f 	.inst	0x6400696f ; undefined
 bf8:	6d635f6f 	ldp	d15, d23, [x27, #-464]
 bfc:	65735f64 	fnmla	z4.h, p7/m, z27.h, z19.h
 c00:	54733274 	bc.mi	e724c <thread_list+0x5e82c>  // bc.first
 c04:	72656d69 	.inst	0x72656d69 ; undefined
 c08:	72756300 	.inst	0x72756300 ; undefined
 c0c:	0070735f 	.inst	0x0070735f ; undefined
 c10:	635f6f64 	.inst	0x635f6f64 ; undefined
 c14:	695f646d 	ldpsw	x13, x25, [x3, #248]
 c18:	006f666e 	.inst	0x006f666e ; undefined
 c1c:	635f6f64 	.inst	0x635f6f64 ; undefined
 c20:	725f646d 	.inst	0x725f646d ; undefined
 c24:	6f6f6265 	umlsl2	v5.4s, v19.8h, v15.h[2]
 c28:	6e630074 	uaddl2	v20.4s, v3.8h, v3.8h
 c2c:	74637074 	.inst	0x74637074 ; undefined
 c30:	306c655f 	adr	xzr, d98d9 <thread_list+0x50eb9>
 c34:	746e6300 	.inst	0x746e6300 ; undefined
 c38:	5f717266 	sqdmlsl	s6, h19, v1.h[3]
 c3c:	00306c65 	.inst	0x00306c65 ; NYI
 c40:	74726175 	.inst	0x74726175 ; undefined
 c44:	6e65735f 	uabdl2	v31.4s, v26.8h, v5.8h
 c48:	68740064 	.inst	0x68740064 ; undefined
 c4c:	64616572 	.inst	0x64616572 ; undefined
 c50:	6572635f 	fnmls	z31.h, p0/m, z26.h, z18.h
 c54:	00657461 	.inst	0x00657461 ; undefined
 c58:	5f746567 	.inst	0x5f746567 ; undefined
 c5c:	72727563 	.inst	0x72727563 ; undefined
 c60:	00746e65 	.inst	0x00746e65 ; undefined
 c64:	5f696c63 	.inst	0x5f696c63 ; undefined
 c68:	5f646d63 	.inst	0x5f646d63 ; undefined
 c6c:	63727473 	.inst	0x63727473 ; undefined
 c70:	6400706d 	.inst	0x6400706d ; undefined
 c74:	6d635f6f 	ldp	d15, d23, [x27, #-464]
 c78:	69735f64 	ldpsw	x4, x23, [x27, #-104]
 c7c:	656c706d 	fnmls	z13.h, p4/m, z3.h, z12.h
 c80:	6c616d5f 	ldnp	d31, d27, [x10, #-496]
 c84:	00636f6c 	.inst	0x00636f6c ; undefined
 c88:	69665f63 	ldpsw	x3, x23, [x27, #-208]
 c8c:	6170656c 	.inst	0x6170656c ; undefined
 c90:	74006874 	.inst	0x74006874 ; undefined
 c94:	72656d69 	.inst	0x72656d69 ; undefined
 c98:	6972705f 	ldpsw	xzr, x28, [x2, #-112]
 c9c:	6d5f746e 	ldp	d14, d29, [x3, #496]
 ca0:	4d006773 	.inst	0x4d006773 ; undefined
 ca4:	5f584f42 	.inst	0x5f584f42 ; undefined
 ca8:	5f474154 	.inst	0x5f474154 ; undefined
 cac:	5f544547 	.inst	0x5f544547 ; undefined
 cb0:	5f4d5241 	.inst	0x5f4d5241 ; undefined
 cb4:	4f4d454d 	.inst	0x4f4d454d ; undefined
 cb8:	74005952 	.inst	0x74005952 ; undefined
 cbc:	5f747365 	sqdmlsl	s5, h27, v4.h[3]
 cc0:	786f626d 	ldumaxlh	w15, w13, [x19]
 cc4:	6c61635f 	ldnp	d31, d24, [x26, #-496]
 cc8:	424d006c 	.inst	0x424d006c ; undefined
 ccc:	545f584f 	b.nv	bf7d4 <thread_list+0x36db4>
 cd0:	475f4741 	.inst	0x475f4741 ; undefined
 cd4:	465f5445 	.inst	0x465f5445 ; undefined
 cd8:	574d5249 	.inst	0x574d5249 ; undefined
 cdc:	5f455241 	.inst	0x5f455241 ; undefined
 ce0:	53524556 	.inst	0x53524556 ; undefined
 ce4:	004e4f49 	.inst	0x004e4f49 ; undefined
 ce8:	584f424d 	ldr	x13, 9f530 <thread_list+0x16b10>
 cec:	4741545f 	.inst	0x4741545f ; undefined
 cf0:	5445475f 	bc.nv	8b5d8 <thread_list+0x2bb8>
 cf4:	414f425f 	.inst	0x414f425f ; undefined
 cf8:	525f4452 	.inst	0x525f4452 ; undefined
 cfc:	53495645 	.inst	0x53495645 ; undefined
 d00:	004e4f49 	.inst	0x004e4f49 ; undefined
 d04:	5f494c43 	.inst	0x5f494c43 ; undefined
 d08:	53444d43 	.inst	0x53444d43 ; undefined
 d0c:	67697300 	.inst	0x67697300 ; undefined
 d10:	5f6c616e 	.inst	0x5f6c616e ; undefined
 d14:	646e6168 	.inst	0x646e6168 ; undefined
 d18:	5f72656c 	.inst	0x5f72656c ; undefined
 d1c:	70617277 	adr	x23, c3b6b <thread_list+0x3b14b>
 d20:	00726570 	.inst	0x00726570 ; undefined
 d24:	6e676973 	.inst	0x6e676973 ; undefined
 d28:	645f6c61 	fcmla	z1.h, p3/m, z3.h, z31.h, #270
 d2c:	75616665 	.inst	0x75616665 ; undefined
 d30:	685f746c 	.inst	0x685f746c ; undefined
 d34:	6c646e61 	ldnp	d1, d27, [x19, #-448]
 d38:	73007265 	.inst	0x73007265 ; undefined
 d3c:	616e6769 	.inst	0x616e6769 ; undefined
 d40:	73755f6c 	.inst	0x73755f6c ; undefined
 d44:	735f7265 	.inst	0x735f7265 ; undefined
 d48:	6b636174 	.inst	0x6b636174 ; undefined
 d4c:	6e757200 	uabdl2	v0.4s, v16.8h, v21.8h
 d50:	6769735f 	.inst	0x6769735f ; undefined
 d54:	006c616e 	.inst	0x006c616e ; undefined
 d58:	726f7473 	.inst	0x726f7473 ; undefined
 d5c:	6f635f65 	.inst	0x6f635f65 ; undefined
 d60:	7865746e 	.inst	0x7865746e ; undefined
 d64:	68740074 	.inst	0x68740074 ; undefined
 d68:	64616572 	.inst	0x64616572 ; undefined
 d6c:	73696c5f 	.inst	0x73696c5f ; undefined
 d70:	75630074 	.inst	0x75630074 ; undefined
 d74:	68745f72 	.inst	0x68745f72 ; undefined
 d78:	64616572 	.inst	0x64616572 ; undefined
 d7c:	67726100 	.inst	0x67726100 ; undefined
 d80:	61700076 	.inst	0x61700076 ; undefined
 d84:	746e6572 	.inst	0x746e6572 ; undefined
 d88:	74656700 	.inst	0x74656700 ; undefined
 d8c:	6c69665f 	ldnp	d31, d25, [x18, #-368]
 d90:	74735f65 	.inst	0x74735f65 ; undefined
 d94:	00747261 	.inst	0x00747261 ; undefined
 d98:	64616f6c 	.inst	0x64616f6c ; undefined
 d9c:	6e6f635f 	rsubhn2	v31.8h, v26.4s, v15.4s
 da0:	74786574 	.inst	0x74786574 ; undefined
 da4:	61747300 	.inst	0x61747300 ; undefined
 da8:	00737574 	.inst	0x00737574 ; undefined
 dac:	5f746567 	.inst	0x5f746567 ; undefined
 db0:	656c6966 	fnmls	z6.h, p2/m, z11.h, z12.h
 db4:	7a69735f 	.inst	0x7a69735f ; undefined
 db8:	68740065 	.inst	0x68740065 ; undefined
 dbc:	64616572 	.inst	0x64616572 ; undefined
 dc0:	6978655f 	ldpsw	xzr, x25, [x10, #-64]
 dc4:	61700074 	.inst	0x61700074 ; undefined
 dc8:	746e6572 	.inst	0x746e6572 ; undefined
 dcc:	0064695f 	.inst	0x0064695f ; undefined
 dd0:	6c696863 	ldnp	d3, d26, [x3, #-368]
 dd4:	77730064 	.inst	0x77730064 ; undefined
 dd8:	68637469 	.inst	0x68637469 ; undefined
 ddc:	006f745f 	.inst	0x006f745f ; undefined
 de0:	6c6c696b 	ldnp	d11, d26, [x11, #-320]
 de4:	6d6f7a5f 	ldp	d31, d30, [x18, #-272]
 de8:	00656962 	.inst	0x00656962 ; undefined
 dec:	65686373 	fnmls	z19.h, p0/m, z27.h, z8.h
 df0:	656c7564 	fnmls	z4.h, p5/m, z11.h, z12.h
 df4:	6d69745f 	ldp	d31, d29, [x2, #-368]
 df8:	70007265 	adr	x5, 1c47 <_start-0x7e3b9>
 dfc:	635f6469 	.inst	0x635f6469 ; undefined
 e00:	6600746e 	.inst	0x6600746e ; undefined
 e04:	69636e75 	ldpsw	x21, x27, [x19, #-232]
 e08:	735f6e6f 	.inst	0x735f6e6f ; undefined
 e0c:	74726174 	.inst	0x74726174 ; undefined
 e10:	696f705f 	ldpsw	xzr, x28, [x2, #-136]
 e14:	7400746e 	.inst	0x7400746e ; undefined
 e18:	745f6568 	.inst	0x745f6568 ; undefined
 e1c:	61657268 	.inst	0x61657268 ; undefined
 e20:	74730064 	.inst	0x74730064 ; undefined
 e24:	79706372 	ldrh	w18, [x27, #6192]
 e28:	6d697400 	ldp	d0, d29, [x0, #-368]
 e2c:	6c5f7265 	ldnp	d5, d28, [x19, #496]
 e30:	5f747369 	sqdmlsl	s9, h27, v4.h[3]
 e34:	65736e69 	fnmls	z9.h, p3/m, z19.h, z19.h
 e38:	665f7472 	.inst	0x665f7472 ; undefined
 e3c:	746e6f72 	.inst	0x746e6f72 ; undefined
 e40:	74657300 	.inst	0x74657300 ; undefined
 e44:	6d69745f 	ldp	d31, d29, [x2, #-368]
 e48:	695f7265 	ldpsw	x5, x28, [x19, #248]
 e4c:	7265746e 	.inst	0x7265746e ; undefined
 e50:	74707572 	.inst	0x74707572 ; undefined
 e54:	5f79625f 	.inst	0x5f79625f ; undefined
 e58:	6b636974 	.inst	0x6b636974 ; undefined
 e5c:	70786500 	adr	x0, f1aff <thread_list+0x690df>
 e60:	5f657269 	sqdmlsl	s9, h19, v5.h[2]
 e64:	656d6974 	fnmls	z20.h, p2/m, z11.h, z13.h
 e68:	6d697400 	ldp	d0, d29, [x0, #-368]
 e6c:	74756f65 	.inst	0x74756f65 ; undefined
 e70:	6d697400 	ldp	d0, d29, [x0, #-368]
 e74:	685f7265 	.inst	0x685f7265 ; undefined
 e78:	00646165 	.inst	0x00646165 ; undefined
 e7c:	656d6974 	fnmls	z20.h, p2/m, z11.h, z13.h
 e80:	6f6e5f72 	.inst	0x6f6e5f72 ; undefined
 e84:	73006564 	.inst	0x73006564 ; undefined
 e88:	745f7465 	.inst	0x745f7465 ; undefined
 e8c:	72656d69 	.inst	0x72656d69 ; undefined
 e90:	746e695f 	.inst	0x746e695f ; undefined
 e94:	75727265 	.inst	0x75727265 ; undefined
 e98:	69007470 	stgp	x16, x29, [x3]
 e9c:	7265746e 	.inst	0x7265746e ; undefined
 ea0:	74707572 	.inst	0x74707572 ; undefined
 ea4:	6d69745f 	ldp	d31, d29, [x2, #-368]
 ea8:	61750065 	.inst	0x61750065 ; undefined
 eac:	745f7472 	.inst	0x745f7472 ; undefined
 eb0:	72695f78 	.inst	0x72695f78 ; undefined
 eb4:	6e655f71 	uqrshl	v17.8h, v27.8h, v5.8h
 eb8:	656c6261 	fnmls	z1.h, p0/m, z19.h, z12.h
 ebc:	72617500 	.inst	0x72617500 ; undefined
 ec0:	78725f74 	.inst	0x78725f74 ; undefined
 ec4:	6675625f 	.inst	0x6675625f ; undefined
 ec8:	00726566 	.inst	0x00726566 ; undefined
 ecc:	74726175 	.inst	0x74726175 ; undefined
 ed0:	5f78725f 	sqdmlsl	s31, h18, v8.h[3]
 ed4:	5f717269 	sqdmlsl	s9, h19, v1.h[3]
 ed8:	62616e65 	.inst	0x62616e65 ; undefined
 edc:	5f00656c 	.inst	0x5f00656c ; undefined
 ee0:	5f72675f 	.inst	0x5f72675f ; undefined
 ee4:	00706f74 	.inst	0x00706f74 ; undefined
 ee8:	74735f5f 	.inst	0x74735f5f ; undefined
 eec:	006b6361 	.inst	0x006b6361 ; undefined
 ef0:	74726175 	.inst	0x74726175 ; undefined
 ef4:	5f78725f 	sqdmlsl	s31, h18, v8.h[3]
 ef8:	74697277 	.inst	0x74697277 ; undefined
 efc:	61750065 	.inst	0x61750065 ; undefined
 f00:	725f7472 	.inst	0x725f7472 ; undefined
 f04:	00766365 	.inst	0x00766365 ; undefined
 f08:	74726175 	.inst	0x74726175 ; undefined
 f0c:	5f78725f 	sqdmlsl	s31, h18, v8.h[3]
 f10:	64616572 	.inst	0x64616572 ; undefined
 f14:	70737600 	adr	x0, e7dd7 <thread_list+0x5f3b7>
 f18:	746e6972 	.inst	0x746e6972 ; undefined
 f1c:	5f5f0066 	.inst	0x5f5f0066 ; undefined
 f20:	6c5f6176 	ldnp	d22, d24, [x11, #496]
 f24:	00747369 	.inst	0x00747369 ; undefined
 f28:	74726175 	.inst	0x74726175 ; undefined
 f2c:	5f78745f 	sqshl	d31, d2, #56
 f30:	74697277 	.inst	0x74697277 ; undefined
 f34:	5f5f0065 	.inst	0x5f5f0065 ; undefined
 f38:	6f5f7276 	fcmla	v22.8h, v19.8h, v31.h[0], #270
 f3c:	00736666 	.inst	0x00736666 ; undefined
 f40:	72765f5f 	.inst	0x72765f5f ; undefined
 f44:	706f745f 	adr	xzr, dfdcf <thread_list+0x573af>
 f48:	67726100 	.inst	0x67726100 ; undefined
 f4c:	61750073 	.inst	0x61750073 ; undefined
 f50:	745f7472 	.inst	0x745f7472 ; undefined
 f54:	75625f78 	.inst	0x75625f78 ; undefined
 f58:	72656666 	.inst	0x72656666 ; undefined
 f5c:	72617500 	.inst	0x72617500 ; undefined
 f60:	78745f74 	.inst	0x78745f74 ; undefined
 f64:	6165725f 	.inst	0x6165725f ; undefined
 f68:	5f5f0064 	.inst	0x5f5f0064 ; undefined
 f6c:	6f5f7267 	fcmla	v7.8h, v19.8h, v31.h[0], #270
 f70:	00736666 	.inst	0x00736666 ; undefined
 f74:	74726175 	.inst	0x74726175 ; undefined
 f78:	7465675f 	.inst	0x7465675f ; undefined
 f7c:	6d740063 	ldp	d3, d0, [x3, #-192]
 f80:	72747370 	.inst	0x72747370 ; undefined
 f84:	706f6300 	adr	x0, dfbe7 <thread_list+0x571c7>
 f88:	72747379 	.inst	0x72747379 ; undefined
 f8c:	00676e69 	.inst	0x00676e69 ; undefined
 f90:	74736564 	.inst	0x74736564 ; undefined
 f94:	69726f00 	ldpsw	x0, x27, [x24, #-112]
 f98:	69730067 	ldpsw	x7, x0, [x3, #-104]
 f9c:	Address 0x0000000000000f9c is out of bounds.


Disassembly of section .debug_line_str:

0000000000000000 <.debug_line_str>:
   0:	6d6f682f 	ldp	d15, d26, [x1, #-272]
   4:	61682f65 	.inst	0x61682f65 ; undefined
   8:	6e2f6b6e 	.inst	0x6e2f6b6e ; undefined
   c:	6f5f7765 	uqshl	v5.2d, v27.2d, #31
  10:	6f2f6373 	.inst	0x6f2f6373 ; undefined
  14:	30326373 	adr	x19, 64c81 <_start-0x1b37f>
  18:	6c2f3432 	stnp	d18, d13, [x1, #-272]
  1c:	2f356261 	.inst	0x2f356261 ; undefined
  20:	6e72656b 	umax	v11.8h, v11.8h, v18.8h
  24:	73006c65 	.inst	0x73006c65 ; undefined
  28:	632f6372 	.inst	0x632f6372 ; undefined
  2c:	2e6f6970 	.inst	0x2e6f6970 ; undefined
  30:	72730063 	.inst	0x72730063 ; undefined
  34:	70630063 	adr	x3, c6043 <thread_list+0x3d623>
  38:	682e6f69 	.inst	0x682e6f69 ; undefined
  3c:	735f7500 	.inst	0x735f7500 ; undefined
  40:	6e697274 	uabdl2	v20.4s, v19.8h, v9.8h
  44:	00682e67 	.inst	0x00682e67 ; undefined
  48:	2f637273 	fcmla	v19.4h, v19.4h, v3.h[1], #270
  4c:	2e627464 	uabd	v4.4h, v3.4h, v2.4h
  50:	61750063 	.inst	0x61750063 ; undefined
  54:	2e317472 	uabd	v18.8b, v3.8b, v17.8b
  58:	74640068 	.inst	0x74640068 ; undefined
  5c:	00682e62 	.inst	0x00682e62 ; undefined
  60:	6f6d656d 	sqshlu	v13.2d, v11.2d, #45
  64:	682e7972 	.inst	0x682e7972 ; undefined
  68:	63727300 	.inst	0x63727300 ; undefined
  6c:	6378652f 	.inst	0x6378652f ; undefined
  70:	69747065 	ldpsw	x5, x28, [x3, #-96]
  74:	632e6e6f 	.inst	0x632e6e6f ; undefined
  78:	73752f00 	.inst	0x73752f00 ; undefined
  7c:	696c2f72 	ldpsw	x18, x11, [x27, #-160]
  80:	63672f62 	.inst	0x63672f62 ; undefined
  84:	72632d63 	.inst	0x72632d63 ; undefined
  88:	2f73736f 	fcmla	v15.4h, v27.4h, v19.h[1], #270
  8c:	63726161 	.inst	0x63726161 ; undefined
  90:	2d343668 	stp	s8, s13, [x19, #-96]
  94:	756e696c 	.inst	0x756e696c ; undefined
  98:	6e672d78 	uqsub	v24.8h, v11.8h, v7.8h
  9c:	31312f75 	adds	w21, w27, #0xc4b
  a0:	636e692f 	.inst	0x636e692f ; undefined
  a4:	6564756c 	fnmls	z12.h, p5/m, z11.h, z4.h
  a8:	63786500 	.inst	0x63786500 ; undefined
  ac:	69747065 	ldpsw	x5, x28, [x3, #-96]
  b0:	682e6e6f 	.inst	0x682e6e6f ; undefined
  b4:	64747300 	.inst	0x64747300 ; undefined
  b8:	2e666564 	umax	v4.4h, v11.4h, v6.4h
  bc:	79730068 	ldrh	w8, [x3, #6528]
  c0:	6c616373 	ldnp	d19, d24, [x27, #-496]
  c4:	00682e6c 	.inst	0x00682e6c ; undefined
  c8:	65726874 	fnmls	z20.h, p2/m, z3.h, z18.h
  cc:	682e6461 	.inst	0x682e6461 ; undefined
  d0:	67697300 	.inst	0x67697300 ; undefined
  d4:	2e6c616e 	rsubhn	v14.4h, v11.4s, v12.4s
  d8:	69740068 	ldpsw	x8, x0, [x3, #-96]
  dc:	2e72656d 	umax	v13.4h, v11.4h, v18.4h
  e0:	72730068 	.inst	0x72730068 ; undefined
  e4:	616d2f63 	.inst	0x616d2f63 ; undefined
  e8:	632e6e69 	.inst	0x632e6e69 ; undefined
  ec:	65687300 	fnmls	z0.h, p4/m, z24.h, z8.h
  f0:	682e6c6c 	.inst	0x682e6c6c ; undefined
  f4:	63727300 	.inst	0x63727300 ; undefined
  f8:	6f626d2f 	.inst	0x6f626d2f ; undefined
  fc:	00632e78 	.inst	0x00632e78 ; undefined
 100:	786f626d 	ldumaxlh	w15, w13, [x19]
 104:	7300682e 	.inst	0x7300682e ; undefined
 108:	6d2f6372 	stp	d18, d24, [x27, #-272]
 10c:	726f6d65 	.inst	0x726f6d65 ; undefined
 110:	00632e79 	.inst	0x00632e79 ; undefined
 114:	2f637273 	fcmla	v19.4h, v19.4h, v3.h[1], #270
 118:	6c656873 	ldnp	d19, d26, [x3, #-432]
 11c:	00632e6c 	.inst	0x00632e6c ; undefined
 120:	2f637273 	fcmla	v19.4h, v19.4h, v3.h[1], #270
 124:	6e676973 	.inst	0x6e676973 ; undefined
 128:	632e6c61 	.inst	0x632e6c61 ; undefined
 12c:	63727300 	.inst	0x63727300 ; undefined
 130:	7379732f 	.inst	0x7379732f ; undefined
 134:	6c6c6163 	ldnp	d3, d24, [x11, #-320]
 138:	7300632e 	.inst	0x7300632e ; undefined
 13c:	742f6372 	.inst	0x742f6372 ; undefined
 140:	61657268 	.inst	0x61657268 ; undefined
 144:	00632e64 	.inst	0x00632e64 ; undefined
 148:	2f637273 	fcmla	v19.4h, v19.4h, v3.h[1], #270
 14c:	656d6974 	fnmls	z20.h, p2/m, z11.h, z13.h
 150:	00632e72 	.inst	0x00632e72 ; undefined
 154:	2f637273 	fcmla	v19.4h, v19.4h, v3.h[1], #270
 158:	74726175 	.inst	0x74726175 ; undefined
 15c:	00632e31 	.inst	0x00632e31 ; undefined
 160:	6975623c 	ldpsw	x28, x24, [x17, #-88]
 164:	692d746c 	stgp	x12, x29, [x3, #-608]
 168:	73003e6e 	.inst	0x73003e6e ; undefined
 16c:	752f6372 	.inst	0x752f6372 ; undefined
 170:	7274735f 	.inst	0x7274735f ; undefined
 174:	2e676e69 	umin	v9.4h, v19.4h, v7.4h
 178:	Address 0x0000000000000178 is out of bounds.


Disassembly of section .comment:

0000000000000000 <.comment>:
   0:	3a434347 	ccmn	w26, w3, #0x7, mi  // mi = first
   4:	62552820 	.inst	0x62552820 ; undefined
   8:	75746e75 	.inst	0x75746e75 ; undefined
   c:	2e313120 	usubw	v0.8h, v9.8h, v17.8b
  10:	2d302e34 	stp	s20, s11, [x17, #-128]
  14:	75627531 	.inst	0x75627531 ; undefined
  18:	3175746e 	adds	w14, w3, #0xd5d, lsl #12
  1c:	2e32327e 	usubw	v30.8h, v19.8h, v18.8b
  20:	20293430 	.inst	0x20293430 ; undefined
  24:	342e3131 	cbz	w17, 5c648 <_start-0x239b8>
  28:	Address 0x0000000000000028 is out of bounds.


Disassembly of section .debug_rnglists:

0000000000000000 <.debug_rnglists>:
   0:	00000013 	udf	#19
   4:	00080005 	.inst	0x00080005 ; undefined
   8:	00000000 	udf	#0
   c:	dc0aac04 	.inst	0xdc0aac04 ; undefined
  10:	0aec040a 	bic	w10, w0, w12, ror #1
  14:	13000af0 	sbfx	w16, w23, #0, #3
  18:	05000000 	orr	z0.s, z0.s, #0x1
  1c:	00000800 	udf	#2048
  20:	04000000 	add	z0.b, p0/m, z0.b, z0.b
  24:	04f804f0 	sub	z16.d, z7.d, z24.d
  28:	c8058004 	stlxr	w5, x4, [x0]
  2c:	Address 0x000000000000002c is out of bounds.

